
kernel.elf:     file format elf32-littlearm


Disassembly of section .boot:

e0000000 <_start>:
e0000000:	e59f503c 	ldr	r5, [pc, #60]	; e0000044 <KERNEL_BASE+0x44>
e0000004:	e129f005 	msr	CPSR_fc, r5
e0000008:	ee114f10 	mrc	15, 0, r4, cr1, cr0, {0}
e000000c:	e59f5034 	ldr	r5, [pc, #52]	; e0000048 <KERNEL_BASE+0x48>
e0000010:	e59f6034 	ldr	r6, [pc, #52]	; e000004c <KERNEL_BASE+0x4c>
e0000014:	e1844005 	orr	r4, r4, r5
e0000018:	e1c44006 	bic	r4, r4, r6
e000001c:	ee014f10 	mcr	15, 0, r4, cr1, cr0, {0}
e0000020:	e59fd028 	ldr	sp, [pc, #40]	; e0000050 <KERNEL_BASE+0x50>
e0000024:	e92d000f 	push	{r0, r1, r2, r3}
e0000028:	eb000278 	bl	e0000a10 <arm_errata>
e000002c:	e8bd000f 	pop	{r0, r1, r2, r3}
e0000030:	f1020017 	cps	#23
e0000034:	e59fd018 	ldr	sp, [pc, #24]	; e0000054 <KERNEL_BASE+0x54>
e0000038:	f1020013 	cps	#19
e000003c:	eb000d3a 	bl	e000352c <init_kernel>
e0000040:	ea0041ff 	b	e0010844 <restore_user_context>
e0000044:	000001d3 	.word	0x000001d3
e0000048:	00c03805 	.word	0x00c03805
e000004c:	33004382 	.word	0x33004382
e0000050:	e0029020 	.word	0xe0029020
e0000054:	e001c860 	.word	0xe001c860

e0000058 <dist_init>:
e0000058:	e30130ff 	movw	r3, #4351	; 0x10ff
e000005c:	e34f3ff0 	movt	r3, #65520	; 0xfff0
e0000060:	e51320fb 	ldr	r2, [r3, #-251]	; 0xffffff05
e0000064:	e202201f 	and	r2, r2, #31
e0000068:	e2822001 	add	r2, r2, #1
e000006c:	e3a01000 	mov	r1, #0
e0000070:	e50310ff 	str	r1, [r3, #-255]	; 0xffffff01
e0000074:	e1b02282 	lsls	r2, r2, #5
e0000078:	0a000059 	beq	e00001e4 <dist_init+0x18c>
e000007c:	e3e00000 	mvn	r0, #0
e0000080:	e1a032a1 	lsr	r3, r1, #5
e0000084:	e1a03103 	lsl	r3, r3, #2
e0000088:	e2433aff 	sub	r3, r3, #1044480	; 0xff000
e000008c:	e5830180 	str	r0, [r3, #384]	; 0x180
e0000090:	e5830280 	str	r0, [r3, #640]	; 0x280
e0000094:	e2811020 	add	r1, r1, #32
e0000098:	e1520001 	cmp	r2, r1
e000009c:	8afffff7 	bhi	e0000080 <dist_init+0x28>
e00000a0:	e3520020 	cmp	r2, #32
e00000a4:	9a00000a 	bls	e00000d4 <dist_init+0x7c>
e00000a8:	e3a01020 	mov	r1, #32
e00000ac:	e30100ff 	movw	r0, #4351	; 0x10ff
e00000b0:	e34f0ff0 	movt	r0, #65520	; 0xfff0
e00000b4:	e3a0c000 	mov	ip, #0
e00000b8:	e3c13003 	bic	r3, r1, #3
e00000bc:	e2833b01 	add	r3, r3, #1024	; 0x400
e00000c0:	e0803003 	add	r3, r0, r3
e00000c4:	e503c0ff 	str	ip, [r3, #-255]	; 0xffffff01
e00000c8:	e2811004 	add	r1, r1, #4
e00000cc:	e1520001 	cmp	r2, r1
e00000d0:	8afffff8 	bhi	e00000b8 <dist_init+0x60>
e00000d4:	e30130ff 	movw	r3, #4351	; 0x10ff
e00000d8:	e34f3ff0 	movt	r3, #65520	; 0xfff0
e00000dc:	e5933701 	ldr	r3, [r3, #1793]	; 0x701
e00000e0:	e1833823 	orr	r3, r3, r3, lsr #16
e00000e4:	e1933423 	orrs	r3, r3, r3, lsr #8
e00000e8:	1a00000e 	bne	e0000128 <dist_init+0xd0>
e00000ec:	e3a01000 	mov	r1, #0
e00000f0:	e30100ff 	movw	r0, #4351	; 0x10ff
e00000f4:	e34f0ff0 	movt	r0, #65520	; 0xfff0
e00000f8:	e2811004 	add	r1, r1, #4
e00000fc:	e1520001 	cmp	r2, r1
e0000100:	9a000007 	bls	e0000124 <dist_init+0xcc>
e0000104:	e3c13003 	bic	r3, r1, #3
e0000108:	e2833b02 	add	r3, r3, #2048	; 0x800
e000010c:	e0803003 	add	r3, r0, r3
e0000110:	e51330ff 	ldr	r3, [r3, #-255]	; 0xffffff01
e0000114:	e1833823 	orr	r3, r3, r3, lsr #16
e0000118:	e1933423 	orrs	r3, r3, r3, lsr #8
e000011c:	0afffff5 	beq	e00000f8 <dist_init+0xa0>
e0000120:	ea000000 	b	e0000128 <dist_init+0xd0>
e0000124:	e3a03001 	mov	r3, #1
e0000128:	e6ef3073 	uxtb	r3, r3
e000012c:	e1a01803 	lsl	r1, r3, #16
e0000130:	e1811403 	orr	r1, r1, r3, lsl #8
e0000134:	e1811003 	orr	r1, r1, r3
e0000138:	e1813c03 	orr	r3, r1, r3, lsl #24
e000013c:	e3a00000 	mov	r0, #0
e0000140:	e301c0ff 	movw	ip, #4351	; 0x10ff
e0000144:	e34fcff0 	movt	ip, #65520	; 0xfff0
e0000148:	e3c01003 	bic	r1, r0, #3
e000014c:	e2811b02 	add	r1, r1, #2048	; 0x800
e0000150:	e08c1001 	add	r1, ip, r1
e0000154:	e50130ff 	str	r3, [r1, #-255]	; 0xffffff01
e0000158:	e2800004 	add	r0, r0, #4
e000015c:	e1520000 	cmp	r2, r0
e0000160:	8afffff8 	bhi	e0000148 <dist_init+0xf0>
e0000164:	e3520040 	cmp	r2, #64	; 0x40
e0000168:	83a01040 	movhi	r1, #64	; 0x40
e000016c:	8301c0ff 	movwhi	ip, #4351	; 0x10ff
e0000170:	834fcff0 	movthi	ip, #65520	; 0xfff0
e0000174:	9a00000a 	bls	e00001a4 <dist_init+0x14c>
e0000178:	e1a032a1 	lsr	r3, r1, #5
e000017c:	e2833c03 	add	r3, r3, #768	; 0x300
e0000180:	e08c3103 	add	r3, ip, r3, lsl #2
e0000184:	e3050555 	movw	r0, #21845	; 0x5555
e0000188:	e7df0810 	bfi	r0, r0, #16, #16
e000018c:	e50300ff 	str	r0, [r3, #-255]	; 0xffffff01
e0000190:	e2811020 	add	r1, r1, #32
e0000194:	e1520001 	cmp	r2, r1
e0000198:	8afffff6 	bhi	e0000178 <dist_init+0x120>
e000019c:	e3520000 	cmp	r2, #0
e00001a0:	0a00000a 	beq	e00001d0 <dist_init+0x178>
e00001a4:	e3a01000 	mov	r1, #0
e00001a8:	e30100ff 	movw	r0, #4351	; 0x10ff
e00001ac:	e34f0ff0 	movt	r0, #65520	; 0xfff0
e00001b0:	e1a0c001 	mov	ip, r1
e00001b4:	e1a032a1 	lsr	r3, r1, #5
e00001b8:	e2833020 	add	r3, r3, #32
e00001bc:	e0803103 	add	r3, r0, r3, lsl #2
e00001c0:	e503c0ff 	str	ip, [r3, #-255]	; 0xffffff01
e00001c4:	e2811020 	add	r1, r1, #32
e00001c8:	e1520001 	cmp	r2, r1
e00001cc:	8afffff8 	bhi	e00001b4 <dist_init+0x15c>
e00001d0:	e30130ff 	movw	r3, #4351	; 0x10ff
e00001d4:	e34f3ff0 	movt	r3, #65520	; 0xfff0
e00001d8:	e3a02001 	mov	r2, #1
e00001dc:	e50320ff 	str	r2, [r3, #-255]	; 0xffffff01
e00001e0:	e12fff1e 	bx	lr
e00001e4:	e3520000 	cmp	r2, #0
e00001e8:	0afffff8 	beq	e00001d0 <dist_init+0x178>
e00001ec:	e3a03001 	mov	r3, #1
e00001f0:	eaffffcc 	b	e0000128 <dist_init+0xd0>

e00001f4 <cpu_iface_init>:
e00001f4:	e30130ff 	movw	r3, #4351	; 0x10ff
e00001f8:	e34f3ff0 	movt	r3, #65520	; 0xfff0
e00001fc:	e3e02000 	mvn	r2, #0
e0000200:	e5832081 	str	r2, [r3, #129]	; 0x81
e0000204:	e5832181 	str	r2, [r3, #385]	; 0x181
e0000208:	e3a01000 	mov	r1, #0
e000020c:	e503107f 	str	r1, [r3, #-127]	; 0xffffff81
e0000210:	e5831301 	str	r1, [r3, #769]	; 0x301
e0000214:	e5832e11 	str	r2, [r3, #3601]	; 0xe11
e0000218:	e5832e15 	str	r2, [r3, #3605]	; 0xe15
e000021c:	e5832e19 	str	r2, [r3, #3609]	; 0xe19
e0000220:	e5832e1d 	str	r2, [r3, #3613]	; 0xe1d
e0000224:	e30031ff 	movw	r3, #511	; 0x1ff
e0000228:	e34f3ff0 	movt	r3, #65520	; 0xfff0
e000022c:	e50310ff 	str	r1, [r3, #-255]	; 0xffffff01
e0000230:	e3a020f0 	mov	r2, #240	; 0xf0
e0000234:	e50320fb 	str	r2, [r3, #-251]	; 0xffffff05
e0000238:	e3a02003 	mov	r2, #3
e000023c:	e50320f7 	str	r2, [r3, #-247]	; 0xffffff09
e0000240:	e51330f3 	ldr	r3, [r3, #-243]	; 0xffffff0d
e0000244:	e7e91053 	ubfx	r1, r3, #0, #10
e0000248:	e30023ff 	movw	r2, #1023	; 0x3ff
e000024c:	e1510002 	cmp	r1, r2
e0000250:	0a000007 	beq	e0000274 <cpu_iface_init+0x80>
e0000254:	e30021ff 	movw	r2, #511	; 0x1ff
e0000258:	e34f2ff0 	movt	r2, #65520	; 0xfff0
e000025c:	e30003ff 	movw	r0, #1023	; 0x3ff
e0000260:	e50230ef 	str	r3, [r2, #-239]	; 0xffffff11
e0000264:	e51230f3 	ldr	r3, [r2, #-243]	; 0xffffff0d
e0000268:	e7e91053 	ubfx	r1, r3, #0, #10
e000026c:	e1510000 	cmp	r1, r0
e0000270:	1afffffa 	bne	e0000260 <cpu_iface_init+0x6c>
e0000274:	e30031ff 	movw	r3, #511	; 0x1ff
e0000278:	e34f3ff0 	movt	r3, #65520	; 0xfff0
e000027c:	e3a02001 	mov	r2, #1
e0000280:	e50320ff 	str	r2, [r3, #-255]	; 0xffffff01
e0000284:	e12fff1e 	bx	lr

e0000288 <Arch_configureIdleThread>:
e0000288:	e300315f 	movw	r3, #351	; 0x15f
e000028c:	e5803040 	str	r3, [r0, #64]	; 0x40
e0000290:	e30037a0 	movw	r3, #1952	; 0x7a0
e0000294:	e34e3001 	movt	r3, #57345	; 0xe001
e0000298:	e580303c 	str	r3, [r0, #60]	; 0x3c
e000029c:	e12fff1e 	bx	lr

e00002a0 <map_kernel_frame>:
e00002a0:	e92d4070 	push	{r4, r5, r6, lr}
e00002a4:	e1a04000 	mov	r4, r0
e00002a8:	e7e75651 	ubfx	r5, r1, #12, #8
e00002ac:	e3130001 	tst	r3, #1
e00002b0:	1a00000b 	bne	e00002e4 <map_kernel_frame+0x44>
e00002b4:	e1a00002 	mov	r0, r2
e00002b8:	eb00416f 	bl	e001087c <APFromVMRights>
e00002bc:	e3002000 	movw	r2, #0
e00002c0:	e34e2002 	movt	r2, #57346	; 0xe002
e00002c4:	e1a00200 	lsl	r0, r0, #4
e00002c8:	e2003030 	and	r3, r0, #48	; 0x30
e00002cc:	e3c40eff 	bic	r0, r4, #4080	; 0xff0
e00002d0:	e3c0000f 	bic	r0, r0, #15
e00002d4:	e3800006 	orr	r0, r0, #6
e00002d8:	e1830000 	orr	r0, r3, r0
e00002dc:	e7820105 	str	r0, [r2, r5, lsl #2]
e00002e0:	e8bd8070 	pop	{r4, r5, r6, pc}
e00002e4:	e1a00002 	mov	r0, r2
e00002e8:	eb004163 	bl	e001087c <APFromVMRights>
e00002ec:	e3002000 	movw	r2, #0
e00002f0:	e34e2002 	movt	r2, #57346	; 0xe002
e00002f4:	e1a00200 	lsl	r0, r0, #4
e00002f8:	e2003030 	and	r3, r0, #48	; 0x30
e00002fc:	e3c40eff 	bic	r0, r4, #4080	; 0xff0
e0000300:	e3c0000f 	bic	r0, r0, #15
e0000304:	e3800f51 	orr	r0, r0, #324	; 0x144
e0000308:	e3800002 	orr	r0, r0, #2
e000030c:	e1830000 	orr	r0, r3, r0
e0000310:	e7820105 	str	r0, [r2, r5, lsl #2]
e0000314:	e8bd8070 	pop	{r4, r5, r6, pc}

e0000318 <create_unmapped_it_frame_cap>:
e0000318:	e3520000 	cmp	r2, #0
e000031c:	1a000006 	bne	e000033c <create_unmapped_it_frame_cap+0x24>
e0000320:	e1a01421 	lsr	r1, r1, #8
e0000324:	e3c1100f 	bic	r1, r1, #15
e0000328:	e3811001 	orr	r1, r1, #1
e000032c:	e5801000 	str	r1, [r0]
e0000330:	e3a03603 	mov	r3, #3145728	; 0x300000
e0000334:	e5803004 	str	r3, [r0, #4]
e0000338:	e12fff1e 	bx	lr
e000033c:	e1a01521 	lsr	r1, r1, #10
e0000340:	e3c112ff 	bic	r1, r1, #-268435441	; 0xf000000f
e0000344:	e3c1153f 	bic	r1, r1, #264241152	; 0xfc00000
e0000348:	e3811003 	orr	r1, r1, #3
e000034c:	e5801000 	str	r1, [r0]
e0000350:	e3a03000 	mov	r3, #0
e0000354:	e348300c 	movt	r3, #32780	; 0x800c
e0000358:	e5803004 	str	r3, [r0, #4]
e000035c:	e12fff1e 	bx	lr

e0000360 <create_mapped_it_frame_cap>:
e0000360:	e92d43f0 	push	{r4, r5, r6, r7, r8, r9, lr}
e0000364:	e24dd00c 	sub	sp, sp, #12
e0000368:	e1a08000 	mov	r8, r0
e000036c:	e28d0008 	add	r0, sp, #8
e0000370:	e9000006 	stmdb	r0, {r1, r2}
e0000374:	e59d1028 	ldr	r1, [sp, #40]	; 0x28
e0000378:	e59d202c 	ldr	r2, [sp, #44]	; 0x2c
e000037c:	e59d0030 	ldr	r0, [sp, #48]	; 0x30
e0000380:	e3500000 	cmp	r0, #0
e0000384:	1a000016 	bne	e00003e4 <create_mapped_it_frame_cap+0x84>
e0000388:	e1a04702 	lsl	r4, r2, #14
e000038c:	e204447f 	and	r4, r4, #2130706432	; 0x7f000000
e0000390:	e3844001 	orr	r4, r4, #1
e0000394:	e1a03423 	lsr	r3, r3, #8
e0000398:	e3c3300f 	bic	r3, r3, #15
e000039c:	e1844003 	orr	r4, r4, r3
e00003a0:	e1a05b02 	lsl	r5, r2, #22
e00003a4:	e3855603 	orr	r5, r5, #3145728	; 0x300000
e00003a8:	e1855621 	orr	r5, r5, r1, lsr #12
e00003ac:	e59d2000 	ldr	r2, [sp]
e00003b0:	e3c22dff 	bic	r2, r2, #16320	; 0x3fc0
e00003b4:	e3c2203f 	bic	r2, r2, #63	; 0x3f
e00003b8:	e204300f 	and	r3, r4, #15
e00003bc:	e3530001 	cmp	r3, #1
e00003c0:	0a000015 	beq	e000041c <create_mapped_it_frame_cap+0xbc>
e00003c4:	e3530003 	cmp	r3, #3
e00003c8:	0a000018 	beq	e0000430 <create_mapped_it_frame_cap+0xd0>
e00003cc:	e6ef3073 	uxtb	r3, r3
e00003d0:	e3530001 	cmp	r3, #1
e00003d4:	13a09000 	movne	r9, #0
e00003d8:	1a000017 	bne	e000043c <create_mapped_it_frame_cap+0xdc>
e00003dc:	e3a09000 	mov	r9, #0
e00003e0:	ea000010 	b	e0000428 <create_mapped_it_frame_cap+0xc8>
e00003e4:	e1a04602 	lsl	r4, r2, #12
e00003e8:	e204457f 	and	r4, r4, #532676608	; 0x1fc00000
e00003ec:	e3844003 	orr	r4, r4, #3
e00003f0:	e1a03523 	lsr	r3, r3, #10
e00003f4:	e3c332ff 	bic	r3, r3, #-268435441	; 0xf000000f
e00003f8:	e3c3353f 	bic	r3, r3, #264241152	; 0xfc00000
e00003fc:	e1844003 	orr	r4, r4, r3
e0000400:	e3a05000 	mov	r5, #0
e0000404:	e3435ff0 	movt	r5, #16368	; 0x3ff0
e0000408:	e0055a02 	and	r5, r5, r2, lsl #20
e000040c:	e1855721 	orr	r5, r5, r1, lsr #14
e0000410:	e3855102 	orr	r5, r5, #-2147483648	; 0x80000000
e0000414:	e3855703 	orr	r5, r5, #786432	; 0xc0000
e0000418:	eaffffe3 	b	e00003ac <create_mapped_it_frame_cap+0x4c>
e000041c:	e1a09404 	lsl	r9, r4, #8
e0000420:	e3c99eff 	bic	r9, r9, #4080	; 0xff0
e0000424:	e3c9900f 	bic	r9, r9, #15
e0000428:	e1a07605 	lsl	r7, r5, #12
e000042c:	ea000003 	b	e0000440 <create_mapped_it_frame_cap+0xe0>
e0000430:	e1a09504 	lsl	r9, r4, #10
e0000434:	e3c99dff 	bic	r9, r9, #16320	; 0x3fc0
e0000438:	e3c9903f 	bic	r9, r9, #63	; 0x3f
e000043c:	e1a07705 	lsl	r7, r5, #14
e0000440:	e1a03a27 	lsr	r3, r7, #20
e0000444:	e7926103 	ldr	r6, [r2, r3, lsl #2]
e0000448:	e3c66fff 	bic	r6, r6, #1020	; 0x3fc
e000044c:	e3c66003 	bic	r6, r6, #3
e0000450:	e286620d 	add	r6, r6, #-805306368	; 0xd0000000
e0000454:	e7e77657 	ubfx	r7, r7, #12, #8
e0000458:	e3a00003 	mov	r0, #3
e000045c:	eb004106 	bl	e001087c <APFromVMRights>
e0000460:	e59d2034 	ldr	r2, [sp, #52]	; 0x34
e0000464:	e3003946 	movw	r3, #2374	; 0x946
e0000468:	e3520000 	cmp	r2, #0
e000046c:	03833001 	orreq	r3, r3, #1
e0000470:	e2899203 	add	r9, r9, #805306368	; 0x30000000
e0000474:	e1833009 	orr	r3, r3, r9
e0000478:	e1a00200 	lsl	r0, r0, #4
e000047c:	e2000030 	and	r0, r0, #48	; 0x30
e0000480:	e1833000 	orr	r3, r3, r0
e0000484:	e7863107 	str	r3, [r6, r7, lsl #2]
e0000488:	e5884000 	str	r4, [r8]
e000048c:	e5885004 	str	r5, [r8, #4]
e0000490:	e1a00008 	mov	r0, r8
e0000494:	e28dd00c 	add	sp, sp, #12
e0000498:	e8bd83f0 	pop	{r4, r5, r6, r7, r8, r9, pc}

e000049c <write_it_asid_pool>:
e000049c:	e24dd010 	sub	sp, sp, #16
e00004a0:	e28dc010 	add	ip, sp, #16
e00004a4:	e90c0003 	stmdb	ip, {r0, r1}
e00004a8:	e1a0100d 	mov	r1, sp
e00004ac:	e881000c 	stm	r1, {r2, r3}
e00004b0:	e59d3008 	ldr	r3, [sp, #8]
e00004b4:	e59d100c 	ldr	r1, [sp, #12]
e00004b8:	e203200e 	and	r2, r3, #14
e00004bc:	e352000e 	cmp	r2, #14
e00004c0:	1203000f 	andne	r0, r3, #15
e00004c4:	06ef0073 	uxtbeq	r0, r3
e00004c8:	e2402002 	sub	r2, r0, #2
e00004cc:	e352003c 	cmp	r2, #60	; 0x3c
e00004d0:	979ff102 	ldrls	pc, [pc, r2, lsl #2]
e00004d4:	ea000050 	b	e000061c <write_it_asid_pool+0x180>
e00004d8:	e00005cc 	.word	0xe00005cc
e00004dc:	e000061c 	.word	0xe000061c
e00004e0:	e00005d4 	.word	0xe00005d4
e00004e4:	e000061c 	.word	0xe000061c
e00004e8:	e00005dc 	.word	0xe00005dc
e00004ec:	e000061c 	.word	0xe000061c
e00004f0:	e00006ac 	.word	0xe00006ac
e00004f4:	e000061c 	.word	0xe000061c
e00004f8:	e00005e4 	.word	0xe00005e4
e00004fc:	e000061c 	.word	0xe000061c
e0000500:	e00005ec 	.word	0xe00005ec
e0000504:	e000061c 	.word	0xe000061c
e0000508:	e00006ac 	.word	0xe00006ac
e000050c:	e000061c 	.word	0xe000061c
e0000510:	e000061c 	.word	0xe000061c
e0000514:	e000061c 	.word	0xe000061c
e0000518:	e000061c 	.word	0xe000061c
e000051c:	e000061c 	.word	0xe000061c
e0000520:	e000061c 	.word	0xe000061c
e0000524:	e000061c 	.word	0xe000061c
e0000528:	e000061c 	.word	0xe000061c
e000052c:	e000061c 	.word	0xe000061c
e0000530:	e000061c 	.word	0xe000061c
e0000534:	e000061c 	.word	0xe000061c
e0000538:	e000061c 	.word	0xe000061c
e000053c:	e000061c 	.word	0xe000061c
e0000540:	e000061c 	.word	0xe000061c
e0000544:	e000061c 	.word	0xe000061c
e0000548:	e00006ac 	.word	0xe00006ac
e000054c:	e000061c 	.word	0xe000061c
e0000550:	e000061c 	.word	0xe000061c
e0000554:	e000061c 	.word	0xe000061c
e0000558:	e000061c 	.word	0xe000061c
e000055c:	e000061c 	.word	0xe000061c
e0000560:	e000061c 	.word	0xe000061c
e0000564:	e000061c 	.word	0xe000061c
e0000568:	e000061c 	.word	0xe000061c
e000056c:	e000061c 	.word	0xe000061c
e0000570:	e000061c 	.word	0xe000061c
e0000574:	e000061c 	.word	0xe000061c
e0000578:	e000061c 	.word	0xe000061c
e000057c:	e000061c 	.word	0xe000061c
e0000580:	e000061c 	.word	0xe000061c
e0000584:	e000061c 	.word	0xe000061c
e0000588:	e00005f8 	.word	0xe00005f8
e000058c:	e000061c 	.word	0xe000061c
e0000590:	e000061c 	.word	0xe000061c
e0000594:	e000061c 	.word	0xe000061c
e0000598:	e000061c 	.word	0xe000061c
e000059c:	e000061c 	.word	0xe000061c
e00005a0:	e000061c 	.word	0xe000061c
e00005a4:	e000061c 	.word	0xe000061c
e00005a8:	e000061c 	.word	0xe000061c
e00005ac:	e000061c 	.word	0xe000061c
e00005b0:	e000061c 	.word	0xe000061c
e00005b4:	e000061c 	.word	0xe000061c
e00005b8:	e000061c 	.word	0xe000061c
e00005bc:	e000061c 	.word	0xe000061c
e00005c0:	e000061c 	.word	0xe000061c
e00005c4:	e000061c 	.word	0xe000061c
e00005c8:	e00006ac 	.word	0xe00006ac
e00005cc:	e3c3100f 	bic	r1, r3, #15
e00005d0:	ea000036 	b	e00006b0 <write_it_asid_pool+0x214>
e00005d4:	e3c1100f 	bic	r1, r1, #15
e00005d8:	ea000034 	b	e00006b0 <write_it_asid_pool+0x214>
e00005dc:	e3c3100f 	bic	r1, r3, #15
e00005e0:	ea000032 	b	e00006b0 <write_it_asid_pool+0x214>
e00005e4:	e3c3101f 	bic	r1, r3, #31
e00005e8:	ea000030 	b	e00006b0 <write_it_asid_pool+0x214>
e00005ec:	e3c31f7f 	bic	r1, r3, #508	; 0x1fc
e00005f0:	e3c11003 	bic	r1, r1, #3
e00005f4:	ea00002d 	b	e00006b0 <write_it_asid_pool+0x214>
e00005f8:	e1a03423 	lsr	r3, r3, #8
e00005fc:	e203203f 	and	r2, r3, #63	; 0x3f
e0000600:	e3520020 	cmp	r2, #32
e0000604:	1203301f 	andne	r3, r3, #31
e0000608:	03a03004 	moveq	r3, #4
e000060c:	e2833001 	add	r3, r3, #1
e0000610:	e3e02000 	mvn	r2, #0
e0000614:	e0011312 	and	r1, r1, r2, lsl r3
e0000618:	ea000024 	b	e00006b0 <write_it_asid_pool+0x214>
e000061c:	e2402001 	sub	r2, r0, #1
e0000620:	e3520008 	cmp	r2, #8
e0000624:	979ff102 	ldrls	pc, [pc, r2, lsl #2]
e0000628:	ea000067 	b	e00007cc <write_it_asid_pool+0x330>
e000062c:	e0000650 	.word	0xe0000650
e0000630:	e00007cc 	.word	0xe00007cc
e0000634:	e0000650 	.word	0xe0000650
e0000638:	e00007cc 	.word	0xe00007cc
e000063c:	e00006a4 	.word	0xe00006a4
e0000640:	e00007cc 	.word	0xe00007cc
e0000644:	e000068c 	.word	0xe000068c
e0000648:	e00007cc 	.word	0xe00007cc
e000064c:	e0000698 	.word	0xe0000698
e0000650:	e3500001 	cmp	r0, #1
e0000654:	0a000003 	beq	e0000668 <write_it_asid_pool+0x1cc>
e0000658:	e3500003 	cmp	r0, #3
e000065c:	0a000006 	beq	e000067c <write_it_asid_pool+0x1e0>
e0000660:	e3a03000 	mov	r3, #0
e0000664:	ea000002 	b	e0000674 <write_it_asid_pool+0x1d8>
e0000668:	e1a03403 	lsl	r3, r3, #8
e000066c:	e3c33eff 	bic	r3, r3, #4080	; 0xff0
e0000670:	e3c3300f 	bic	r3, r3, #15
e0000674:	e1a01003 	mov	r1, r3
e0000678:	ea00000c 	b	e00006b0 <write_it_asid_pool+0x214>
e000067c:	e1a03503 	lsl	r3, r3, #10
e0000680:	e3c33dff 	bic	r3, r3, #16320	; 0x3fc0
e0000684:	e3c3303f 	bic	r3, r3, #63	; 0x3f
e0000688:	eafffff9 	b	e0000674 <write_it_asid_pool+0x1d8>
e000068c:	e3c31fff 	bic	r1, r3, #1020	; 0x3fc
e0000690:	e3c11003 	bic	r1, r1, #3
e0000694:	ea000005 	b	e00006b0 <write_it_asid_pool+0x214>
e0000698:	e3c31dff 	bic	r1, r3, #16320	; 0x3fc0
e000069c:	e3c1103f 	bic	r1, r1, #63	; 0x3f
e00006a0:	ea000002 	b	e00006b0 <write_it_asid_pool+0x214>
e00006a4:	e3c3100f 	bic	r1, r3, #15
e00006a8:	ea000000 	b	e00006b0 <write_it_asid_pool+0x214>
e00006ac:	e3a01000 	mov	r1, #0
e00006b0:	e59d3000 	ldr	r3, [sp]
e00006b4:	e59dc004 	ldr	ip, [sp, #4]
e00006b8:	e203200e 	and	r2, r3, #14
e00006bc:	e352000e 	cmp	r2, #14
e00006c0:	1203000f 	andne	r0, r3, #15
e00006c4:	06ef0073 	uxtbeq	r0, r3
e00006c8:	e2402002 	sub	r2, r0, #2
e00006cc:	e352003c 	cmp	r2, #60	; 0x3c
e00006d0:	979ff102 	ldrls	pc, [pc, r2, lsl #2]
e00006d4:	ea000052 	b	e0000824 <write_it_asid_pool+0x388>
e00006d8:	e00007d4 	.word	0xe00007d4
e00006dc:	e0000824 	.word	0xe0000824
e00006e0:	e00007dc 	.word	0xe00007dc
e00006e4:	e0000824 	.word	0xe0000824
e00006e8:	e00007e4 	.word	0xe00007e4
e00006ec:	e0000824 	.word	0xe0000824
e00006f0:	e00008b0 	.word	0xe00008b0
e00006f4:	e0000824 	.word	0xe0000824
e00006f8:	e00007ec 	.word	0xe00007ec
e00006fc:	e0000824 	.word	0xe0000824
e0000700:	e00007f4 	.word	0xe00007f4
e0000704:	e0000824 	.word	0xe0000824
e0000708:	e00008b0 	.word	0xe00008b0
e000070c:	e0000824 	.word	0xe0000824
e0000710:	e0000824 	.word	0xe0000824
e0000714:	e0000824 	.word	0xe0000824
e0000718:	e0000824 	.word	0xe0000824
e000071c:	e0000824 	.word	0xe0000824
e0000720:	e0000824 	.word	0xe0000824
e0000724:	e0000824 	.word	0xe0000824
e0000728:	e0000824 	.word	0xe0000824
e000072c:	e0000824 	.word	0xe0000824
e0000730:	e0000824 	.word	0xe0000824
e0000734:	e0000824 	.word	0xe0000824
e0000738:	e0000824 	.word	0xe0000824
e000073c:	e0000824 	.word	0xe0000824
e0000740:	e0000824 	.word	0xe0000824
e0000744:	e0000824 	.word	0xe0000824
e0000748:	e00008b0 	.word	0xe00008b0
e000074c:	e0000824 	.word	0xe0000824
e0000750:	e0000824 	.word	0xe0000824
e0000754:	e0000824 	.word	0xe0000824
e0000758:	e0000824 	.word	0xe0000824
e000075c:	e0000824 	.word	0xe0000824
e0000760:	e0000824 	.word	0xe0000824
e0000764:	e0000824 	.word	0xe0000824
e0000768:	e0000824 	.word	0xe0000824
e000076c:	e0000824 	.word	0xe0000824
e0000770:	e0000824 	.word	0xe0000824
e0000774:	e0000824 	.word	0xe0000824
e0000778:	e0000824 	.word	0xe0000824
e000077c:	e0000824 	.word	0xe0000824
e0000780:	e0000824 	.word	0xe0000824
e0000784:	e0000824 	.word	0xe0000824
e0000788:	e0000800 	.word	0xe0000800
e000078c:	e0000824 	.word	0xe0000824
e0000790:	e0000824 	.word	0xe0000824
e0000794:	e0000824 	.word	0xe0000824
e0000798:	e0000824 	.word	0xe0000824
e000079c:	e0000824 	.word	0xe0000824
e00007a0:	e0000824 	.word	0xe0000824
e00007a4:	e0000824 	.word	0xe0000824
e00007a8:	e0000824 	.word	0xe0000824
e00007ac:	e0000824 	.word	0xe0000824
e00007b0:	e0000824 	.word	0xe0000824
e00007b4:	e0000824 	.word	0xe0000824
e00007b8:	e0000824 	.word	0xe0000824
e00007bc:	e0000824 	.word	0xe0000824
e00007c0:	e0000824 	.word	0xe0000824
e00007c4:	e0000824 	.word	0xe0000824
e00007c8:	e00008b0 	.word	0xe00008b0
e00007cc:	e3a01000 	mov	r1, #0
e00007d0:	eaffffb6 	b	e00006b0 <write_it_asid_pool+0x214>
e00007d4:	e3c3300f 	bic	r3, r3, #15
e00007d8:	ea000035 	b	e00008b4 <write_it_asid_pool+0x418>
e00007dc:	e3cc300f 	bic	r3, ip, #15
e00007e0:	ea000033 	b	e00008b4 <write_it_asid_pool+0x418>
e00007e4:	e3c3300f 	bic	r3, r3, #15
e00007e8:	ea000031 	b	e00008b4 <write_it_asid_pool+0x418>
e00007ec:	e3c3301f 	bic	r3, r3, #31
e00007f0:	ea00002f 	b	e00008b4 <write_it_asid_pool+0x418>
e00007f4:	e3c33f7f 	bic	r3, r3, #508	; 0x1fc
e00007f8:	e3c33003 	bic	r3, r3, #3
e00007fc:	ea00002c 	b	e00008b4 <write_it_asid_pool+0x418>
e0000800:	e1a02423 	lsr	r2, r3, #8
e0000804:	e202303f 	and	r3, r2, #63	; 0x3f
e0000808:	e3530020 	cmp	r3, #32
e000080c:	1202301f 	andne	r3, r2, #31
e0000810:	03a03004 	moveq	r3, #4
e0000814:	e2832001 	add	r2, r3, #1
e0000818:	e3e03000 	mvn	r3, #0
e000081c:	e00c3213 	and	r3, ip, r3, lsl r2
e0000820:	ea000023 	b	e00008b4 <write_it_asid_pool+0x418>
e0000824:	e2402001 	sub	r2, r0, #1
e0000828:	e3520008 	cmp	r2, #8
e000082c:	979ff102 	ldrls	pc, [pc, r2, lsl #2]
e0000830:	ea000025 	b	e00008cc <write_it_asid_pool+0x430>
e0000834:	e0000858 	.word	0xe0000858
e0000838:	e00008cc 	.word	0xe00008cc
e000083c:	e0000858 	.word	0xe0000858
e0000840:	e00008cc 	.word	0xe00008cc
e0000844:	e00008a8 	.word	0xe00008a8
e0000848:	e00008cc 	.word	0xe00008cc
e000084c:	e0000890 	.word	0xe0000890
e0000850:	e00008cc 	.word	0xe00008cc
e0000854:	e000089c 	.word	0xe000089c
e0000858:	e3500001 	cmp	r0, #1
e000085c:	0a000003 	beq	e0000870 <write_it_asid_pool+0x3d4>
e0000860:	e3500003 	cmp	r0, #3
e0000864:	0a000005 	beq	e0000880 <write_it_asid_pool+0x3e4>
e0000868:	e3a03000 	mov	r3, #0
e000086c:	ea000010 	b	e00008b4 <write_it_asid_pool+0x418>
e0000870:	e1a03403 	lsl	r3, r3, #8
e0000874:	e3c33eff 	bic	r3, r3, #4080	; 0xff0
e0000878:	e3c3300f 	bic	r3, r3, #15
e000087c:	ea00000c 	b	e00008b4 <write_it_asid_pool+0x418>
e0000880:	e1a03503 	lsl	r3, r3, #10
e0000884:	e3c33dff 	bic	r3, r3, #16320	; 0x3fc0
e0000888:	e3c3303f 	bic	r3, r3, #63	; 0x3f
e000088c:	ea000008 	b	e00008b4 <write_it_asid_pool+0x418>
e0000890:	e3c33fff 	bic	r3, r3, #1020	; 0x3fc
e0000894:	e3c33003 	bic	r3, r3, #3
e0000898:	ea000005 	b	e00008b4 <write_it_asid_pool+0x418>
e000089c:	e3c33dff 	bic	r3, r3, #16320	; 0x3fc0
e00008a0:	e3c3303f 	bic	r3, r3, #63	; 0x3f
e00008a4:	ea000002 	b	e00008b4 <write_it_asid_pool+0x418>
e00008a8:	e3c3300f 	bic	r3, r3, #15
e00008ac:	ea000000 	b	e00008b4 <write_it_asid_pool+0x418>
e00008b0:	e3a03000 	mov	r3, #0
e00008b4:	e5813004 	str	r3, [r1, #4]
e00008b8:	e30932d8 	movw	r3, #37592	; 0x92d8
e00008bc:	e34e3002 	movt	r3, #57346	; 0xe002
e00008c0:	e5831000 	str	r1, [r3]
e00008c4:	e28dd010 	add	sp, sp, #16
e00008c8:	e12fff1e 	bx	lr
e00008cc:	e3a03000 	mov	r3, #0
e00008d0:	eafffff7 	b	e00008b4 <write_it_asid_pool+0x418>

e00008d4 <fpsimd_HWCapTest>:
e00008d4:	ee113f50 	mrc	15, 0, r3, cr1, cr0, {2}
e00008d8:	e383360f 	orr	r3, r3, #15728640	; 0xf00000
e00008dc:	ee013f50 	mcr	15, 0, r3, cr1, cr0, {2}
e00008e0:	f57ff06f 	isb	sy
e00008e4:	eef00a10 	.word	0xeef00a10
e00008e8:	e1a03000 	mov	r3, r0
e00008ec:	e3130502 	tst	r3, #8388608	; 0x800000
e00008f0:	1a000005 	bne	e000090c <fpsimd_HWCapTest+0x38>
e00008f4:	eef83a10 	vmrs	r3, fpexc
e00008f8:	e3833102 	orr	r3, r3, #-2147483648	; 0x80000000
e00008fc:	eee83a10 	vmsr	fpexc, r3
e0000900:	eef83a10 	vmrs	r3, fpexc
e0000904:	e3a00001 	mov	r0, #1
e0000908:	e12fff1e 	bx	lr
e000090c:	e3a00000 	mov	r0, #0
e0000910:	e12fff1e 	bx	lr

e0000914 <get_num_avail_p_regs>:
e0000914:	e3a00001 	mov	r0, #1
e0000918:	e12fff1e 	bx	lr

e000091c <get_num_dev_p_regs>:
e000091c:	e3a00007 	mov	r0, #7
e0000920:	e12fff1e 	bx	lr

e0000924 <get_dev_p_reg>:
e0000924:	e1a02000 	mov	r2, r0
e0000928:	e3033cd8 	movw	r3, #15576	; 0x3cd8
e000092c:	e34e3000 	movt	r3, #57344	; 0xe000
e0000930:	e0831181 	add	r1, r3, r1, lsl #3
e0000934:	e8910003 	ldm	r1, {r0, r1}
e0000938:	e8820003 	stm	r2, {r0, r1}
e000093c:	e1a00002 	mov	r0, r2
e0000940:	e12fff1e 	bx	lr

e0000944 <get_avail_p_reg>:
e0000944:	e1a02000 	mov	r2, r0
e0000948:	e3033cd8 	movw	r3, #15576	; 0x3cd8
e000094c:	e34e3000 	movt	r3, #57344	; 0xe000
e0000950:	e0831181 	add	r1, r3, r1, lsl #3
e0000954:	e2811038 	add	r1, r1, #56	; 0x38
e0000958:	e8910003 	ldm	r1, {r0, r1}
e000095c:	e8820003 	stm	r2, {r0, r1}
e0000960:	e1a00002 	mov	r0, r2
e0000964:	e12fff1e 	bx	lr

e0000968 <map_kernel_devices>:
e0000968:	e92d4010 	push	{r4, lr}
e000096c:	e3a04004 	mov	r4, #4
e0000970:	e1a03004 	mov	r3, r4
e0000974:	e3a02001 	mov	r2, #1
e0000978:	e3a01000 	mov	r1, #0
e000097c:	e34f1ff0 	movt	r1, #65520	; 0xfff0
e0000980:	e3a0060a 	mov	r0, #10485760	; 0xa00000
e0000984:	ebfffe45 	bl	e00002a0 <map_kernel_frame>
e0000988:	e1a03004 	mov	r3, r4
e000098c:	e3a02001 	mov	r2, #1
e0000990:	e3a01a01 	mov	r1, #4096	; 0x1000
e0000994:	e34f1ff0 	movt	r1, #65520	; 0xfff0
e0000998:	e3a00a01 	mov	r0, #4096	; 0x1000
e000099c:	e34000a0 	movt	r0, #160	; 0xa0
e00009a0:	ebfffe3e 	bl	e00002a0 <map_kernel_frame>
e00009a4:	e1a03004 	mov	r3, r4
e00009a8:	e3a02001 	mov	r2, #1
e00009ac:	e3a01a02 	mov	r1, #8192	; 0x2000
e00009b0:	e34f1ff0 	movt	r1, #65520	; 0xfff0
e00009b4:	e3a00a02 	mov	r0, #8192	; 0x2000
e00009b8:	e34000a0 	movt	r0, #160	; 0xa0
e00009bc:	ebfffe37 	bl	e00002a0 <map_kernel_frame>
e00009c0:	e8bd8010 	pop	{r4, pc}

e00009c4 <activate_global_pd>:
e00009c4:	e92d4010 	push	{r4, lr}
e00009c8:	eb00484e 	bl	e0012b08 <cleanInvalidateL1Caches>
e00009cc:	f57ff04f 	dsb	sy
e00009d0:	e59f3034 	ldr	r3, [pc, #52]	; e0000a0c <activate_global_pd+0x48>
e00009d4:	e3833018 	orr	r3, r3, #24
e00009d8:	ee023f10 	mcr	15, 0, r3, cr2, cr0, {0}
e00009dc:	f57ff06f 	isb	sy
e00009e0:	f57ff04f 	dsb	sy
e00009e4:	e3a03000 	mov	r3, #0
e00009e8:	ee083f17 	mcr	15, 0, r3, cr8, cr7, {0}
e00009ec:	f57ff04f 	dsb	sy
e00009f0:	f57ff06f 	isb	sy
e00009f4:	e3a0020e 	mov	r0, #-536870912	; 0xe0000000
e00009f8:	eb0045e4 	bl	e0012190 <lockTLBEntry>
e00009fc:	e3a00000 	mov	r0, #0
e0000a00:	e34f0fff 	movt	r0, #65535	; 0xffff
e0000a04:	eb0045e1 	bl	e0012190 <lockTLBEntry>
e0000a08:	e8bd8010 	pop	{r4, pc}
e0000a0c:	10024000 	.word	0x10024000

e0000a10 <arm_errata>:
e0000a10:	e12fff1e 	bx	lr

e0000a14 <initIRQController>:
e0000a14:	e92d4010 	push	{r4, lr}
e0000a18:	ebfffd8e 	bl	e0000058 <dist_init>
e0000a1c:	e8bd8010 	pop	{r4, pc}

e0000a20 <cpu_initLocalIRQController>:
e0000a20:	e92d4010 	push	{r4, lr}
e0000a24:	ebfffdf2 	bl	e00001f4 <cpu_iface_init>
e0000a28:	e8bd8010 	pop	{r4, pc}

e0000a2c <initL2Cache>:
e0000a2c:	e30230ff 	movw	r3, #8447	; 0x20ff
e0000a30:	e34f3ff0 	movt	r3, #65520	; 0xfff0
e0000a34:	e5932001 	ldr	r2, [r3, #1]
e0000a38:	e3c22001 	bic	r2, r2, #1
e0000a3c:	e5832001 	str	r2, [r3, #1]
e0000a40:	e3a02000 	mov	r2, #0
e0000a44:	e3432c07 	movt	r2, #15367	; 0x3c07
e0000a48:	e5832005 	str	r2, [r3, #5]
e0000a4c:	e3002121 	movw	r2, #289	; 0x121
e0000a50:	e5832009 	str	r2, [r3, #9]
e0000a54:	e583200d 	str	r2, [r3, #13]
e0000a58:	e3a02203 	mov	r2, #805306368	; 0x30000000
e0000a5c:	e5832e61 	str	r2, [r3, #3681]	; 0xe61
e0000a60:	e30f2fff 	movw	r2, #65535	; 0xffff
e0000a64:	e583267d 	str	r2, [r3, #1661]	; 0x67d
e0000a68:	e30220ff 	movw	r2, #8447	; 0x20ff
e0000a6c:	e34f2ff0 	movt	r2, #65520	; 0xfff0
e0000a70:	e592367d 	ldr	r3, [r2, #1661]	; 0x67d
e0000a74:	e6ff3073 	uxth	r3, r3
e0000a78:	e3530000 	cmp	r3, #0
e0000a7c:	1afffffb 	bne	e0000a70 <initL2Cache+0x44>
e0000a80:	e30230ff 	movw	r3, #8447	; 0x20ff
e0000a84:	e34f3ff0 	movt	r3, #65520	; 0xfff0
e0000a88:	e51330fb 	ldr	r3, [r3, #-251]	; 0xffffff05
e0000a8c:	e203341e 	and	r3, r3, #503316480	; 0x1e000000
e0000a90:	e3530307 	cmp	r3, #469762048	; 0x1c000000
e0000a94:	0a000012 	beq	e0000ae4 <initL2Cache+0xb8>
e0000a98:	e30230ff 	movw	r3, #8447	; 0x20ff
e0000a9c:	e34f3ff0 	movt	r3, #65520	; 0xfff0
e0000aa0:	e51330fb 	ldr	r3, [r3, #-251]	; 0xffffff05
e0000aa4:	e203341e 	and	r3, r3, #503316480	; 0x1e000000
e0000aa8:	e353041e 	cmp	r3, #503316480	; 0x1e000000
e0000aac:	030230ff 	movweq	r3, #8447	; 0x20ff
e0000ab0:	034f3ff0 	movteq	r3, #65520	; 0xfff0
e0000ab4:	03a02000 	moveq	r2, #0
e0000ab8:	05832851 	streq	r2, [r3, #2129]	; 0x851
e0000abc:	e30230ff 	movw	r3, #8447	; 0x20ff
e0000ac0:	e34f3ff0 	movt	r3, #65520	; 0xfff0
e0000ac4:	e3a02000 	mov	r2, #0
e0000ac8:	e5832115 	str	r2, [r3, #277]	; 0x115
e0000acc:	e30021ff 	movw	r2, #511	; 0x1ff
e0000ad0:	e5832121 	str	r2, [r3, #289]	; 0x121
e0000ad4:	e5932001 	ldr	r2, [r3, #1]
e0000ad8:	e3822001 	orr	r2, r2, #1
e0000adc:	e5832001 	str	r2, [r3, #1]
e0000ae0:	e12fff1e 	bx	lr
e0000ae4:	e30230ff 	movw	r3, #8447	; 0x20ff
e0000ae8:	e34f3ff0 	movt	r3, #65520	; 0xfff0
e0000aec:	e3a02000 	mov	r2, #0
e0000af0:	e5832801 	str	r2, [r3, #2049]	; 0x801
e0000af4:	e5832805 	str	r2, [r3, #2053]	; 0x805
e0000af8:	e5832809 	str	r2, [r3, #2057]	; 0x809
e0000afc:	e583280d 	str	r2, [r3, #2061]	; 0x80d
e0000b00:	e5832811 	str	r2, [r3, #2065]	; 0x811
e0000b04:	e5832815 	str	r2, [r3, #2069]	; 0x815
e0000b08:	e5832819 	str	r2, [r3, #2073]	; 0x819
e0000b0c:	e583281d 	str	r2, [r3, #2077]	; 0x81d
e0000b10:	e5832821 	str	r2, [r3, #2081]	; 0x821
e0000b14:	e5832825 	str	r2, [r3, #2085]	; 0x825
e0000b18:	e5832829 	str	r2, [r3, #2089]	; 0x829
e0000b1c:	e583282d 	str	r2, [r3, #2093]	; 0x82d
e0000b20:	e5832831 	str	r2, [r3, #2097]	; 0x831
e0000b24:	e5832835 	str	r2, [r3, #2101]	; 0x835
e0000b28:	e5832839 	str	r2, [r3, #2105]	; 0x839
e0000b2c:	e583283d 	str	r2, [r3, #2109]	; 0x83d
e0000b30:	eaffffd8 	b	e0000a98 <initL2Cache+0x6c>

e0000b34 <initTimer>:
e0000b34:	e30036ff 	movw	r3, #1791	; 0x6ff
e0000b38:	e34f3ff0 	movt	r3, #65520	; 0xfff0
e0000b3c:	e3a02000 	mov	r2, #0
e0000b40:	e50320f7 	str	r2, [r3, #-247]	; 0xffffff09
e0000b44:	e50320f3 	str	r2, [r3, #-243]	; 0xffffff0d
e0000b48:	e3a02c35 	mov	r2, #13568	; 0x3500
e0000b4c:	e340200c 	movt	r2, #12
e0000b50:	e50320ff 	str	r2, [r3, #-255]	; 0xffffff01
e0000b54:	e51320f7 	ldr	r2, [r3, #-247]	; 0xffffff09
e0000b58:	e3822006 	orr	r2, r2, #6
e0000b5c:	e50320f7 	str	r2, [r3, #-247]	; 0xffffff09
e0000b60:	e51320f7 	ldr	r2, [r3, #-247]	; 0xffffff09
e0000b64:	e3822001 	orr	r2, r2, #1
e0000b68:	e50320f7 	str	r2, [r3, #-247]	; 0xffffff09
e0000b6c:	e12fff1e 	bx	lr

e0000b70 <insert_region>:
e0000b70:	e24dd008 	sub	sp, sp, #8
e0000b74:	e28d3008 	add	r3, sp, #8
e0000b78:	e9030003 	stmdb	r3, {r0, r1}
e0000b7c:	e59d2000 	ldr	r2, [sp]
e0000b80:	e59d3004 	ldr	r3, [sp, #4]
e0000b84:	e1520003 	cmp	r2, r3
e0000b88:	03a00001 	moveq	r0, #1
e0000b8c:	0a00000d 	beq	e0000bc8 <insert_region+0x58>
e0000b90:	e3033d18 	movw	r3, #15640	; 0x3d18
e0000b94:	e34e3000 	movt	r3, #57344	; 0xe000
e0000b98:	e5932000 	ldr	r2, [r3]
e0000b9c:	e5933004 	ldr	r3, [r3, #4]
e0000ba0:	e1520003 	cmp	r2, r3
e0000ba4:	0a000009 	beq	e0000bd0 <insert_region+0x60>
e0000ba8:	e3033d18 	movw	r3, #15640	; 0x3d18
e0000bac:	e34e3000 	movt	r3, #57344	; 0xe000
e0000bb0:	e5932008 	ldr	r2, [r3, #8]
e0000bb4:	e593300c 	ldr	r3, [r3, #12]
e0000bb8:	e1520003 	cmp	r2, r3
e0000bbc:	03a02001 	moveq	r2, #1
e0000bc0:	0a000003 	beq	e0000bd4 <insert_region+0x64>
e0000bc4:	e3a00000 	mov	r0, #0
e0000bc8:	e28dd008 	add	sp, sp, #8
e0000bcc:	e12fff1e 	bx	lr
e0000bd0:	e3a02000 	mov	r2, #0
e0000bd4:	e3033d18 	movw	r3, #15640	; 0x3d18
e0000bd8:	e34e3000 	movt	r3, #57344	; 0xe000
e0000bdc:	e0833182 	add	r3, r3, r2, lsl #3
e0000be0:	e28d2008 	add	r2, sp, #8
e0000be4:	e9120003 	ldmdb	r2, {r0, r1}
e0000be8:	e8830003 	stm	r3, {r0, r1}
e0000bec:	e3a00001 	mov	r0, #1
e0000bf0:	eafffff4 	b	e0000bc8 <insert_region+0x58>

e0000bf4 <alloc_region>:
e0000bf4:	e92d4ff0 	push	{r4, r5, r6, r7, r8, r9, sl, fp, lr}
e0000bf8:	e24dd02c 	sub	sp, sp, #44	; 0x2c
e0000bfc:	e3a07001 	mov	r7, #1
e0000c00:	e1a07017 	lsl	r7, r7, r0
e0000c04:	e3a0e000 	mov	lr, #0
e0000c08:	e58de008 	str	lr, [sp, #8]
e0000c0c:	e58de004 	str	lr, [sp, #4]
e0000c10:	e58de000 	str	lr, [sp]
e0000c14:	e1a0b00e 	mov	fp, lr
e0000c18:	e1a0500e 	mov	r5, lr
e0000c1c:	e1a0a00e 	mov	sl, lr
e0000c20:	e1a0100e 	mov	r1, lr
e0000c24:	e3036d18 	movw	r6, #15640	; 0x3d18
e0000c28:	e34e6000 	movt	r6, #57344	; 0xe000
e0000c2c:	e796c181 	ldr	ip, [r6, r1, lsl #3]
e0000c30:	e24c3001 	sub	r3, ip, #1
e0000c34:	e1a03033 	lsr	r3, r3, r0
e0000c38:	e2833001 	add	r3, r3, #1
e0000c3c:	e1a03013 	lsl	r3, r3, r0
e0000c40:	e0862181 	add	r2, r6, r1, lsl #3
e0000c44:	e5924004 	ldr	r4, [r2, #4]
e0000c48:	e1a02034 	lsr	r2, r4, r0
e0000c4c:	e1a02012 	lsl	r2, r2, r0
e0000c50:	e043900c 	sub	r9, r3, ip
e0000c54:	e0448002 	sub	r8, r4, r2
e0000c58:	e1590008 	cmp	r9, r8
e0000c5c:	30832007 	addcc	r2, r3, r7
e0000c60:	20423007 	subcs	r3, r2, r7
e0000c64:	e15c0003 	cmp	ip, r3
e0000c68:	91530002 	cmpls	r3, r2
e0000c6c:	33a08001 	movcc	r8, #1
e0000c70:	23a08000 	movcs	r8, #0
e0000c74:	e1540002 	cmp	r4, r2
e0000c78:	33a08000 	movcc	r8, #0
e0000c7c:	22088001 	andcs	r8, r8, #1
e0000c80:	e3580000 	cmp	r8, #0
e0000c84:	1a00001b 	bne	e0000cf8 <alloc_region+0x104>
e0000c88:	e2811001 	add	r1, r1, #1
e0000c8c:	e3510002 	cmp	r1, #2
e0000c90:	1affffe5 	bne	e0000c2c <alloc_region+0x38>
e0000c94:	e155000b 	cmp	r5, fp
e0000c98:	03a05000 	moveq	r5, #0
e0000c9c:	0a000012 	beq	e0000cec <alloc_region+0xf8>
e0000ca0:	e3033d18 	movw	r3, #15640	; 0x3d18
e0000ca4:	e34e3000 	movt	r3, #57344	; 0xe000
e0000ca8:	e3a02000 	mov	r2, #0
e0000cac:	e783218a 	str	r2, [r3, sl, lsl #3]
e0000cb0:	e083318a 	add	r3, r3, sl, lsl #3
e0000cb4:	e5832004 	str	r2, [r3, #4]
e0000cb8:	e59d3008 	ldr	r3, [sp, #8]
e0000cbc:	e58d3018 	str	r3, [sp, #24]
e0000cc0:	e58de01c 	str	lr, [sp, #28]
e0000cc4:	e28d3018 	add	r3, sp, #24
e0000cc8:	e8930003 	ldm	r3, {r0, r1}
e0000ccc:	ebffffa7 	bl	e0000b70 <insert_region>
e0000cd0:	e59d3000 	ldr	r3, [sp]
e0000cd4:	e58d3020 	str	r3, [sp, #32]
e0000cd8:	e59d3004 	ldr	r3, [sp, #4]
e0000cdc:	e58d3024 	str	r3, [sp, #36]	; 0x24
e0000ce0:	e28d3028 	add	r3, sp, #40	; 0x28
e0000ce4:	e9130003 	ldmdb	r3, {r0, r1}
e0000ce8:	ebffffa0 	bl	e0000b70 <insert_region>
e0000cec:	e1a00005 	mov	r0, r5
e0000cf0:	e28dd02c 	add	sp, sp, #44	; 0x2c
e0000cf4:	e8bd8ff0 	pop	{r4, r5, r6, r7, r8, r9, sl, fp, pc}
e0000cf8:	e043800c 	sub	r8, r3, ip
e0000cfc:	e0449002 	sub	r9, r4, r2
e0000d00:	e1580009 	cmp	r8, r9
e0000d04:	258dc010 	strcs	ip, [sp, #16]
e0000d08:	258d400c 	strcs	r4, [sp, #12]
e0000d0c:	21a04003 	movcs	r4, r3
e0000d10:	21a0c002 	movcs	ip, r2
e0000d14:	358d2010 	strcc	r2, [sp, #16]
e0000d18:	358d300c 	strcc	r3, [sp, #12]
e0000d1c:	e155000b 	cmp	r5, fp
e0000d20:	0a000019 	beq	e0000d8c <alloc_region+0x198>
e0000d24:	e59d800c 	ldr	r8, [sp, #12]
e0000d28:	e048800c 	sub	r8, r8, ip
e0000d2c:	e58d8014 	str	r8, [sp, #20]
e0000d30:	e59d9004 	ldr	r9, [sp, #4]
e0000d34:	e59d8000 	ldr	r8, [sp]
e0000d38:	e0499008 	sub	r9, r9, r8
e0000d3c:	e59d8014 	ldr	r8, [sp, #20]
e0000d40:	e1590008 	cmp	r9, r8
e0000d44:	8a00001a 	bhi	e0000db4 <alloc_region+0x1c0>
e0000d48:	1affffce 	bne	e0000c88 <alloc_region+0x94>
e0000d4c:	e59d8008 	ldr	r8, [sp, #8]
e0000d50:	e04e8008 	sub	r8, lr, r8
e0000d54:	e59d9010 	ldr	r9, [sp, #16]
e0000d58:	e0449009 	sub	r9, r4, r9
e0000d5c:	e1580009 	cmp	r8, r9
e0000d60:	9affffc8 	bls	e0000c88 <alloc_region+0x94>
e0000d64:	e1a0e004 	mov	lr, r4
e0000d68:	e59d9010 	ldr	r9, [sp, #16]
e0000d6c:	e58d9008 	str	r9, [sp, #8]
e0000d70:	e59d400c 	ldr	r4, [sp, #12]
e0000d74:	e58d4004 	str	r4, [sp, #4]
e0000d78:	e58dc000 	str	ip, [sp]
e0000d7c:	e1a0b002 	mov	fp, r2
e0000d80:	e1a05003 	mov	r5, r3
e0000d84:	e1a0a001 	mov	sl, r1
e0000d88:	eaffffbe 	b	e0000c88 <alloc_region+0x94>
e0000d8c:	e1a0e004 	mov	lr, r4
e0000d90:	e59d4010 	ldr	r4, [sp, #16]
e0000d94:	e58d4008 	str	r4, [sp, #8]
e0000d98:	e59d400c 	ldr	r4, [sp, #12]
e0000d9c:	e58d4004 	str	r4, [sp, #4]
e0000da0:	e58dc000 	str	ip, [sp]
e0000da4:	e1a0b002 	mov	fp, r2
e0000da8:	e1a05003 	mov	r5, r3
e0000dac:	e1a0a001 	mov	sl, r1
e0000db0:	eaffffb4 	b	e0000c88 <alloc_region+0x94>
e0000db4:	e1a0e004 	mov	lr, r4
e0000db8:	e59d4010 	ldr	r4, [sp, #16]
e0000dbc:	e58d4008 	str	r4, [sp, #8]
e0000dc0:	e59d400c 	ldr	r4, [sp, #12]
e0000dc4:	e58d4004 	str	r4, [sp, #4]
e0000dc8:	e58dc000 	str	ip, [sp]
e0000dcc:	e1a0b002 	mov	fp, r2
e0000dd0:	e1a05003 	mov	r5, r3
e0000dd4:	e1a0a001 	mov	sl, r1
e0000dd8:	eaffffaa 	b	e0000c88 <alloc_region+0x94>

e0000ddc <write_slot>:
e0000ddc:	e24dd008 	sub	sp, sp, #8
e0000de0:	e1a03000 	mov	r3, r0
e0000de4:	e1a0000d 	mov	r0, sp
e0000de8:	e8800006 	stm	r0, {r1, r2}
e0000dec:	e8900003 	ldm	r0, {r0, r1}
e0000df0:	e8830005 	stm	r3, {r0, r2}
e0000df4:	e3a02000 	mov	r2, #0
e0000df8:	e5832008 	str	r2, [r3, #8]
e0000dfc:	e3a02003 	mov	r2, #3
e0000e00:	e583200c 	str	r2, [r3, #12]
e0000e04:	e28dd008 	add	sp, sp, #8
e0000e08:	e12fff1e 	bx	lr

e0000e0c <create_domain_cap>:
e0000e0c:	e24dd008 	sub	sp, sp, #8
e0000e10:	e28d3008 	add	r3, sp, #8
e0000e14:	e9030003 	stmdb	r3, {r0, r1}
e0000e18:	e59d3000 	ldr	r3, [sp]
e0000e1c:	e59d0004 	ldr	r0, [sp, #4]
e0000e20:	e203200e 	and	r2, r3, #14
e0000e24:	e352000e 	cmp	r2, #14
e0000e28:	1203100f 	andne	r1, r3, #15
e0000e2c:	06ef1073 	uxtbeq	r1, r3
e0000e30:	e2412002 	sub	r2, r1, #2
e0000e34:	e352003c 	cmp	r2, #60	; 0x3c
e0000e38:	979ff102 	ldrls	pc, [pc, r2, lsl #2]
e0000e3c:	ea000050 	b	e0000f84 <create_domain_cap+0x178>
e0000e40:	e0000f34 	.word	0xe0000f34
e0000e44:	e0000f84 	.word	0xe0000f84
e0000e48:	e0000f3c 	.word	0xe0000f3c
e0000e4c:	e0000f84 	.word	0xe0000f84
e0000e50:	e0000f44 	.word	0xe0000f44
e0000e54:	e0000f84 	.word	0xe0000f84
e0000e58:	e0001010 	.word	0xe0001010
e0000e5c:	e0000f84 	.word	0xe0000f84
e0000e60:	e0000f4c 	.word	0xe0000f4c
e0000e64:	e0000f84 	.word	0xe0000f84
e0000e68:	e0000f54 	.word	0xe0000f54
e0000e6c:	e0000f84 	.word	0xe0000f84
e0000e70:	e0001010 	.word	0xe0001010
e0000e74:	e0000f84 	.word	0xe0000f84
e0000e78:	e0000f84 	.word	0xe0000f84
e0000e7c:	e0000f84 	.word	0xe0000f84
e0000e80:	e0000f84 	.word	0xe0000f84
e0000e84:	e0000f84 	.word	0xe0000f84
e0000e88:	e0000f84 	.word	0xe0000f84
e0000e8c:	e0000f84 	.word	0xe0000f84
e0000e90:	e0000f84 	.word	0xe0000f84
e0000e94:	e0000f84 	.word	0xe0000f84
e0000e98:	e0000f84 	.word	0xe0000f84
e0000e9c:	e0000f84 	.word	0xe0000f84
e0000ea0:	e0000f84 	.word	0xe0000f84
e0000ea4:	e0000f84 	.word	0xe0000f84
e0000ea8:	e0000f84 	.word	0xe0000f84
e0000eac:	e0000f84 	.word	0xe0000f84
e0000eb0:	e0001010 	.word	0xe0001010
e0000eb4:	e0000f84 	.word	0xe0000f84
e0000eb8:	e0000f84 	.word	0xe0000f84
e0000ebc:	e0000f84 	.word	0xe0000f84
e0000ec0:	e0000f84 	.word	0xe0000f84
e0000ec4:	e0000f84 	.word	0xe0000f84
e0000ec8:	e0000f84 	.word	0xe0000f84
e0000ecc:	e0000f84 	.word	0xe0000f84
e0000ed0:	e0000f84 	.word	0xe0000f84
e0000ed4:	e0000f84 	.word	0xe0000f84
e0000ed8:	e0000f84 	.word	0xe0000f84
e0000edc:	e0000f84 	.word	0xe0000f84
e0000ee0:	e0000f84 	.word	0xe0000f84
e0000ee4:	e0000f84 	.word	0xe0000f84
e0000ee8:	e0000f84 	.word	0xe0000f84
e0000eec:	e0000f84 	.word	0xe0000f84
e0000ef0:	e0000f60 	.word	0xe0000f60
e0000ef4:	e0000f84 	.word	0xe0000f84
e0000ef8:	e0000f84 	.word	0xe0000f84
e0000efc:	e0000f84 	.word	0xe0000f84
e0000f00:	e0000f84 	.word	0xe0000f84
e0000f04:	e0000f84 	.word	0xe0000f84
e0000f08:	e0000f84 	.word	0xe0000f84
e0000f0c:	e0000f84 	.word	0xe0000f84
e0000f10:	e0000f84 	.word	0xe0000f84
e0000f14:	e0000f84 	.word	0xe0000f84
e0000f18:	e0000f84 	.word	0xe0000f84
e0000f1c:	e0000f84 	.word	0xe0000f84
e0000f20:	e0000f84 	.word	0xe0000f84
e0000f24:	e0000f84 	.word	0xe0000f84
e0000f28:	e0000f84 	.word	0xe0000f84
e0000f2c:	e0000f84 	.word	0xe0000f84
e0000f30:	e0001010 	.word	0xe0001010
e0000f34:	e3c3300f 	bic	r3, r3, #15
e0000f38:	ea000035 	b	e0001014 <create_domain_cap+0x208>
e0000f3c:	e3c0300f 	bic	r3, r0, #15
e0000f40:	ea000033 	b	e0001014 <create_domain_cap+0x208>
e0000f44:	e3c3300f 	bic	r3, r3, #15
e0000f48:	ea000031 	b	e0001014 <create_domain_cap+0x208>
e0000f4c:	e3c3301f 	bic	r3, r3, #31
e0000f50:	ea00002f 	b	e0001014 <create_domain_cap+0x208>
e0000f54:	e3c33f7f 	bic	r3, r3, #508	; 0x1fc
e0000f58:	e3c33003 	bic	r3, r3, #3
e0000f5c:	ea00002c 	b	e0001014 <create_domain_cap+0x208>
e0000f60:	e1a03423 	lsr	r3, r3, #8
e0000f64:	e203203f 	and	r2, r3, #63	; 0x3f
e0000f68:	e3520020 	cmp	r2, #32
e0000f6c:	1203301f 	andne	r3, r3, #31
e0000f70:	03a03004 	moveq	r3, #4
e0000f74:	e2832001 	add	r2, r3, #1
e0000f78:	e3e03000 	mvn	r3, #0
e0000f7c:	e0003213 	and	r3, r0, r3, lsl r2
e0000f80:	ea000023 	b	e0001014 <create_domain_cap+0x208>
e0000f84:	e2412001 	sub	r2, r1, #1
e0000f88:	e3520008 	cmp	r2, #8
e0000f8c:	979ff102 	ldrls	pc, [pc, r2, lsl #2]
e0000f90:	ea000028 	b	e0001038 <create_domain_cap+0x22c>
e0000f94:	e0000fb8 	.word	0xe0000fb8
e0000f98:	e0001038 	.word	0xe0001038
e0000f9c:	e0000fb8 	.word	0xe0000fb8
e0000fa0:	e0001038 	.word	0xe0001038
e0000fa4:	e0001008 	.word	0xe0001008
e0000fa8:	e0001038 	.word	0xe0001038
e0000fac:	e0000ff0 	.word	0xe0000ff0
e0000fb0:	e0001038 	.word	0xe0001038
e0000fb4:	e0000ffc 	.word	0xe0000ffc
e0000fb8:	e3510001 	cmp	r1, #1
e0000fbc:	0a000003 	beq	e0000fd0 <create_domain_cap+0x1c4>
e0000fc0:	e3510003 	cmp	r1, #3
e0000fc4:	0a000005 	beq	e0000fe0 <create_domain_cap+0x1d4>
e0000fc8:	e3a03000 	mov	r3, #0
e0000fcc:	ea000010 	b	e0001014 <create_domain_cap+0x208>
e0000fd0:	e1a03403 	lsl	r3, r3, #8
e0000fd4:	e3c33eff 	bic	r3, r3, #4080	; 0xff0
e0000fd8:	e3c3300f 	bic	r3, r3, #15
e0000fdc:	ea00000c 	b	e0001014 <create_domain_cap+0x208>
e0000fe0:	e1a03503 	lsl	r3, r3, #10
e0000fe4:	e3c33dff 	bic	r3, r3, #16320	; 0x3fc0
e0000fe8:	e3c3303f 	bic	r3, r3, #63	; 0x3f
e0000fec:	ea000008 	b	e0001014 <create_domain_cap+0x208>
e0000ff0:	e3c33fff 	bic	r3, r3, #1020	; 0x3fc
e0000ff4:	e3c33003 	bic	r3, r3, #3
e0000ff8:	ea000005 	b	e0001014 <create_domain_cap+0x208>
e0000ffc:	e3c33dff 	bic	r3, r3, #16320	; 0x3fc0
e0001000:	e3c3303f 	bic	r3, r3, #63	; 0x3f
e0001004:	ea000002 	b	e0001014 <create_domain_cap+0x208>
e0001008:	e3c3300f 	bic	r3, r3, #15
e000100c:	ea000000 	b	e0001014 <create_domain_cap+0x208>
e0001010:	e3a03000 	mov	r3, #0
e0001014:	e3a0203e 	mov	r2, #62	; 0x3e
e0001018:	e58320b0 	str	r2, [r3, #176]	; 0xb0
e000101c:	e3a02000 	mov	r2, #0
e0001020:	e58320b4 	str	r2, [r3, #180]	; 0xb4
e0001024:	e58320b8 	str	r2, [r3, #184]	; 0xb8
e0001028:	e3a02003 	mov	r2, #3
e000102c:	e58320bc 	str	r2, [r3, #188]	; 0xbc
e0001030:	e28dd008 	add	sp, sp, #8
e0001034:	e12fff1e 	bx	lr
e0001038:	e3a03000 	mov	r3, #0
e000103c:	eafffff4 	b	e0001014 <create_domain_cap+0x208>

e0001040 <create_bi_frame_cap>:
e0001040:	e52de004 	push	{lr}		; (str lr, [sp, #-4]!)
e0001044:	e24dd02c 	sub	sp, sp, #44	; 0x2c
e0001048:	e28dc018 	add	ip, sp, #24
e000104c:	e88c0003 	stm	ip, {r0, r1}
e0001050:	e28d1010 	add	r1, sp, #16
e0001054:	e881000c 	stm	r1, {r2, r3}
e0001058:	e3a03000 	mov	r3, #0
e000105c:	e58d300c 	str	r3, [sp, #12]
e0001060:	e58d3008 	str	r3, [sp, #8]
e0001064:	e3a03001 	mov	r3, #1
e0001068:	e58d3004 	str	r3, [sp, #4]
e000106c:	e59d3034 	ldr	r3, [sp, #52]	; 0x34
e0001070:	e58d3000 	str	r3, [sp]
e0001074:	e59d3030 	ldr	r3, [sp, #48]	; 0x30
e0001078:	e8910006 	ldm	r1, {r1, r2}
e000107c:	e28d0020 	add	r0, sp, #32
e0001080:	ebfffcb6 	bl	e0000360 <create_mapped_it_frame_cap>
e0001084:	e59d3018 	ldr	r3, [sp, #24]
e0001088:	e59d001c 	ldr	r0, [sp, #28]
e000108c:	e203200e 	and	r2, r3, #14
e0001090:	e352000e 	cmp	r2, #14
e0001094:	1203100f 	andne	r1, r3, #15
e0001098:	06ef1073 	uxtbeq	r1, r3
e000109c:	e2412002 	sub	r2, r1, #2
e00010a0:	e352003c 	cmp	r2, #60	; 0x3c
e00010a4:	979ff102 	ldrls	pc, [pc, r2, lsl #2]
e00010a8:	ea000050 	b	e00011f0 <create_bi_frame_cap+0x1b0>
e00010ac:	e00011a0 	.word	0xe00011a0
e00010b0:	e00011f0 	.word	0xe00011f0
e00010b4:	e00011a8 	.word	0xe00011a8
e00010b8:	e00011f0 	.word	0xe00011f0
e00010bc:	e00011b0 	.word	0xe00011b0
e00010c0:	e00011f0 	.word	0xe00011f0
e00010c4:	e000127c 	.word	0xe000127c
e00010c8:	e00011f0 	.word	0xe00011f0
e00010cc:	e00011b8 	.word	0xe00011b8
e00010d0:	e00011f0 	.word	0xe00011f0
e00010d4:	e00011c0 	.word	0xe00011c0
e00010d8:	e00011f0 	.word	0xe00011f0
e00010dc:	e000127c 	.word	0xe000127c
e00010e0:	e00011f0 	.word	0xe00011f0
e00010e4:	e00011f0 	.word	0xe00011f0
e00010e8:	e00011f0 	.word	0xe00011f0
e00010ec:	e00011f0 	.word	0xe00011f0
e00010f0:	e00011f0 	.word	0xe00011f0
e00010f4:	e00011f0 	.word	0xe00011f0
e00010f8:	e00011f0 	.word	0xe00011f0
e00010fc:	e00011f0 	.word	0xe00011f0
e0001100:	e00011f0 	.word	0xe00011f0
e0001104:	e00011f0 	.word	0xe00011f0
e0001108:	e00011f0 	.word	0xe00011f0
e000110c:	e00011f0 	.word	0xe00011f0
e0001110:	e00011f0 	.word	0xe00011f0
e0001114:	e00011f0 	.word	0xe00011f0
e0001118:	e00011f0 	.word	0xe00011f0
e000111c:	e000127c 	.word	0xe000127c
e0001120:	e00011f0 	.word	0xe00011f0
e0001124:	e00011f0 	.word	0xe00011f0
e0001128:	e00011f0 	.word	0xe00011f0
e000112c:	e00011f0 	.word	0xe00011f0
e0001130:	e00011f0 	.word	0xe00011f0
e0001134:	e00011f0 	.word	0xe00011f0
e0001138:	e00011f0 	.word	0xe00011f0
e000113c:	e00011f0 	.word	0xe00011f0
e0001140:	e00011f0 	.word	0xe00011f0
e0001144:	e00011f0 	.word	0xe00011f0
e0001148:	e00011f0 	.word	0xe00011f0
e000114c:	e00011f0 	.word	0xe00011f0
e0001150:	e00011f0 	.word	0xe00011f0
e0001154:	e00011f0 	.word	0xe00011f0
e0001158:	e00011f0 	.word	0xe00011f0
e000115c:	e00011cc 	.word	0xe00011cc
e0001160:	e00011f0 	.word	0xe00011f0
e0001164:	e00011f0 	.word	0xe00011f0
e0001168:	e00011f0 	.word	0xe00011f0
e000116c:	e00011f0 	.word	0xe00011f0
e0001170:	e00011f0 	.word	0xe00011f0
e0001174:	e00011f0 	.word	0xe00011f0
e0001178:	e00011f0 	.word	0xe00011f0
e000117c:	e00011f0 	.word	0xe00011f0
e0001180:	e00011f0 	.word	0xe00011f0
e0001184:	e00011f0 	.word	0xe00011f0
e0001188:	e00011f0 	.word	0xe00011f0
e000118c:	e00011f0 	.word	0xe00011f0
e0001190:	e00011f0 	.word	0xe00011f0
e0001194:	e00011f0 	.word	0xe00011f0
e0001198:	e00011f0 	.word	0xe00011f0
e000119c:	e000127c 	.word	0xe000127c
e00011a0:	e3c3300f 	bic	r3, r3, #15
e00011a4:	ea000035 	b	e0001280 <create_bi_frame_cap+0x240>
e00011a8:	e3c0300f 	bic	r3, r0, #15
e00011ac:	ea000033 	b	e0001280 <create_bi_frame_cap+0x240>
e00011b0:	e3c3300f 	bic	r3, r3, #15
e00011b4:	ea000031 	b	e0001280 <create_bi_frame_cap+0x240>
e00011b8:	e3c3301f 	bic	r3, r3, #31
e00011bc:	ea00002f 	b	e0001280 <create_bi_frame_cap+0x240>
e00011c0:	e3c33f7f 	bic	r3, r3, #508	; 0x1fc
e00011c4:	e3c33003 	bic	r3, r3, #3
e00011c8:	ea00002c 	b	e0001280 <create_bi_frame_cap+0x240>
e00011cc:	e1a03423 	lsr	r3, r3, #8
e00011d0:	e203203f 	and	r2, r3, #63	; 0x3f
e00011d4:	e3520020 	cmp	r2, #32
e00011d8:	1203301f 	andne	r3, r3, #31
e00011dc:	03a03004 	moveq	r3, #4
e00011e0:	e2833001 	add	r3, r3, #1
e00011e4:	e3e02000 	mvn	r2, #0
e00011e8:	e0003312 	and	r3, r0, r2, lsl r3
e00011ec:	ea000023 	b	e0001280 <create_bi_frame_cap+0x240>
e00011f0:	e2412001 	sub	r2, r1, #1
e00011f4:	e3520008 	cmp	r2, #8
e00011f8:	979ff102 	ldrls	pc, [pc, r2, lsl #2]
e00011fc:	ea000029 	b	e00012a8 <create_bi_frame_cap+0x268>
e0001200:	e0001224 	.word	0xe0001224
e0001204:	e00012a8 	.word	0xe00012a8
e0001208:	e0001224 	.word	0xe0001224
e000120c:	e00012a8 	.word	0xe00012a8
e0001210:	e0001274 	.word	0xe0001274
e0001214:	e00012a8 	.word	0xe00012a8
e0001218:	e000125c 	.word	0xe000125c
e000121c:	e00012a8 	.word	0xe00012a8
e0001220:	e0001268 	.word	0xe0001268
e0001224:	e3510001 	cmp	r1, #1
e0001228:	0a000003 	beq	e000123c <create_bi_frame_cap+0x1fc>
e000122c:	e3510003 	cmp	r1, #3
e0001230:	0a000005 	beq	e000124c <create_bi_frame_cap+0x20c>
e0001234:	e3a03000 	mov	r3, #0
e0001238:	ea000010 	b	e0001280 <create_bi_frame_cap+0x240>
e000123c:	e1a03403 	lsl	r3, r3, #8
e0001240:	e3c33eff 	bic	r3, r3, #4080	; 0xff0
e0001244:	e3c3300f 	bic	r3, r3, #15
e0001248:	ea00000c 	b	e0001280 <create_bi_frame_cap+0x240>
e000124c:	e1a03503 	lsl	r3, r3, #10
e0001250:	e3c33dff 	bic	r3, r3, #16320	; 0x3fc0
e0001254:	e3c3303f 	bic	r3, r3, #63	; 0x3f
e0001258:	ea000008 	b	e0001280 <create_bi_frame_cap+0x240>
e000125c:	e3c33fff 	bic	r3, r3, #1020	; 0x3fc
e0001260:	e3c33003 	bic	r3, r3, #3
e0001264:	ea000005 	b	e0001280 <create_bi_frame_cap+0x240>
e0001268:	e3c33dff 	bic	r3, r3, #16320	; 0x3fc0
e000126c:	e3c3303f 	bic	r3, r3, #63	; 0x3f
e0001270:	ea000002 	b	e0001280 <create_bi_frame_cap+0x240>
e0001274:	e3c3300f 	bic	r3, r3, #15
e0001278:	ea000000 	b	e0001280 <create_bi_frame_cap+0x240>
e000127c:	e3a03000 	mov	r3, #0
e0001280:	e59d2020 	ldr	r2, [sp, #32]
e0001284:	e5832090 	str	r2, [r3, #144]	; 0x90
e0001288:	e59d2024 	ldr	r2, [sp, #36]	; 0x24
e000128c:	e5832094 	str	r2, [r3, #148]	; 0x94
e0001290:	e3a02000 	mov	r2, #0
e0001294:	e5832098 	str	r2, [r3, #152]	; 0x98
e0001298:	e3a02003 	mov	r2, #3
e000129c:	e583209c 	str	r2, [r3, #156]	; 0x9c
e00012a0:	e28dd02c 	add	sp, sp, #44	; 0x2c
e00012a4:	e49df004 	pop	{pc}		; (ldr pc, [sp], #4)
e00012a8:	e3a03000 	mov	r3, #0
e00012ac:	eafffff3 	b	e0001280 <create_bi_frame_cap+0x240>

e00012b0 <provide_cap>:
e00012b0:	e24dd010 	sub	sp, sp, #16
e00012b4:	e28dc010 	add	ip, sp, #16
e00012b8:	e90c0003 	stmdb	ip, {r0, r1}
e00012bc:	e1a0100d 	mov	r1, sp
e00012c0:	e881000c 	stm	r1, {r2, r3}
e00012c4:	e3033d18 	movw	r3, #15640	; 0x3d18
e00012c8:	e34e3000 	movt	r3, #57344	; 0xe000
e00012cc:	e5931014 	ldr	r1, [r3, #20]
e00012d0:	e5933018 	ldr	r3, [r3, #24]
e00012d4:	e1510003 	cmp	r1, r3
e00012d8:	23a00000 	movcs	r0, #0
e00012dc:	3a000001 	bcc	e00012e8 <provide_cap+0x38>
e00012e0:	e28dd010 	add	sp, sp, #16
e00012e4:	e12fff1e 	bx	lr
e00012e8:	e59d3008 	ldr	r3, [sp, #8]
e00012ec:	e59dc00c 	ldr	ip, [sp, #12]
e00012f0:	e203200e 	and	r2, r3, #14
e00012f4:	e352000e 	cmp	r2, #14
e00012f8:	1203000f 	andne	r0, r3, #15
e00012fc:	06ef0073 	uxtbeq	r0, r3
e0001300:	e2402002 	sub	r2, r0, #2
e0001304:	e352003c 	cmp	r2, #60	; 0x3c
e0001308:	979ff102 	ldrls	pc, [pc, r2, lsl #2]
e000130c:	ea000050 	b	e0001454 <provide_cap+0x1a4>
e0001310:	e0001404 	.word	0xe0001404
e0001314:	e0001454 	.word	0xe0001454
e0001318:	e000140c 	.word	0xe000140c
e000131c:	e0001454 	.word	0xe0001454
e0001320:	e0001414 	.word	0xe0001414
e0001324:	e0001454 	.word	0xe0001454
e0001328:	e00014e0 	.word	0xe00014e0
e000132c:	e0001454 	.word	0xe0001454
e0001330:	e000141c 	.word	0xe000141c
e0001334:	e0001454 	.word	0xe0001454
e0001338:	e0001424 	.word	0xe0001424
e000133c:	e0001454 	.word	0xe0001454
e0001340:	e00014e0 	.word	0xe00014e0
e0001344:	e0001454 	.word	0xe0001454
e0001348:	e0001454 	.word	0xe0001454
e000134c:	e0001454 	.word	0xe0001454
e0001350:	e0001454 	.word	0xe0001454
e0001354:	e0001454 	.word	0xe0001454
e0001358:	e0001454 	.word	0xe0001454
e000135c:	e0001454 	.word	0xe0001454
e0001360:	e0001454 	.word	0xe0001454
e0001364:	e0001454 	.word	0xe0001454
e0001368:	e0001454 	.word	0xe0001454
e000136c:	e0001454 	.word	0xe0001454
e0001370:	e0001454 	.word	0xe0001454
e0001374:	e0001454 	.word	0xe0001454
e0001378:	e0001454 	.word	0xe0001454
e000137c:	e0001454 	.word	0xe0001454
e0001380:	e00014e0 	.word	0xe00014e0
e0001384:	e0001454 	.word	0xe0001454
e0001388:	e0001454 	.word	0xe0001454
e000138c:	e0001454 	.word	0xe0001454
e0001390:	e0001454 	.word	0xe0001454
e0001394:	e0001454 	.word	0xe0001454
e0001398:	e0001454 	.word	0xe0001454
e000139c:	e0001454 	.word	0xe0001454
e00013a0:	e0001454 	.word	0xe0001454
e00013a4:	e0001454 	.word	0xe0001454
e00013a8:	e0001454 	.word	0xe0001454
e00013ac:	e0001454 	.word	0xe0001454
e00013b0:	e0001454 	.word	0xe0001454
e00013b4:	e0001454 	.word	0xe0001454
e00013b8:	e0001454 	.word	0xe0001454
e00013bc:	e0001454 	.word	0xe0001454
e00013c0:	e0001430 	.word	0xe0001430
e00013c4:	e0001454 	.word	0xe0001454
e00013c8:	e0001454 	.word	0xe0001454
e00013cc:	e0001454 	.word	0xe0001454
e00013d0:	e0001454 	.word	0xe0001454
e00013d4:	e0001454 	.word	0xe0001454
e00013d8:	e0001454 	.word	0xe0001454
e00013dc:	e0001454 	.word	0xe0001454
e00013e0:	e0001454 	.word	0xe0001454
e00013e4:	e0001454 	.word	0xe0001454
e00013e8:	e0001454 	.word	0xe0001454
e00013ec:	e0001454 	.word	0xe0001454
e00013f0:	e0001454 	.word	0xe0001454
e00013f4:	e0001454 	.word	0xe0001454
e00013f8:	e0001454 	.word	0xe0001454
e00013fc:	e0001454 	.word	0xe0001454
e0001400:	e00014e0 	.word	0xe00014e0
e0001404:	e3c3300f 	bic	r3, r3, #15
e0001408:	ea000035 	b	e00014e4 <provide_cap+0x234>
e000140c:	e3cc300f 	bic	r3, ip, #15
e0001410:	ea000033 	b	e00014e4 <provide_cap+0x234>
e0001414:	e3c3300f 	bic	r3, r3, #15
e0001418:	ea000031 	b	e00014e4 <provide_cap+0x234>
e000141c:	e3c3301f 	bic	r3, r3, #31
e0001420:	ea00002f 	b	e00014e4 <provide_cap+0x234>
e0001424:	e3c33f7f 	bic	r3, r3, #508	; 0x1fc
e0001428:	e3c33003 	bic	r3, r3, #3
e000142c:	ea00002c 	b	e00014e4 <provide_cap+0x234>
e0001430:	e1a02423 	lsr	r2, r3, #8
e0001434:	e202303f 	and	r3, r2, #63	; 0x3f
e0001438:	e3530020 	cmp	r3, #32
e000143c:	1202301f 	andne	r3, r2, #31
e0001440:	03a03004 	moveq	r3, #4
e0001444:	e2832001 	add	r2, r3, #1
e0001448:	e3e03000 	mvn	r3, #0
e000144c:	e00c3213 	and	r3, ip, r3, lsl r2
e0001450:	ea000023 	b	e00014e4 <provide_cap+0x234>
e0001454:	e2402001 	sub	r2, r0, #1
e0001458:	e3520008 	cmp	r2, #8
e000145c:	979ff102 	ldrls	pc, [pc, r2, lsl #2]
e0001460:	ea00002f 	b	e0001524 <provide_cap+0x274>
e0001464:	e0001488 	.word	0xe0001488
e0001468:	e0001524 	.word	0xe0001524
e000146c:	e0001488 	.word	0xe0001488
e0001470:	e0001524 	.word	0xe0001524
e0001474:	e00014d8 	.word	0xe00014d8
e0001478:	e0001524 	.word	0xe0001524
e000147c:	e00014c0 	.word	0xe00014c0
e0001480:	e0001524 	.word	0xe0001524
e0001484:	e00014cc 	.word	0xe00014cc
e0001488:	e3500001 	cmp	r0, #1
e000148c:	0a000003 	beq	e00014a0 <provide_cap+0x1f0>
e0001490:	e3500003 	cmp	r0, #3
e0001494:	0a000005 	beq	e00014b0 <provide_cap+0x200>
e0001498:	e3a03000 	mov	r3, #0
e000149c:	ea000010 	b	e00014e4 <provide_cap+0x234>
e00014a0:	e1a03403 	lsl	r3, r3, #8
e00014a4:	e3c33eff 	bic	r3, r3, #4080	; 0xff0
e00014a8:	e3c3300f 	bic	r3, r3, #15
e00014ac:	ea00000c 	b	e00014e4 <provide_cap+0x234>
e00014b0:	e1a03503 	lsl	r3, r3, #10
e00014b4:	e3c33dff 	bic	r3, r3, #16320	; 0x3fc0
e00014b8:	e3c3303f 	bic	r3, r3, #63	; 0x3f
e00014bc:	ea000008 	b	e00014e4 <provide_cap+0x234>
e00014c0:	e3c33fff 	bic	r3, r3, #1020	; 0x3fc
e00014c4:	e3c33003 	bic	r3, r3, #3
e00014c8:	ea000005 	b	e00014e4 <provide_cap+0x234>
e00014cc:	e3c33dff 	bic	r3, r3, #16320	; 0x3fc0
e00014d0:	e3c3303f 	bic	r3, r3, #63	; 0x3f
e00014d4:	ea000002 	b	e00014e4 <provide_cap+0x234>
e00014d8:	e3c3300f 	bic	r3, r3, #15
e00014dc:	ea000000 	b	e00014e4 <provide_cap+0x234>
e00014e0:	e3a03000 	mov	r3, #0
e00014e4:	e0832201 	add	r2, r3, r1, lsl #4
e00014e8:	e59d0000 	ldr	r0, [sp]
e00014ec:	e7830201 	str	r0, [r3, r1, lsl #4]
e00014f0:	e59d3004 	ldr	r3, [sp, #4]
e00014f4:	e5823004 	str	r3, [r2, #4]
e00014f8:	e3a03000 	mov	r3, #0
e00014fc:	e5823008 	str	r3, [r2, #8]
e0001500:	e3a03003 	mov	r3, #3
e0001504:	e582300c 	str	r3, [r2, #12]
e0001508:	e3033d18 	movw	r3, #15640	; 0x3d18
e000150c:	e34e3000 	movt	r3, #57344	; 0xe000
e0001510:	e5932014 	ldr	r2, [r3, #20]
e0001514:	e2822001 	add	r2, r2, #1
e0001518:	e5832014 	str	r2, [r3, #20]
e000151c:	e3a00001 	mov	r0, #1
e0001520:	eaffff6e 	b	e00012e0 <provide_cap+0x30>
e0001524:	e3a03000 	mov	r3, #0
e0001528:	eaffffed 	b	e00014e4 <provide_cap+0x234>

e000152c <create_frames_of_region>:
e000152c:	e24dd008 	sub	sp, sp, #8
e0001530:	e92d4ff0 	push	{r4, r5, r6, r7, r8, r9, sl, fp, lr}
e0001534:	e24dd02c 	sub	sp, sp, #44	; 0x2c
e0001538:	e1a09000 	mov	r9, r0
e000153c:	e28d0018 	add	r0, sp, #24
e0001540:	e8800006 	stm	r0, {r1, r2}
e0001544:	e58d3054 	str	r3, [sp, #84]	; 0x54
e0001548:	e59d7064 	ldr	r7, [sp, #100]	; 0x64
e000154c:	e59da068 	ldr	sl, [sp, #104]	; 0x68
e0001550:	e59d6060 	ldr	r6, [sp, #96]	; 0x60
e0001554:	e3033d18 	movw	r3, #15640	; 0x3d18
e0001558:	e34e3000 	movt	r3, #57344	; 0xe000
e000155c:	e5933014 	ldr	r3, [r3, #20]
e0001560:	e58d3014 	str	r3, [sp, #20]
e0001564:	e59d405c 	ldr	r4, [sp, #92]	; 0x5c
e0001568:	e1560004 	cmp	r6, r4
e000156c:	9a000025 	bls	e0001608 <create_frames_of_region+0xdc>
e0001570:	e3a0b603 	mov	fp, #3145728	; 0x300000
e0001574:	e28d5020 	add	r5, sp, #32
e0001578:	e3a08001 	mov	r8, #1
e000157c:	ea00000d 	b	e00015b8 <create_frames_of_region+0x8c>
e0001580:	e1a03424 	lsr	r3, r4, #8
e0001584:	e3c3300f 	bic	r3, r3, #15
e0001588:	e3833001 	orr	r3, r3, #1
e000158c:	e58d3020 	str	r3, [sp, #32]
e0001590:	e58db024 	str	fp, [sp, #36]	; 0x24
e0001594:	e895000c 	ldm	r5, {r2, r3}
e0001598:	e28d1018 	add	r1, sp, #24
e000159c:	e8910003 	ldm	r1, {r0, r1}
e00015a0:	ebffff42 	bl	e00012b0 <provide_cap>
e00015a4:	e3500000 	cmp	r0, #0
e00015a8:	0a000011 	beq	e00015f4 <create_frames_of_region+0xc8>
e00015ac:	e2844a01 	add	r4, r4, #4096	; 0x1000
e00015b0:	e1560004 	cmp	r6, r4
e00015b4:	9a000013 	bls	e0001608 <create_frames_of_region+0xdc>
e00015b8:	e3570000 	cmp	r7, #0
e00015bc:	0affffef 	beq	e0001580 <create_frames_of_region+0x54>
e00015c0:	e58d800c 	str	r8, [sp, #12]
e00015c4:	e3a03000 	mov	r3, #0
e00015c8:	e58d3008 	str	r3, [sp, #8]
e00015cc:	e58d8004 	str	r8, [sp, #4]
e00015d0:	e26a3203 	rsb	r3, sl, #805306368	; 0x30000000
e00015d4:	e0833004 	add	r3, r3, r4
e00015d8:	e58d3000 	str	r3, [sp]
e00015dc:	e1a03004 	mov	r3, r4
e00015e0:	e28d2054 	add	r2, sp, #84	; 0x54
e00015e4:	e8920006 	ldm	r2, {r1, r2}
e00015e8:	e1a00005 	mov	r0, r5
e00015ec:	ebfffb5b 	bl	e0000360 <create_mapped_it_frame_cap>
e00015f0:	eaffffe7 	b	e0001594 <create_frames_of_region+0x68>
e00015f4:	e3a03000 	mov	r3, #0
e00015f8:	e5893000 	str	r3, [r9]
e00015fc:	e5893004 	str	r3, [r9, #4]
e0001600:	e5893008 	str	r3, [r9, #8]
e0001604:	ea000007 	b	e0001628 <create_frames_of_region+0xfc>
e0001608:	e3033d18 	movw	r3, #15640	; 0x3d18
e000160c:	e34e3000 	movt	r3, #57344	; 0xe000
e0001610:	e5933014 	ldr	r3, [r3, #20]
e0001614:	e59d2014 	ldr	r2, [sp, #20]
e0001618:	e5892000 	str	r2, [r9]
e000161c:	e5893004 	str	r3, [r9, #4]
e0001620:	e3a03001 	mov	r3, #1
e0001624:	e5893008 	str	r3, [r9, #8]
e0001628:	e1a00009 	mov	r0, r9
e000162c:	e28dd02c 	add	sp, sp, #44	; 0x2c
e0001630:	e8bd4ff0 	pop	{r4, r5, r6, r7, r8, r9, sl, fp, lr}
e0001634:	e28dd008 	add	sp, sp, #8
e0001638:	e12fff1e 	bx	lr

e000163c <init_core_state>:
e000163c:	e309302c 	movw	r3, #36908	; 0x902c
e0001640:	e34e3002 	movt	r3, #57346	; 0xe002
e0001644:	e5830000 	str	r0, [r3]
e0001648:	e3013b34 	movw	r3, #6964	; 0x1b34
e000164c:	e34e3003 	movt	r3, #57347	; 0xe003
e0001650:	e3092020 	movw	r2, #36896	; 0x9020
e0001654:	e34e2002 	movt	r2, #57346	; 0xe002
e0001658:	e5922000 	ldr	r2, [r2]
e000165c:	e5832000 	str	r2, [r3]
e0001660:	e12fff1e 	bx	lr

e0001664 <create_untypeds_for_region>:
e0001664:	e24dd008 	sub	sp, sp, #8
e0001668:	e92d4ff0 	push	{r4, r5, r6, r7, r8, r9, sl, fp, lr}
e000166c:	e24dd024 	sub	sp, sp, #36	; 0x24
e0001670:	e28dc008 	add	ip, sp, #8
e0001674:	e88c0003 	stm	ip, {r0, r1}
e0001678:	e58d304c 	str	r3, [sp, #76]	; 0x4c
e000167c:	e59da054 	ldr	sl, [sp, #84]	; 0x54
e0001680:	e59d6050 	ldr	r6, [sp, #80]	; 0x50
e0001684:	e1560003 	cmp	r6, r3
e0001688:	0a000041 	beq	e0001794 <create_untypeds_for_region+0x130>
e000168c:	e1a0b002 	mov	fp, r2
e0001690:	e1a05003 	mov	r5, r3
e0001694:	e1a03282 	lsl	r3, r2, #5
e0001698:	e2033020 	and	r3, r3, #32
e000169c:	e58d3004 	str	r3, [sp, #4]
e00016a0:	e28d7010 	add	r7, sp, #16
e00016a4:	e1a0800c 	mov	r8, ip
e00016a8:	e3039d18 	movw	r9, #15640	; 0x3d18
e00016ac:	e34e9000 	movt	r9, #57344	; 0xe000
e00016b0:	ea00000a 	b	e00016e0 <create_untypeds_for_region+0x7c>
e00016b4:	e3a0401d 	mov	r4, #29
e00016b8:	e8980003 	ldm	r8, {r0, r1}
e00016bc:	e8870003 	stm	r7, {r0, r1}
e00016c0:	e5993014 	ldr	r3, [r9, #20]
e00016c4:	e043300a 	sub	r3, r3, sl
e00016c8:	e35300e5 	cmp	r3, #229	; 0xe5
e00016cc:	9a000011 	bls	e0001718 <create_untypeds_for_region+0xb4>
e00016d0:	e3a03001 	mov	r3, #1
e00016d4:	e0855413 	add	r5, r5, r3, lsl r4
e00016d8:	e1560005 	cmp	r6, r5
e00016dc:	0a000027 	beq	e0001780 <create_untypeds_for_region+0x11c>
e00016e0:	e0464005 	sub	r4, r6, r5
e00016e4:	e16f4f14 	clz	r4, r4
e00016e8:	e264301f 	rsb	r3, r4, #31
e00016ec:	e3550000 	cmp	r5, #0
e00016f0:	16ff4f35 	rbitne	r4, r5
e00016f4:	116f4f14 	clzne	r4, r4
e00016f8:	01a04003 	moveq	r4, r3
e00016fc:	e1540003 	cmp	r4, r3
e0001700:	21a04003 	movcs	r4, r3
e0001704:	e354001d 	cmp	r4, #29
e0001708:	8affffe9 	bhi	e00016b4 <create_untypeds_for_region+0x50>
e000170c:	e3540003 	cmp	r4, #3
e0001710:	9affffee 	bls	e00016d0 <create_untypeds_for_region+0x6c>
e0001714:	eaffffe7 	b	e00016b8 <create_untypeds_for_region+0x54>
e0001718:	e5992010 	ldr	r2, [r9, #16]
e000171c:	e0823183 	add	r3, r2, r3, lsl #3
e0001720:	e2852203 	add	r2, r5, #805306368	; 0x30000000
e0001724:	e5832054 	str	r2, [r3, #84]	; 0x54
e0001728:	e3a02000 	mov	r2, #0
e000172c:	e5c32058 	strb	r2, [r3, #88]	; 0x58
e0001730:	e5c32059 	strb	r2, [r3, #89]	; 0x59
e0001734:	e5c3405a 	strb	r4, [r3, #90]	; 0x5a
e0001738:	e5c3b05b 	strb	fp, [r3, #91]	; 0x5b
e000173c:	e3c5300f 	bic	r3, r5, #15
e0001740:	e3833002 	orr	r3, r3, #2
e0001744:	e58d3018 	str	r3, [sp, #24]
e0001748:	e2443004 	sub	r3, r4, #4
e000174c:	e204201f 	and	r2, r4, #31
e0001750:	e59d1004 	ldr	r1, [sp, #4]
e0001754:	e1822001 	orr	r2, r2, r1
e0001758:	e3a01040 	mov	r1, #64	; 0x40
e000175c:	e1823311 	orr	r3, r2, r1, lsl r3
e0001760:	e58d301c 	str	r3, [sp, #28]
e0001764:	e28d3020 	add	r3, sp, #32
e0001768:	e913000c 	ldmdb	r3, {r2, r3}
e000176c:	e8970003 	ldm	r7, {r0, r1}
e0001770:	ebfffece 	bl	e00012b0 <provide_cap>
e0001774:	e3500000 	cmp	r0, #0
e0001778:	1affffd4 	bne	e00016d0 <create_untypeds_for_region+0x6c>
e000177c:	ea000000 	b	e0001784 <create_untypeds_for_region+0x120>
e0001780:	e1a00003 	mov	r0, r3
e0001784:	e28dd024 	add	sp, sp, #36	; 0x24
e0001788:	e8bd4ff0 	pop	{r4, r5, r6, r7, r8, r9, sl, fp, lr}
e000178c:	e28dd008 	add	sp, sp, #8
e0001790:	e12fff1e 	bx	lr
e0001794:	e3a00001 	mov	r0, #1
e0001798:	eafffff9 	b	e0001784 <create_untypeds_for_region+0x120>

e000179c <create_kernel_untypeds>:
e000179c:	e92d41f0 	push	{r4, r5, r6, r7, r8, lr}
e00017a0:	e24dd020 	sub	sp, sp, #32
e00017a4:	e28dc010 	add	ip, sp, #16
e00017a8:	e88c0003 	stm	ip, {r0, r1}
e00017ac:	e28d1008 	add	r1, sp, #8
e00017b0:	e881000c 	stm	r1, {r2, r3}
e00017b4:	e59d7038 	ldr	r7, [sp, #56]	; 0x38
e00017b8:	e58d7004 	str	r7, [sp, #4]
e00017bc:	e59d300c 	ldr	r3, [sp, #12]
e00017c0:	e58d3000 	str	r3, [sp]
e00017c4:	e1a03002 	mov	r3, r2
e00017c8:	e3a02000 	mov	r2, #0
e00017cc:	e89c0003 	ldm	ip, {r0, r1}
e00017d0:	ebffffa3 	bl	e0001664 <create_untypeds_for_region>
e00017d4:	e3500000 	cmp	r0, #0
e00017d8:	0a000017 	beq	e000183c <create_kernel_untypeds+0xa0>
e00017dc:	e3a04000 	mov	r4, #0
e00017e0:	e3035d18 	movw	r5, #15640	; 0x3d18
e00017e4:	e34e5000 	movt	r5, #57344	; 0xe000
e00017e8:	e28d8018 	add	r8, sp, #24
e00017ec:	e1a06004 	mov	r6, r4
e00017f0:	e0853004 	add	r3, r5, r4
e00017f4:	e8930003 	ldm	r3, {r0, r1}
e00017f8:	e8880003 	stm	r8, {r0, r1}
e00017fc:	e7846005 	str	r6, [r4, r5]
e0001800:	e5836004 	str	r6, [r3, #4]
e0001804:	e58d7004 	str	r7, [sp, #4]
e0001808:	e59d301c 	ldr	r3, [sp, #28]
e000180c:	e58d3000 	str	r3, [sp]
e0001810:	e59d3018 	ldr	r3, [sp, #24]
e0001814:	e1a02006 	mov	r2, r6
e0001818:	e28d1010 	add	r1, sp, #16
e000181c:	e8910003 	ldm	r1, {r0, r1}
e0001820:	ebffff8f 	bl	e0001664 <create_untypeds_for_region>
e0001824:	e3500000 	cmp	r0, #0
e0001828:	0a000003 	beq	e000183c <create_kernel_untypeds+0xa0>
e000182c:	e2844008 	add	r4, r4, #8
e0001830:	e3540010 	cmp	r4, #16
e0001834:	1affffed 	bne	e00017f0 <create_kernel_untypeds+0x54>
e0001838:	e3a00001 	mov	r0, #1
e000183c:	e28dd020 	add	sp, sp, #32
e0001840:	e8bd81f0 	pop	{r4, r5, r6, r7, r8, pc}

e0001844 <bi_finalise>:
e0001844:	e3033d18 	movw	r3, #15640	; 0x3d18
e0001848:	e34e3000 	movt	r3, #57344	; 0xe000
e000184c:	e5931014 	ldr	r1, [r3, #20]
e0001850:	e5932018 	ldr	r2, [r3, #24]
e0001854:	e5933010 	ldr	r3, [r3, #16]
e0001858:	e5831014 	str	r1, [r3, #20]
e000185c:	e5832018 	str	r2, [r3, #24]
e0001860:	e12fff1e 	bx	lr

e0001864 <configureIdleThread>:
e0001864:	e92d4010 	push	{r4, lr}
e0001868:	e300315f 	movw	r3, #351	; 0x15f
e000186c:	e5803040 	str	r3, [r0, #64]	; 0x40
e0001870:	e30037a0 	movw	r3, #1952	; 0x7a0
e0001874:	e34e3001 	movt	r3, #57345	; 0xe001
e0001878:	e580303c 	str	r3, [r0, #60]	; 0x3c
e000187c:	e3a01007 	mov	r1, #7
e0001880:	eb004d20 	bl	e0014d08 <setThreadState>
e0001884:	e8bd8010 	pop	{r4, pc}

e0001888 <map_kernel_window>:
e0001888:	e92d4010 	push	{r4, lr}
e000188c:	e59fe144 	ldr	lr, [pc, #324]	; e00019d8 <map_kernel_window+0x150>
e0001890:	e3a03c0e 	mov	r3, #3584	; 0xe00
e0001894:	e3a0c201 	mov	ip, #268435456	; 0x10000000
e0001898:	e3054606 	movw	r4, #22022	; 0x5606
e000189c:	e3404004 	movt	r4, #4
e00018a0:	ea000004 	b	e00018b8 <map_kernel_window+0x30>
e00018a4:	e28cc401 	add	ip, ip, #16777216	; 0x1000000
e00018a8:	e28ee040 	add	lr, lr, #64	; 0x40
e00018ac:	e1a03001 	mov	r3, r1
e00018b0:	e35c042f 	cmp	ip, #788529152	; 0x2f000000
e00018b4:	0a000009 	beq	e00018e0 <map_kernel_window+0x58>
e00018b8:	e18c0004 	orr	r0, ip, r4
e00018bc:	e2831010 	add	r1, r3, #16
e00018c0:	e1510003 	cmp	r1, r3
e00018c4:	9afffff6 	bls	e00018a4 <map_kernel_window+0x1c>
e00018c8:	e1a0200e 	mov	r2, lr
e00018cc:	e4820004 	str	r0, [r2], #4
e00018d0:	e2833001 	add	r3, r3, #1
e00018d4:	e1530001 	cmp	r3, r1
e00018d8:	3afffffb 	bcc	e00018cc <map_kernel_window+0x44>
e00018dc:	eafffff0 	b	e00018a4 <map_kernel_window+0x1c>
e00018e0:	e59f30f4 	ldr	r3, [pc, #244]	; e00019dc <map_kernel_window+0x154>
e00018e4:	e3052606 	movw	r2, #22022	; 0x5606
e00018e8:	e3422f00 	movt	r2, #12032	; 0x2f00
e00018ec:	e5832fc0 	str	r2, [r3, #4032]	; 0xfc0
e00018f0:	e3052606 	movw	r2, #22022	; 0x5606
e00018f4:	e3422f10 	movt	r2, #12048	; 0x2f10
e00018f8:	e5832fc4 	str	r2, [r3, #4036]	; 0xfc4
e00018fc:	e3052606 	movw	r2, #22022	; 0x5606
e0001900:	e3422f20 	movt	r2, #12064	; 0x2f20
e0001904:	e5832fc8 	str	r2, [r3, #4040]	; 0xfc8
e0001908:	e3052606 	movw	r2, #22022	; 0x5606
e000190c:	e3422f30 	movt	r2, #12080	; 0x2f30
e0001910:	e5832fcc 	str	r2, [r3, #4044]	; 0xfcc
e0001914:	e3052606 	movw	r2, #22022	; 0x5606
e0001918:	e3422f40 	movt	r2, #12096	; 0x2f40
e000191c:	e5832fd0 	str	r2, [r3, #4048]	; 0xfd0
e0001920:	e3052606 	movw	r2, #22022	; 0x5606
e0001924:	e3422f50 	movt	r2, #12112	; 0x2f50
e0001928:	e5832fd4 	str	r2, [r3, #4052]	; 0xfd4
e000192c:	e3052606 	movw	r2, #22022	; 0x5606
e0001930:	e3422f60 	movt	r2, #12128	; 0x2f60
e0001934:	e5832fd8 	str	r2, [r3, #4056]	; 0xfd8
e0001938:	e3052606 	movw	r2, #22022	; 0x5606
e000193c:	e3422f70 	movt	r2, #12144	; 0x2f70
e0001940:	e5832fdc 	str	r2, [r3, #4060]	; 0xfdc
e0001944:	e3052606 	movw	r2, #22022	; 0x5606
e0001948:	e3422f80 	movt	r2, #12160	; 0x2f80
e000194c:	e5832fe0 	str	r2, [r3, #4064]	; 0xfe0
e0001950:	e3052606 	movw	r2, #22022	; 0x5606
e0001954:	e3422f90 	movt	r2, #12176	; 0x2f90
e0001958:	e5832fe4 	str	r2, [r3, #4068]	; 0xfe4
e000195c:	e3052606 	movw	r2, #22022	; 0x5606
e0001960:	e3422fa0 	movt	r2, #12192	; 0x2fa0
e0001964:	e5832fe8 	str	r2, [r3, #4072]	; 0xfe8
e0001968:	e3052606 	movw	r2, #22022	; 0x5606
e000196c:	e3422fb0 	movt	r2, #12208	; 0x2fb0
e0001970:	e5832fec 	str	r2, [r3, #4076]	; 0xfec
e0001974:	e3052606 	movw	r2, #22022	; 0x5606
e0001978:	e3422fc0 	movt	r2, #12224	; 0x2fc0
e000197c:	e5832ff0 	str	r2, [r3, #4080]	; 0xff0
e0001980:	e3052606 	movw	r2, #22022	; 0x5606
e0001984:	e3422fd0 	movt	r2, #12240	; 0x2fd0
e0001988:	e5832ff4 	str	r2, [r3, #4084]	; 0xff4
e000198c:	e3052606 	movw	r2, #22022	; 0x5606
e0001990:	e3422fe0 	movt	r2, #12256	; 0x2fe0
e0001994:	e5832ff8 	str	r2, [r3, #4088]	; 0xff8
e0001998:	e3000000 	movw	r0, #0
e000199c:	e34e0002 	movt	r0, #57346	; 0xe002
e00019a0:	e2802203 	add	r2, r0, #805306368	; 0x30000000
e00019a4:	e3822c02 	orr	r2, r2, #512	; 0x200
e00019a8:	e3822001 	orr	r2, r2, #1
e00019ac:	e5832ffc 	str	r2, [r3, #4092]	; 0xffc
e00019b0:	e3a01b01 	mov	r1, #1024	; 0x400
e00019b4:	eb005ea0 	bl	e001943c <memzero>
e00019b8:	e3a03003 	mov	r3, #3
e00019bc:	e3a02001 	mov	r2, #1
e00019c0:	e3a01000 	mov	r1, #0
e00019c4:	e34f1fff 	movt	r1, #65535	; 0xffff
e00019c8:	e59f0010 	ldr	r0, [pc, #16]	; e00019e0 <map_kernel_window+0x158>
e00019cc:	ebfffa33 	bl	e00002a0 <map_kernel_frame>
e00019d0:	ebfffbe4 	bl	e0000968 <map_kernel_devices>
e00019d4:	e8bd8010 	pop	{r4, pc}
e00019d8:	e0027800 	.word	0xe0027800
e00019dc:	e0027000 	.word	0xe0027000
e00019e0:	10010000 	.word	0x10010000

e00019e4 <create_it_address_space>:
e00019e4:	e24dd008 	sub	sp, sp, #8
e00019e8:	e92d4ff0 	push	{r4, r5, r6, r7, r8, r9, sl, fp, lr}
e00019ec:	e24dd014 	sub	sp, sp, #20
e00019f0:	e1a07000 	mov	r7, r0
e00019f4:	e1a0000d 	mov	r0, sp
e00019f8:	e8800006 	stm	r0, {r1, r2}
e00019fc:	e58d303c 	str	r3, [sp, #60]	; 0x3c
e0001a00:	e59d8040 	ldr	r8, [sp, #64]	; 0x40
e0001a04:	e3a0000e 	mov	r0, #14
e0001a08:	ebfffc79 	bl	e0000bf4 <alloc_region>
e0001a0c:	e2506000 	subs	r6, r0, #0
e0001a10:	1a000007 	bne	e0001a34 <create_it_address_space+0x50>
e0001a14:	e3a03000 	mov	r3, #0
e0001a18:	e5873000 	str	r3, [r7]
e0001a1c:	e5873004 	str	r3, [r7, #4]
e0001a20:	e1a00007 	mov	r0, r7
e0001a24:	e28dd014 	add	sp, sp, #20
e0001a28:	e8bd4ff0 	pop	{r4, r5, r6, r7, r8, r9, sl, fp, lr}
e0001a2c:	e28dd008 	add	sp, sp, #8
e0001a30:	e12fff1e 	bx	lr
e0001a34:	e3a01901 	mov	r1, #16384	; 0x4000
e0001a38:	e1a00006 	mov	r0, r6
e0001a3c:	eb005e7e 	bl	e001943c <memzero>
e0001a40:	e1a00006 	mov	r0, r6
e0001a44:	eb003ec4 	bl	e001155c <copyGlobalMappings>
e0001a48:	e2862203 	add	r2, r6, #805306368	; 0x30000000
e0001a4c:	e2861dff 	add	r1, r6, #16320	; 0x3fc0
e0001a50:	e281103f 	add	r1, r1, #63	; 0x3f
e0001a54:	e1a00006 	mov	r0, r6
e0001a58:	eb004238 	bl	e0012340 <cleanCacheRange_PoU>
e0001a5c:	e3c66dff 	bic	r6, r6, #16320	; 0x3fc0
e0001a60:	e3c6603f 	bic	r6, r6, #63	; 0x3f
e0001a64:	e386a019 	orr	sl, r6, #25
e0001a68:	e3033d18 	movw	r3, #15640	; 0x3d18
e0001a6c:	e34e3000 	movt	r3, #57344	; 0xe000
e0001a70:	e593b014 	ldr	fp, [r3, #20]
e0001a74:	e59d3000 	ldr	r3, [sp]
e0001a78:	e59d0004 	ldr	r0, [sp, #4]
e0001a7c:	e203200e 	and	r2, r3, #14
e0001a80:	e352000e 	cmp	r2, #14
e0001a84:	1203100f 	andne	r1, r3, #15
e0001a88:	06ef1073 	uxtbeq	r1, r3
e0001a8c:	e2412002 	sub	r2, r1, #2
e0001a90:	e352003c 	cmp	r2, #60	; 0x3c
e0001a94:	979ff102 	ldrls	pc, [pc, r2, lsl #2]
e0001a98:	ea000050 	b	e0001be0 <create_it_address_space+0x1fc>
e0001a9c:	e0001b90 	.word	0xe0001b90
e0001aa0:	e0001be0 	.word	0xe0001be0
e0001aa4:	e0001b98 	.word	0xe0001b98
e0001aa8:	e0001be0 	.word	0xe0001be0
e0001aac:	e0001ba0 	.word	0xe0001ba0
e0001ab0:	e0001be0 	.word	0xe0001be0
e0001ab4:	e0001c6c 	.word	0xe0001c6c
e0001ab8:	e0001be0 	.word	0xe0001be0
e0001abc:	e0001ba8 	.word	0xe0001ba8
e0001ac0:	e0001be0 	.word	0xe0001be0
e0001ac4:	e0001bb0 	.word	0xe0001bb0
e0001ac8:	e0001be0 	.word	0xe0001be0
e0001acc:	e0001c6c 	.word	0xe0001c6c
e0001ad0:	e0001be0 	.word	0xe0001be0
e0001ad4:	e0001be0 	.word	0xe0001be0
e0001ad8:	e0001be0 	.word	0xe0001be0
e0001adc:	e0001be0 	.word	0xe0001be0
e0001ae0:	e0001be0 	.word	0xe0001be0
e0001ae4:	e0001be0 	.word	0xe0001be0
e0001ae8:	e0001be0 	.word	0xe0001be0
e0001aec:	e0001be0 	.word	0xe0001be0
e0001af0:	e0001be0 	.word	0xe0001be0
e0001af4:	e0001be0 	.word	0xe0001be0
e0001af8:	e0001be0 	.word	0xe0001be0
e0001afc:	e0001be0 	.word	0xe0001be0
e0001b00:	e0001be0 	.word	0xe0001be0
e0001b04:	e0001be0 	.word	0xe0001be0
e0001b08:	e0001be0 	.word	0xe0001be0
e0001b0c:	e0001c6c 	.word	0xe0001c6c
e0001b10:	e0001be0 	.word	0xe0001be0
e0001b14:	e0001be0 	.word	0xe0001be0
e0001b18:	e0001be0 	.word	0xe0001be0
e0001b1c:	e0001be0 	.word	0xe0001be0
e0001b20:	e0001be0 	.word	0xe0001be0
e0001b24:	e0001be0 	.word	0xe0001be0
e0001b28:	e0001be0 	.word	0xe0001be0
e0001b2c:	e0001be0 	.word	0xe0001be0
e0001b30:	e0001be0 	.word	0xe0001be0
e0001b34:	e0001be0 	.word	0xe0001be0
e0001b38:	e0001be0 	.word	0xe0001be0
e0001b3c:	e0001be0 	.word	0xe0001be0
e0001b40:	e0001be0 	.word	0xe0001be0
e0001b44:	e0001be0 	.word	0xe0001be0
e0001b48:	e0001be0 	.word	0xe0001be0
e0001b4c:	e0001bbc 	.word	0xe0001bbc
e0001b50:	e0001be0 	.word	0xe0001be0
e0001b54:	e0001be0 	.word	0xe0001be0
e0001b58:	e0001be0 	.word	0xe0001be0
e0001b5c:	e0001be0 	.word	0xe0001be0
e0001b60:	e0001be0 	.word	0xe0001be0
e0001b64:	e0001be0 	.word	0xe0001be0
e0001b68:	e0001be0 	.word	0xe0001be0
e0001b6c:	e0001be0 	.word	0xe0001be0
e0001b70:	e0001be0 	.word	0xe0001be0
e0001b74:	e0001be0 	.word	0xe0001be0
e0001b78:	e0001be0 	.word	0xe0001be0
e0001b7c:	e0001be0 	.word	0xe0001be0
e0001b80:	e0001be0 	.word	0xe0001be0
e0001b84:	e0001be0 	.word	0xe0001be0
e0001b88:	e0001be0 	.word	0xe0001be0
e0001b8c:	e0001c6c 	.word	0xe0001c6c
e0001b90:	e3c3300f 	bic	r3, r3, #15
e0001b94:	ea000035 	b	e0001c70 <create_it_address_space+0x28c>
e0001b98:	e3c0300f 	bic	r3, r0, #15
e0001b9c:	ea000033 	b	e0001c70 <create_it_address_space+0x28c>
e0001ba0:	e3c3300f 	bic	r3, r3, #15
e0001ba4:	ea000031 	b	e0001c70 <create_it_address_space+0x28c>
e0001ba8:	e3c3301f 	bic	r3, r3, #31
e0001bac:	ea00002f 	b	e0001c70 <create_it_address_space+0x28c>
e0001bb0:	e3c33f7f 	bic	r3, r3, #508	; 0x1fc
e0001bb4:	e3c33003 	bic	r3, r3, #3
e0001bb8:	ea00002c 	b	e0001c70 <create_it_address_space+0x28c>
e0001bbc:	e1a03423 	lsr	r3, r3, #8
e0001bc0:	e203203f 	and	r2, r3, #63	; 0x3f
e0001bc4:	e3520020 	cmp	r2, #32
e0001bc8:	1203301f 	andne	r3, r3, #31
e0001bcc:	03a03004 	moveq	r3, #4
e0001bd0:	e2833001 	add	r3, r3, #1
e0001bd4:	e3e02000 	mvn	r2, #0
e0001bd8:	e0003312 	and	r3, r0, r2, lsl r3
e0001bdc:	ea000023 	b	e0001c70 <create_it_address_space+0x28c>
e0001be0:	e2412001 	sub	r2, r1, #1
e0001be4:	e3520008 	cmp	r2, #8
e0001be8:	979ff102 	ldrls	pc, [pc, r2, lsl #2]
e0001bec:	ea000052 	b	e0001d3c <create_it_address_space+0x358>
e0001bf0:	e0001c14 	.word	0xe0001c14
e0001bf4:	e0001d3c 	.word	0xe0001d3c
e0001bf8:	e0001c14 	.word	0xe0001c14
e0001bfc:	e0001d3c 	.word	0xe0001d3c
e0001c00:	e0001c64 	.word	0xe0001c64
e0001c04:	e0001d3c 	.word	0xe0001d3c
e0001c08:	e0001c4c 	.word	0xe0001c4c
e0001c0c:	e0001d3c 	.word	0xe0001d3c
e0001c10:	e0001c58 	.word	0xe0001c58
e0001c14:	e3510001 	cmp	r1, #1
e0001c18:	0a000003 	beq	e0001c2c <create_it_address_space+0x248>
e0001c1c:	e3510003 	cmp	r1, #3
e0001c20:	0a000005 	beq	e0001c3c <create_it_address_space+0x258>
e0001c24:	e3a03000 	mov	r3, #0
e0001c28:	ea000010 	b	e0001c70 <create_it_address_space+0x28c>
e0001c2c:	e1a03403 	lsl	r3, r3, #8
e0001c30:	e3c33eff 	bic	r3, r3, #4080	; 0xff0
e0001c34:	e3c3300f 	bic	r3, r3, #15
e0001c38:	ea00000c 	b	e0001c70 <create_it_address_space+0x28c>
e0001c3c:	e1a03503 	lsl	r3, r3, #10
e0001c40:	e3c33dff 	bic	r3, r3, #16320	; 0x3fc0
e0001c44:	e3c3303f 	bic	r3, r3, #63	; 0x3f
e0001c48:	ea000008 	b	e0001c70 <create_it_address_space+0x28c>
e0001c4c:	e3c33fff 	bic	r3, r3, #1020	; 0x3fc
e0001c50:	e3c33003 	bic	r3, r3, #3
e0001c54:	ea000005 	b	e0001c70 <create_it_address_space+0x28c>
e0001c58:	e3c33dff 	bic	r3, r3, #16320	; 0x3fc0
e0001c5c:	e3c3303f 	bic	r3, r3, #63	; 0x3f
e0001c60:	ea000002 	b	e0001c70 <create_it_address_space+0x28c>
e0001c64:	e3c3300f 	bic	r3, r3, #15
e0001c68:	ea000000 	b	e0001c70 <create_it_address_space+0x28c>
e0001c6c:	e3a03000 	mov	r3, #0
e0001c70:	e583a030 	str	sl, [r3, #48]	; 0x30
e0001c74:	e3a02001 	mov	r2, #1
e0001c78:	e5832034 	str	r2, [r3, #52]	; 0x34
e0001c7c:	e3a02000 	mov	r2, #0
e0001c80:	e5832038 	str	r2, [r3, #56]	; 0x38
e0001c84:	e3a02003 	mov	r2, #3
e0001c88:	e583203c 	str	r2, [r3, #60]	; 0x3c
e0001c8c:	e59d503c 	ldr	r5, [sp, #60]	; 0x3c
e0001c90:	e1a05a25 	lsr	r5, r5, #20
e0001c94:	e1a05a05 	lsl	r5, r5, #20
e0001c98:	e1580005 	cmp	r8, r5
e0001c9c:	9a00001c 	bls	e0001d14 <create_it_address_space+0x330>
e0001ca0:	e3009201 	movw	r9, #513	; 0x201
e0001ca4:	e3a0000a 	mov	r0, #10
e0001ca8:	ebfffbd1 	bl	e0000bf4 <alloc_region>
e0001cac:	e2504000 	subs	r4, r0, #0
e0001cb0:	0a000023 	beq	e0001d44 <create_it_address_space+0x360>
e0001cb4:	e3a01b01 	mov	r1, #1024	; 0x400
e0001cb8:	e1a00004 	mov	r0, r4
e0001cbc:	eb005dde 	bl	e001943c <memzero>
e0001cc0:	e3c40fff 	bic	r0, r4, #1020	; 0x3fc
e0001cc4:	e3c00003 	bic	r0, r0, #3
e0001cc8:	e1a03a25 	lsr	r3, r5, #20
e0001ccc:	e2802203 	add	r2, r0, #805306368	; 0x30000000
e0001cd0:	e1822009 	orr	r2, r2, r9
e0001cd4:	e7862103 	str	r2, [r6, r3, lsl #2]
e0001cd8:	e3800007 	orr	r0, r0, #7
e0001cdc:	e58d0008 	str	r0, [sp, #8]
e0001ce0:	e3833202 	orr	r3, r3, #536870912	; 0x20000000
e0001ce4:	e3833a01 	orr	r3, r3, #4096	; 0x1000
e0001ce8:	e58d300c 	str	r3, [sp, #12]
e0001cec:	e28d3010 	add	r3, sp, #16
e0001cf0:	e913000c 	ldmdb	r3, {r2, r3}
e0001cf4:	e1a0100d 	mov	r1, sp
e0001cf8:	e8910003 	ldm	r1, {r0, r1}
e0001cfc:	ebfffd6b 	bl	e00012b0 <provide_cap>
e0001d00:	e3500000 	cmp	r0, #0
e0001d04:	0a000012 	beq	e0001d54 <create_it_address_space+0x370>
e0001d08:	e2855601 	add	r5, r5, #1048576	; 0x100000
e0001d0c:	e1580005 	cmp	r8, r5
e0001d10:	8affffe3 	bhi	e0001ca4 <create_it_address_space+0x2c0>
e0001d14:	e3033d18 	movw	r3, #15640	; 0x3d18
e0001d18:	e34e3000 	movt	r3, #57344	; 0xe000
e0001d1c:	e5932014 	ldr	r2, [r3, #20]
e0001d20:	e5933010 	ldr	r3, [r3, #16]
e0001d24:	e583b02c 	str	fp, [r3, #44]	; 0x2c
e0001d28:	e5832030 	str	r2, [r3, #48]	; 0x30
e0001d2c:	e587a000 	str	sl, [r7]
e0001d30:	e3a03001 	mov	r3, #1
e0001d34:	e5873004 	str	r3, [r7, #4]
e0001d38:	eaffff38 	b	e0001a20 <create_it_address_space+0x3c>
e0001d3c:	e3a03000 	mov	r3, #0
e0001d40:	eaffffca 	b	e0001c70 <create_it_address_space+0x28c>
e0001d44:	e3a03000 	mov	r3, #0
e0001d48:	e5873000 	str	r3, [r7]
e0001d4c:	e5873004 	str	r3, [r7, #4]
e0001d50:	eaffff32 	b	e0001a20 <create_it_address_space+0x3c>
e0001d54:	e3a03000 	mov	r3, #0
e0001d58:	e5873000 	str	r3, [r7]
e0001d5c:	e5873004 	str	r3, [r7, #4]
e0001d60:	eaffff2e 	b	e0001a20 <create_it_address_space+0x3c>

e0001d64 <create_root_cnode>:
e0001d64:	e92d4070 	push	{r4, r5, r6, lr}
e0001d68:	e1a04000 	mov	r4, r0
e0001d6c:	e3033d18 	movw	r3, #15640	; 0x3d18
e0001d70:	e34e3000 	movt	r3, #57344	; 0xe000
e0001d74:	e3a02a01 	mov	r2, #4096	; 0x1000
e0001d78:	e5832018 	str	r2, [r3, #24]
e0001d7c:	e3a00010 	mov	r0, #16
e0001d80:	ebfffb9b 	bl	e0000bf4 <alloc_region>
e0001d84:	e2505000 	subs	r5, r0, #0
e0001d88:	1a000004 	bne	e0001da0 <create_root_cnode+0x3c>
e0001d8c:	e3a03000 	mov	r3, #0
e0001d90:	e5843000 	str	r3, [r4]
e0001d94:	e5843004 	str	r3, [r4, #4]
e0001d98:	e1a00004 	mov	r0, r4
e0001d9c:	e8bd8070 	pop	{r4, r5, r6, pc}
e0001da0:	e3a01801 	mov	r1, #65536	; 0x10000
e0001da4:	e1a00005 	mov	r0, r5
e0001da8:	eb005da3 	bl	e001943c <memzero>
e0001dac:	e3c5301f 	bic	r3, r5, #31
e0001db0:	e383300a 	orr	r3, r3, #10
e0001db4:	e5853020 	str	r3, [r5, #32]
e0001db8:	e3a016a3 	mov	r1, #170917888	; 0xa300000
e0001dbc:	e5851024 	str	r1, [r5, #36]	; 0x24
e0001dc0:	e3a00000 	mov	r0, #0
e0001dc4:	e5850028 	str	r0, [r5, #40]	; 0x28
e0001dc8:	e3a00003 	mov	r0, #3
e0001dcc:	e585002c 	str	r0, [r5, #44]	; 0x2c
e0001dd0:	e5843000 	str	r3, [r4]
e0001dd4:	e5841004 	str	r1, [r4, #4]
e0001dd8:	eaffffee 	b	e0001d98 <create_root_cnode+0x34>

e0001ddc <create_irq_cnode>:
e0001ddc:	e92d4010 	push	{r4, lr}
e0001de0:	e3a0000c 	mov	r0, #12
e0001de4:	ebfffb82 	bl	e0000bf4 <alloc_region>
e0001de8:	e2504000 	subs	r4, r0, #0
e0001dec:	1a000001 	bne	e0001df8 <create_irq_cnode+0x1c>
e0001df0:	e3a00000 	mov	r0, #0
e0001df4:	e8bd8010 	pop	{r4, pc}
e0001df8:	e3a01a01 	mov	r1, #4096	; 0x1000
e0001dfc:	e1a00004 	mov	r0, r4
e0001e00:	eb005d8d 	bl	e001943c <memzero>
e0001e04:	e30134e0 	movw	r3, #5344	; 0x14e0
e0001e08:	e34e3003 	movt	r3, #57347	; 0xe003
e0001e0c:	e5834000 	str	r4, [r3]
e0001e10:	e3a00001 	mov	r0, #1
e0001e14:	e8bd8010 	pop	{r4, pc}

e0001e18 <create_it_asid_pool>:
e0001e18:	e92d4030 	push	{r4, r5, lr}
e0001e1c:	e24dd00c 	sub	sp, sp, #12
e0001e20:	e1a05000 	mov	r5, r0
e0001e24:	e28d3008 	add	r3, sp, #8
e0001e28:	e9030006 	stmdb	r3, {r1, r2}
e0001e2c:	e3a0000c 	mov	r0, #12
e0001e30:	ebfffb6f 	bl	e0000bf4 <alloc_region>
e0001e34:	e2504000 	subs	r4, r0, #0
e0001e38:	1a000005 	bne	e0001e54 <create_it_asid_pool+0x3c>
e0001e3c:	e3a03000 	mov	r3, #0
e0001e40:	e5853000 	str	r3, [r5]
e0001e44:	e5853004 	str	r3, [r5, #4]
e0001e48:	e1a00005 	mov	r0, r5
e0001e4c:	e28dd00c 	add	sp, sp, #12
e0001e50:	e8bd8030 	pop	{r4, r5, pc}
e0001e54:	e3a01a01 	mov	r1, #4096	; 0x1000
e0001e58:	e1a00004 	mov	r0, r4
e0001e5c:	eb005d76 	bl	e001943c <memzero>
e0001e60:	e3c4400f 	bic	r4, r4, #15
e0001e64:	e3844005 	orr	r4, r4, #5
e0001e68:	e59d3000 	ldr	r3, [sp]
e0001e6c:	e59dc004 	ldr	ip, [sp, #4]
e0001e70:	e203100e 	and	r1, r3, #14
e0001e74:	e351000e 	cmp	r1, #14
e0001e78:	0a000041 	beq	e0001f84 <create_it_asid_pool+0x16c>
e0001e7c:	e203200f 	and	r2, r3, #15
e0001e80:	e2420002 	sub	r0, r2, #2
e0001e84:	e350003c 	cmp	r0, #60	; 0x3c
e0001e88:	979ff100 	ldrls	pc, [pc, r0, lsl #2]
e0001e8c:	ea0000db 	b	e0002200 <create_it_asid_pool+0x3e8>
e0001e90:	e000208c 	.word	0xe000208c
e0001e94:	e0002200 	.word	0xe0002200
e0001e98:	e00021b8 	.word	0xe00021b8
e0001e9c:	e0002200 	.word	0xe0002200
e0001ea0:	e00021c0 	.word	0xe00021c0
e0001ea4:	e0002200 	.word	0xe0002200
e0001ea8:	e00023c4 	.word	0xe00023c4
e0001eac:	e0002200 	.word	0xe0002200
e0001eb0:	e00021c8 	.word	0xe00021c8
e0001eb4:	e0002200 	.word	0xe0002200
e0001eb8:	e00021d0 	.word	0xe00021d0
e0001ebc:	e0002200 	.word	0xe0002200
e0001ec0:	e00023c4 	.word	0xe00023c4
e0001ec4:	e0002200 	.word	0xe0002200
e0001ec8:	e0002200 	.word	0xe0002200
e0001ecc:	e0002200 	.word	0xe0002200
e0001ed0:	e0002200 	.word	0xe0002200
e0001ed4:	e0002200 	.word	0xe0002200
e0001ed8:	e0002200 	.word	0xe0002200
e0001edc:	e0002200 	.word	0xe0002200
e0001ee0:	e0002200 	.word	0xe0002200
e0001ee4:	e0002200 	.word	0xe0002200
e0001ee8:	e0002200 	.word	0xe0002200
e0001eec:	e0002200 	.word	0xe0002200
e0001ef0:	e0002200 	.word	0xe0002200
e0001ef4:	e0002200 	.word	0xe0002200
e0001ef8:	e0002200 	.word	0xe0002200
e0001efc:	e0002200 	.word	0xe0002200
e0001f00:	e00023c4 	.word	0xe00023c4
e0001f04:	e0002200 	.word	0xe0002200
e0001f08:	e0002200 	.word	0xe0002200
e0001f0c:	e0002200 	.word	0xe0002200
e0001f10:	e0002200 	.word	0xe0002200
e0001f14:	e0002200 	.word	0xe0002200
e0001f18:	e0002200 	.word	0xe0002200
e0001f1c:	e0002200 	.word	0xe0002200
e0001f20:	e0002200 	.word	0xe0002200
e0001f24:	e0002200 	.word	0xe0002200
e0001f28:	e0002200 	.word	0xe0002200
e0001f2c:	e0002200 	.word	0xe0002200
e0001f30:	e0002200 	.word	0xe0002200
e0001f34:	e0002200 	.word	0xe0002200
e0001f38:	e0002200 	.word	0xe0002200
e0001f3c:	e0002200 	.word	0xe0002200
e0001f40:	e00021dc 	.word	0xe00021dc
e0001f44:	e0002200 	.word	0xe0002200
e0001f48:	e0002200 	.word	0xe0002200
e0001f4c:	e0002200 	.word	0xe0002200
e0001f50:	e0002200 	.word	0xe0002200
e0001f54:	e0002200 	.word	0xe0002200
e0001f58:	e0002200 	.word	0xe0002200
e0001f5c:	e0002200 	.word	0xe0002200
e0001f60:	e0002200 	.word	0xe0002200
e0001f64:	e0002200 	.word	0xe0002200
e0001f68:	e0002200 	.word	0xe0002200
e0001f6c:	e0002200 	.word	0xe0002200
e0001f70:	e0002200 	.word	0xe0002200
e0001f74:	e0002200 	.word	0xe0002200
e0001f78:	e0002200 	.word	0xe0002200
e0001f7c:	e0002200 	.word	0xe0002200
e0001f80:	e00023c4 	.word	0xe00023c4
e0001f84:	e6ef2073 	uxtb	r2, r3
e0001f88:	e2420002 	sub	r0, r2, #2
e0001f8c:	e350003c 	cmp	r0, #60	; 0x3c
e0001f90:	979ff100 	ldrls	pc, [pc, r0, lsl #2]
e0001f94:	ea000099 	b	e0002200 <create_it_asid_pool+0x3e8>
e0001f98:	e000208c 	.word	0xe000208c
e0001f9c:	e0002200 	.word	0xe0002200
e0001fa0:	e00021b8 	.word	0xe00021b8
e0001fa4:	e0002200 	.word	0xe0002200
e0001fa8:	e00021c0 	.word	0xe00021c0
e0001fac:	e0002200 	.word	0xe0002200
e0001fb0:	e00023a4 	.word	0xe00023a4
e0001fb4:	e0002200 	.word	0xe0002200
e0001fb8:	e00021c8 	.word	0xe00021c8
e0001fbc:	e0002200 	.word	0xe0002200
e0001fc0:	e00021d0 	.word	0xe00021d0
e0001fc4:	e0002200 	.word	0xe0002200
e0001fc8:	e00023a4 	.word	0xe00023a4
e0001fcc:	e0002200 	.word	0xe0002200
e0001fd0:	e0002200 	.word	0xe0002200
e0001fd4:	e0002200 	.word	0xe0002200
e0001fd8:	e0002200 	.word	0xe0002200
e0001fdc:	e0002200 	.word	0xe0002200
e0001fe0:	e0002200 	.word	0xe0002200
e0001fe4:	e0002200 	.word	0xe0002200
e0001fe8:	e0002200 	.word	0xe0002200
e0001fec:	e0002200 	.word	0xe0002200
e0001ff0:	e0002200 	.word	0xe0002200
e0001ff4:	e0002200 	.word	0xe0002200
e0001ff8:	e0002200 	.word	0xe0002200
e0001ffc:	e0002200 	.word	0xe0002200
e0002000:	e0002200 	.word	0xe0002200
e0002004:	e0002200 	.word	0xe0002200
e0002008:	e00023a4 	.word	0xe00023a4
e000200c:	e0002200 	.word	0xe0002200
e0002010:	e0002200 	.word	0xe0002200
e0002014:	e0002200 	.word	0xe0002200
e0002018:	e0002200 	.word	0xe0002200
e000201c:	e0002200 	.word	0xe0002200
e0002020:	e0002200 	.word	0xe0002200
e0002024:	e0002200 	.word	0xe0002200
e0002028:	e0002200 	.word	0xe0002200
e000202c:	e0002200 	.word	0xe0002200
e0002030:	e0002200 	.word	0xe0002200
e0002034:	e0002200 	.word	0xe0002200
e0002038:	e0002200 	.word	0xe0002200
e000203c:	e0002200 	.word	0xe0002200
e0002040:	e0002200 	.word	0xe0002200
e0002044:	e0002200 	.word	0xe0002200
e0002048:	e00021dc 	.word	0xe00021dc
e000204c:	e0002200 	.word	0xe0002200
e0002050:	e0002200 	.word	0xe0002200
e0002054:	e0002200 	.word	0xe0002200
e0002058:	e0002200 	.word	0xe0002200
e000205c:	e0002200 	.word	0xe0002200
e0002060:	e0002200 	.word	0xe0002200
e0002064:	e0002200 	.word	0xe0002200
e0002068:	e0002200 	.word	0xe0002200
e000206c:	e0002200 	.word	0xe0002200
e0002070:	e0002200 	.word	0xe0002200
e0002074:	e0002200 	.word	0xe0002200
e0002078:	e0002200 	.word	0xe0002200
e000207c:	e0002200 	.word	0xe0002200
e0002080:	e0002200 	.word	0xe0002200
e0002084:	e0002200 	.word	0xe0002200
e0002088:	e00023a4 	.word	0xe00023a4
e000208c:	e3c3200f 	bic	r2, r3, #15
e0002090:	e5824060 	str	r4, [r2, #96]	; 0x60
e0002094:	e3a00000 	mov	r0, #0
e0002098:	e5820064 	str	r0, [r2, #100]	; 0x64
e000209c:	e5820068 	str	r0, [r2, #104]	; 0x68
e00020a0:	e3a00003 	mov	r0, #3
e00020a4:	e582006c 	str	r0, [r2, #108]	; 0x6c
e00020a8:	e351000e 	cmp	r1, #14
e00020ac:	0a0000c2 	beq	e00023bc <create_it_asid_pool+0x5a4>
e00020b0:	e203100f 	and	r1, r3, #15
e00020b4:	e2412002 	sub	r2, r1, #2
e00020b8:	e352003c 	cmp	r2, #60	; 0x3c
e00020bc:	979ff102 	ldrls	pc, [pc, r2, lsl #2]
e00020c0:	ea000087 	b	e00022e4 <create_it_asid_pool+0x4cc>
e00020c4:	e0002294 	.word	0xe0002294
e00020c8:	e00022e4 	.word	0xe00022e4
e00020cc:	e000229c 	.word	0xe000229c
e00020d0:	e00022e4 	.word	0xe00022e4
e00020d4:	e00022a4 	.word	0xe00022a4
e00020d8:	e00022e4 	.word	0xe00022e4
e00020dc:	e0002370 	.word	0xe0002370
e00020e0:	e00022e4 	.word	0xe00022e4
e00020e4:	e00022ac 	.word	0xe00022ac
e00020e8:	e00022e4 	.word	0xe00022e4
e00020ec:	e00022b4 	.word	0xe00022b4
e00020f0:	e00022e4 	.word	0xe00022e4
e00020f4:	e0002370 	.word	0xe0002370
e00020f8:	e00022e4 	.word	0xe00022e4
e00020fc:	e00022e4 	.word	0xe00022e4
e0002100:	e00022e4 	.word	0xe00022e4
e0002104:	e00022e4 	.word	0xe00022e4
e0002108:	e00022e4 	.word	0xe00022e4
e000210c:	e00022e4 	.word	0xe00022e4
e0002110:	e00022e4 	.word	0xe00022e4
e0002114:	e00022e4 	.word	0xe00022e4
e0002118:	e00022e4 	.word	0xe00022e4
e000211c:	e00022e4 	.word	0xe00022e4
e0002120:	e00022e4 	.word	0xe00022e4
e0002124:	e00022e4 	.word	0xe00022e4
e0002128:	e00022e4 	.word	0xe00022e4
e000212c:	e00022e4 	.word	0xe00022e4
e0002130:	e00022e4 	.word	0xe00022e4
e0002134:	e0002370 	.word	0xe0002370
e0002138:	e00022e4 	.word	0xe00022e4
e000213c:	e00022e4 	.word	0xe00022e4
e0002140:	e00022e4 	.word	0xe00022e4
e0002144:	e00022e4 	.word	0xe00022e4
e0002148:	e00022e4 	.word	0xe00022e4
e000214c:	e00022e4 	.word	0xe00022e4
e0002150:	e00022e4 	.word	0xe00022e4
e0002154:	e00022e4 	.word	0xe00022e4
e0002158:	e00022e4 	.word	0xe00022e4
e000215c:	e00022e4 	.word	0xe00022e4
e0002160:	e00022e4 	.word	0xe00022e4
e0002164:	e00022e4 	.word	0xe00022e4
e0002168:	e00022e4 	.word	0xe00022e4
e000216c:	e00022e4 	.word	0xe00022e4
e0002170:	e00022e4 	.word	0xe00022e4
e0002174:	e00022c0 	.word	0xe00022c0
e0002178:	e00022e4 	.word	0xe00022e4
e000217c:	e00022e4 	.word	0xe00022e4
e0002180:	e00022e4 	.word	0xe00022e4
e0002184:	e00022e4 	.word	0xe00022e4
e0002188:	e00022e4 	.word	0xe00022e4
e000218c:	e00022e4 	.word	0xe00022e4
e0002190:	e00022e4 	.word	0xe00022e4
e0002194:	e00022e4 	.word	0xe00022e4
e0002198:	e00022e4 	.word	0xe00022e4
e000219c:	e00022e4 	.word	0xe00022e4
e00021a0:	e00022e4 	.word	0xe00022e4
e00021a4:	e00022e4 	.word	0xe00022e4
e00021a8:	e00022e4 	.word	0xe00022e4
e00021ac:	e00022e4 	.word	0xe00022e4
e00021b0:	e00022e4 	.word	0xe00022e4
e00021b4:	e0002370 	.word	0xe0002370
e00021b8:	e3cc200f 	bic	r2, ip, #15
e00021bc:	eaffffb3 	b	e0002090 <create_it_asid_pool+0x278>
e00021c0:	e3c3200f 	bic	r2, r3, #15
e00021c4:	eaffffb1 	b	e0002090 <create_it_asid_pool+0x278>
e00021c8:	e3c3201f 	bic	r2, r3, #31
e00021cc:	eaffffaf 	b	e0002090 <create_it_asid_pool+0x278>
e00021d0:	e3c32f7f 	bic	r2, r3, #508	; 0x1fc
e00021d4:	e3c22003 	bic	r2, r2, #3
e00021d8:	eaffffac 	b	e0002090 <create_it_asid_pool+0x278>
e00021dc:	e1a02423 	lsr	r2, r3, #8
e00021e0:	e202003f 	and	r0, r2, #63	; 0x3f
e00021e4:	e3500020 	cmp	r0, #32
e00021e8:	1202201f 	andne	r2, r2, #31
e00021ec:	03a02004 	moveq	r2, #4
e00021f0:	e2820001 	add	r0, r2, #1
e00021f4:	e3e02000 	mvn	r2, #0
e00021f8:	e00c2012 	and	r2, ip, r2, lsl r0
e00021fc:	eaffffa3 	b	e0002090 <create_it_asid_pool+0x278>
e0002200:	e2420001 	sub	r0, r2, #1
e0002204:	e3500008 	cmp	r0, #8
e0002208:	979ff100 	ldrls	pc, [pc, r0, lsl #2]
e000220c:	ea00001e 	b	e000228c <create_it_asid_pool+0x474>
e0002210:	e0002234 	.word	0xe0002234
e0002214:	e000228c 	.word	0xe000228c
e0002218:	e0002234 	.word	0xe0002234
e000221c:	e000228c 	.word	0xe000228c
e0002220:	e0002284 	.word	0xe0002284
e0002224:	e000228c 	.word	0xe000228c
e0002228:	e000226c 	.word	0xe000226c
e000222c:	e000228c 	.word	0xe000228c
e0002230:	e0002278 	.word	0xe0002278
e0002234:	e3520001 	cmp	r2, #1
e0002238:	0a000003 	beq	e000224c <create_it_asid_pool+0x434>
e000223c:	e3520003 	cmp	r2, #3
e0002240:	0a000005 	beq	e000225c <create_it_asid_pool+0x444>
e0002244:	e3a02000 	mov	r2, #0
e0002248:	eaffff90 	b	e0002090 <create_it_asid_pool+0x278>
e000224c:	e1a02403 	lsl	r2, r3, #8
e0002250:	e3c22eff 	bic	r2, r2, #4080	; 0xff0
e0002254:	e3c2200f 	bic	r2, r2, #15
e0002258:	eaffff8c 	b	e0002090 <create_it_asid_pool+0x278>
e000225c:	e1a02503 	lsl	r2, r3, #10
e0002260:	e3c22dff 	bic	r2, r2, #16320	; 0x3fc0
e0002264:	e3c2203f 	bic	r2, r2, #63	; 0x3f
e0002268:	eaffff88 	b	e0002090 <create_it_asid_pool+0x278>
e000226c:	e3c32fff 	bic	r2, r3, #1020	; 0x3fc
e0002270:	e3c22003 	bic	r2, r2, #3
e0002274:	eaffff85 	b	e0002090 <create_it_asid_pool+0x278>
e0002278:	e3c32dff 	bic	r2, r3, #16320	; 0x3fc0
e000227c:	e3c2203f 	bic	r2, r2, #63	; 0x3f
e0002280:	eaffff82 	b	e0002090 <create_it_asid_pool+0x278>
e0002284:	e3c3200f 	bic	r2, r3, #15
e0002288:	eaffff80 	b	e0002090 <create_it_asid_pool+0x278>
e000228c:	e3a02000 	mov	r2, #0
e0002290:	eaffff7e 	b	e0002090 <create_it_asid_pool+0x278>
e0002294:	e3c3300f 	bic	r3, r3, #15
e0002298:	ea000035 	b	e0002374 <create_it_asid_pool+0x55c>
e000229c:	e3cc300f 	bic	r3, ip, #15
e00022a0:	ea000033 	b	e0002374 <create_it_asid_pool+0x55c>
e00022a4:	e3c3300f 	bic	r3, r3, #15
e00022a8:	ea000031 	b	e0002374 <create_it_asid_pool+0x55c>
e00022ac:	e3c3301f 	bic	r3, r3, #31
e00022b0:	ea00002f 	b	e0002374 <create_it_asid_pool+0x55c>
e00022b4:	e3c33f7f 	bic	r3, r3, #508	; 0x1fc
e00022b8:	e3c33003 	bic	r3, r3, #3
e00022bc:	ea00002c 	b	e0002374 <create_it_asid_pool+0x55c>
e00022c0:	e1a03423 	lsr	r3, r3, #8
e00022c4:	e203203f 	and	r2, r3, #63	; 0x3f
e00022c8:	e3520020 	cmp	r2, #32
e00022cc:	1203301f 	andne	r3, r3, #31
e00022d0:	03a03004 	moveq	r3, #4
e00022d4:	e2832001 	add	r2, r3, #1
e00022d8:	e3e03000 	mvn	r3, #0
e00022dc:	e00c3213 	and	r3, ip, r3, lsl r2
e00022e0:	ea000023 	b	e0002374 <create_it_asid_pool+0x55c>
e00022e4:	e2412001 	sub	r2, r1, #1
e00022e8:	e3520008 	cmp	r2, #8
e00022ec:	979ff102 	ldrls	pc, [pc, r2, lsl #2]
e00022f0:	ea000029 	b	e000239c <create_it_asid_pool+0x584>
e00022f4:	e0002318 	.word	0xe0002318
e00022f8:	e000239c 	.word	0xe000239c
e00022fc:	e0002318 	.word	0xe0002318
e0002300:	e000239c 	.word	0xe000239c
e0002304:	e0002368 	.word	0xe0002368
e0002308:	e000239c 	.word	0xe000239c
e000230c:	e0002350 	.word	0xe0002350
e0002310:	e000239c 	.word	0xe000239c
e0002314:	e000235c 	.word	0xe000235c
e0002318:	e3510001 	cmp	r1, #1
e000231c:	0a000003 	beq	e0002330 <create_it_asid_pool+0x518>
e0002320:	e3510003 	cmp	r1, #3
e0002324:	0a000005 	beq	e0002340 <create_it_asid_pool+0x528>
e0002328:	e3a03000 	mov	r3, #0
e000232c:	ea000010 	b	e0002374 <create_it_asid_pool+0x55c>
e0002330:	e1a03403 	lsl	r3, r3, #8
e0002334:	e3c33eff 	bic	r3, r3, #4080	; 0xff0
e0002338:	e3c3300f 	bic	r3, r3, #15
e000233c:	ea00000c 	b	e0002374 <create_it_asid_pool+0x55c>
e0002340:	e1a03503 	lsl	r3, r3, #10
e0002344:	e3c33dff 	bic	r3, r3, #16320	; 0x3fc0
e0002348:	e3c3303f 	bic	r3, r3, #63	; 0x3f
e000234c:	ea000008 	b	e0002374 <create_it_asid_pool+0x55c>
e0002350:	e3c33fff 	bic	r3, r3, #1020	; 0x3fc
e0002354:	e3c33003 	bic	r3, r3, #3
e0002358:	ea000005 	b	e0002374 <create_it_asid_pool+0x55c>
e000235c:	e3c33dff 	bic	r3, r3, #16320	; 0x3fc0
e0002360:	e3c3303f 	bic	r3, r3, #63	; 0x3f
e0002364:	ea000002 	b	e0002374 <create_it_asid_pool+0x55c>
e0002368:	e3c3300f 	bic	r3, r3, #15
e000236c:	ea000000 	b	e0002374 <create_it_asid_pool+0x55c>
e0002370:	e3a03000 	mov	r3, #0
e0002374:	e3a0200b 	mov	r2, #11
e0002378:	e5832050 	str	r2, [r3, #80]	; 0x50
e000237c:	e3a02000 	mov	r2, #0
e0002380:	e5832054 	str	r2, [r3, #84]	; 0x54
e0002384:	e5832058 	str	r2, [r3, #88]	; 0x58
e0002388:	e3a01003 	mov	r1, #3
e000238c:	e583105c 	str	r1, [r3, #92]	; 0x5c
e0002390:	e5854000 	str	r4, [r5]
e0002394:	e5852004 	str	r2, [r5, #4]
e0002398:	eafffeaa 	b	e0001e48 <create_it_asid_pool+0x30>
e000239c:	e3a03000 	mov	r3, #0
e00023a0:	eafffff3 	b	e0002374 <create_it_asid_pool+0x55c>
e00023a4:	e3a02000 	mov	r2, #0
e00023a8:	e5824060 	str	r4, [r2, #96]	; 0x60
e00023ac:	e5822064 	str	r2, [r2, #100]	; 0x64
e00023b0:	e5822068 	str	r2, [r2, #104]	; 0x68
e00023b4:	e3a01003 	mov	r1, #3
e00023b8:	e582106c 	str	r1, [r2, #108]	; 0x6c
e00023bc:	e6ef1073 	uxtb	r1, r3
e00023c0:	eaffff3b 	b	e00020b4 <create_it_asid_pool+0x29c>
e00023c4:	e3a02000 	mov	r2, #0
e00023c8:	e5824060 	str	r4, [r2, #96]	; 0x60
e00023cc:	e5822064 	str	r2, [r2, #100]	; 0x64
e00023d0:	e5822068 	str	r2, [r2, #104]	; 0x68
e00023d4:	e3a01003 	mov	r1, #3
e00023d8:	e582106c 	str	r1, [r2, #108]	; 0x6c
e00023dc:	eaffff33 	b	e00020b0 <create_it_asid_pool+0x298>

e00023e0 <create_idle_thread>:
e00023e0:	e92d4010 	push	{r4, lr}
e00023e4:	e3a00009 	mov	r0, #9
e00023e8:	ebfffa01 	bl	e0000bf4 <alloc_region>
e00023ec:	e2504000 	subs	r4, r0, #0
e00023f0:	1a000001 	bne	e00023fc <create_idle_thread+0x1c>
e00023f4:	e3a00000 	mov	r0, #0
e00023f8:	e8bd8010 	pop	{r4, pc}
e00023fc:	e3a01c02 	mov	r1, #512	; 0x200
e0002400:	e1a00004 	mov	r0, r4
e0002404:	eb005c0c 	bl	e001943c <memzero>
e0002408:	e2840c01 	add	r0, r4, #256	; 0x100
e000240c:	e3093020 	movw	r3, #36896	; 0x9020
e0002410:	e34e3002 	movt	r3, #57346	; 0xe002
e0002414:	e5830000 	str	r0, [r3]
e0002418:	ebfffd11 	bl	e0001864 <configureIdleThread>
e000241c:	e3a00001 	mov	r0, #1
e0002420:	e8bd8010 	pop	{r4, pc}

e0002424 <create_initial_thread>:
e0002424:	e92d47f0 	push	{r4, r5, r6, r7, r8, r9, sl, lr}
e0002428:	e24dd020 	sub	sp, sp, #32
e000242c:	e28dc008 	add	ip, sp, #8
e0002430:	e88c0003 	stm	ip, {r0, r1}
e0002434:	e1a0100d 	mov	r1, sp
e0002438:	e881000c 	stm	r1, {r2, r3}
e000243c:	e59da048 	ldr	sl, [sp, #72]	; 0x48
e0002440:	e3a00009 	mov	r0, #9
e0002444:	ebfff9ea 	bl	e0000bf4 <alloc_region>
e0002448:	e2506000 	subs	r6, r0, #0
e000244c:	03a07000 	moveq	r7, #0
e0002450:	0a0002f9 	beq	e000303c <create_initial_thread+0xc18>
e0002454:	e3a01c02 	mov	r1, #512	; 0x200
e0002458:	e1a00006 	mov	r0, r6
e000245c:	eb005bf6 	bl	e001943c <memzero>
e0002460:	e2865c01 	add	r5, r6, #256	; 0x100
e0002464:	e1a07005 	mov	r7, r5
e0002468:	e3a03005 	mov	r3, #5
e000246c:	e585307c 	str	r3, [r5, #124]	; 0x7c
e0002470:	e3a03e15 	mov	r3, #336	; 0x150
e0002474:	e5853040 	str	r3, [r5, #64]	; 0x40
e0002478:	e59d4008 	ldr	r4, [sp, #8]
e000247c:	e59d800c 	ldr	r8, [sp, #12]
e0002480:	e204900e 	and	r9, r4, #14
e0002484:	e359000e 	cmp	r9, #14
e0002488:	1204200f 	andne	r2, r4, #15
e000248c:	06ef2074 	uxtbeq	r2, r4
e0002490:	e2423002 	sub	r3, r2, #2
e0002494:	e353003c 	cmp	r3, #60	; 0x3c
e0002498:	979ff103 	ldrls	pc, [pc, r3, lsl #2]
e000249c:	ea000050 	b	e00025e4 <create_initial_thread+0x1c0>
e00024a0:	e0002594 	.word	0xe0002594
e00024a4:	e00025e4 	.word	0xe00025e4
e00024a8:	e000259c 	.word	0xe000259c
e00024ac:	e00025e4 	.word	0xe00025e4
e00024b0:	e00025a4 	.word	0xe00025a4
e00024b4:	e00025e4 	.word	0xe00025e4
e00024b8:	e0002670 	.word	0xe0002670
e00024bc:	e00025e4 	.word	0xe00025e4
e00024c0:	e00025ac 	.word	0xe00025ac
e00024c4:	e00025e4 	.word	0xe00025e4
e00024c8:	e00025b4 	.word	0xe00025b4
e00024cc:	e00025e4 	.word	0xe00025e4
e00024d0:	e0002670 	.word	0xe0002670
e00024d4:	e00025e4 	.word	0xe00025e4
e00024d8:	e00025e4 	.word	0xe00025e4
e00024dc:	e00025e4 	.word	0xe00025e4
e00024e0:	e00025e4 	.word	0xe00025e4
e00024e4:	e00025e4 	.word	0xe00025e4
e00024e8:	e00025e4 	.word	0xe00025e4
e00024ec:	e00025e4 	.word	0xe00025e4
e00024f0:	e00025e4 	.word	0xe00025e4
e00024f4:	e00025e4 	.word	0xe00025e4
e00024f8:	e00025e4 	.word	0xe00025e4
e00024fc:	e00025e4 	.word	0xe00025e4
e0002500:	e00025e4 	.word	0xe00025e4
e0002504:	e00025e4 	.word	0xe00025e4
e0002508:	e00025e4 	.word	0xe00025e4
e000250c:	e00025e4 	.word	0xe00025e4
e0002510:	e0002670 	.word	0xe0002670
e0002514:	e00025e4 	.word	0xe00025e4
e0002518:	e00025e4 	.word	0xe00025e4
e000251c:	e00025e4 	.word	0xe00025e4
e0002520:	e00025e4 	.word	0xe00025e4
e0002524:	e00025e4 	.word	0xe00025e4
e0002528:	e00025e4 	.word	0xe00025e4
e000252c:	e00025e4 	.word	0xe00025e4
e0002530:	e00025e4 	.word	0xe00025e4
e0002534:	e00025e4 	.word	0xe00025e4
e0002538:	e00025e4 	.word	0xe00025e4
e000253c:	e00025e4 	.word	0xe00025e4
e0002540:	e00025e4 	.word	0xe00025e4
e0002544:	e00025e4 	.word	0xe00025e4
e0002548:	e00025e4 	.word	0xe00025e4
e000254c:	e00025e4 	.word	0xe00025e4
e0002550:	e00025c0 	.word	0xe00025c0
e0002554:	e00025e4 	.word	0xe00025e4
e0002558:	e00025e4 	.word	0xe00025e4
e000255c:	e00025e4 	.word	0xe00025e4
e0002560:	e00025e4 	.word	0xe00025e4
e0002564:	e00025e4 	.word	0xe00025e4
e0002568:	e00025e4 	.word	0xe00025e4
e000256c:	e00025e4 	.word	0xe00025e4
e0002570:	e00025e4 	.word	0xe00025e4
e0002574:	e00025e4 	.word	0xe00025e4
e0002578:	e00025e4 	.word	0xe00025e4
e000257c:	e00025e4 	.word	0xe00025e4
e0002580:	e00025e4 	.word	0xe00025e4
e0002584:	e00025e4 	.word	0xe00025e4
e0002588:	e00025e4 	.word	0xe00025e4
e000258c:	e00025e4 	.word	0xe00025e4
e0002590:	e0002670 	.word	0xe0002670
e0002594:	e3c4100f 	bic	r1, r4, #15
e0002598:	ea000035 	b	e0002674 <create_initial_thread+0x250>
e000259c:	e3c8100f 	bic	r1, r8, #15
e00025a0:	ea000033 	b	e0002674 <create_initial_thread+0x250>
e00025a4:	e3c4100f 	bic	r1, r4, #15
e00025a8:	ea000031 	b	e0002674 <create_initial_thread+0x250>
e00025ac:	e3c4101f 	bic	r1, r4, #31
e00025b0:	ea00002f 	b	e0002674 <create_initial_thread+0x250>
e00025b4:	e3c41f7f 	bic	r1, r4, #508	; 0x1fc
e00025b8:	e3c11003 	bic	r1, r1, #3
e00025bc:	ea00002c 	b	e0002674 <create_initial_thread+0x250>
e00025c0:	e1a01424 	lsr	r1, r4, #8
e00025c4:	e201303f 	and	r3, r1, #63	; 0x3f
e00025c8:	e3530020 	cmp	r3, #32
e00025cc:	1201101f 	andne	r1, r1, #31
e00025d0:	03a01004 	moveq	r1, #4
e00025d4:	e2813001 	add	r3, r1, #1
e00025d8:	e3e01000 	mvn	r1, #0
e00025dc:	e0081311 	and	r1, r8, r1, lsl r3
e00025e0:	ea000023 	b	e0002674 <create_initial_thread+0x250>
e00025e4:	e2423001 	sub	r3, r2, #1
e00025e8:	e3530008 	cmp	r3, #8
e00025ec:	979ff103 	ldrls	pc, [pc, r3, lsl #2]
e00025f0:	ea00006c 	b	e00027a8 <create_initial_thread+0x384>
e00025f4:	e0002618 	.word	0xe0002618
e00025f8:	e00027a8 	.word	0xe00027a8
e00025fc:	e0002618 	.word	0xe0002618
e0002600:	e00027a8 	.word	0xe00027a8
e0002604:	e0002668 	.word	0xe0002668
e0002608:	e00027a8 	.word	0xe00027a8
e000260c:	e0002650 	.word	0xe0002650
e0002610:	e00027a8 	.word	0xe00027a8
e0002614:	e000265c 	.word	0xe000265c
e0002618:	e3520001 	cmp	r2, #1
e000261c:	0a000003 	beq	e0002630 <create_initial_thread+0x20c>
e0002620:	e3520003 	cmp	r2, #3
e0002624:	0a000005 	beq	e0002640 <create_initial_thread+0x21c>
e0002628:	e3a01000 	mov	r1, #0
e000262c:	ea000010 	b	e0002674 <create_initial_thread+0x250>
e0002630:	e1a01404 	lsl	r1, r4, #8
e0002634:	e3c11eff 	bic	r1, r1, #4080	; 0xff0
e0002638:	e3c1100f 	bic	r1, r1, #15
e000263c:	ea00000c 	b	e0002674 <create_initial_thread+0x250>
e0002640:	e1a01504 	lsl	r1, r4, #10
e0002644:	e3c11dff 	bic	r1, r1, #16320	; 0x3fc0
e0002648:	e3c1103f 	bic	r1, r1, #63	; 0x3f
e000264c:	ea000008 	b	e0002674 <create_initial_thread+0x250>
e0002650:	e3c41fff 	bic	r1, r4, #1020	; 0x3fc
e0002654:	e3c11003 	bic	r1, r1, #3
e0002658:	ea000005 	b	e0002674 <create_initial_thread+0x250>
e000265c:	e3c41dff 	bic	r1, r4, #16320	; 0x3fc0
e0002660:	e3c1103f 	bic	r1, r1, #63	; 0x3f
e0002664:	ea000002 	b	e0002674 <create_initial_thread+0x250>
e0002668:	e3c4100f 	bic	r1, r4, #15
e000266c:	ea000000 	b	e0002674 <create_initial_thread+0x250>
e0002670:	e3a01000 	mov	r1, #0
e0002674:	e28d304c 	add	r3, sp, #76	; 0x4c
e0002678:	e893000c 	ldm	r3, {r2, r3}
e000267c:	e28110a0 	add	r1, r1, #160	; 0xa0
e0002680:	e28d0014 	add	r0, sp, #20
e0002684:	eb0047a2 	bl	e0014514 <deriveCap>
e0002688:	e59d3014 	ldr	r3, [sp, #20]
e000268c:	e3530000 	cmp	r3, #0
e0002690:	13a07000 	movne	r7, #0
e0002694:	1a000268 	bne	e000303c <create_initial_thread+0xc18>
e0002698:	e359000e 	cmp	r9, #14
e000269c:	0a000043 	beq	e00027b0 <create_initial_thread+0x38c>
e00026a0:	e204300f 	and	r3, r4, #15
e00026a4:	e2432002 	sub	r2, r3, #2
e00026a8:	e352003c 	cmp	r2, #60	; 0x3c
e00026ac:	979ff102 	ldrls	pc, [pc, r2, lsl #2]
e00026b0:	ea0000dc 	b	e0002a28 <create_initial_thread+0x604>
e00026b4:	e00028b8 	.word	0xe00028b8
e00026b8:	e0002a28 	.word	0xe0002a28
e00026bc:	e00029e0 	.word	0xe00029e0
e00026c0:	e0002a28 	.word	0xe0002a28
e00026c4:	e00029e8 	.word	0xe00029e8
e00026c8:	e0002a28 	.word	0xe0002a28
e00026cc:	e0003050 	.word	0xe0003050
e00026d0:	e0002a28 	.word	0xe0002a28
e00026d4:	e00029f0 	.word	0xe00029f0
e00026d8:	e0002a28 	.word	0xe0002a28
e00026dc:	e00029f8 	.word	0xe00029f8
e00026e0:	e0002a28 	.word	0xe0002a28
e00026e4:	e0003050 	.word	0xe0003050
e00026e8:	e0002a28 	.word	0xe0002a28
e00026ec:	e0002a28 	.word	0xe0002a28
e00026f0:	e0002a28 	.word	0xe0002a28
e00026f4:	e0002a28 	.word	0xe0002a28
e00026f8:	e0002a28 	.word	0xe0002a28
e00026fc:	e0002a28 	.word	0xe0002a28
e0002700:	e0002a28 	.word	0xe0002a28
e0002704:	e0002a28 	.word	0xe0002a28
e0002708:	e0002a28 	.word	0xe0002a28
e000270c:	e0002a28 	.word	0xe0002a28
e0002710:	e0002a28 	.word	0xe0002a28
e0002714:	e0002a28 	.word	0xe0002a28
e0002718:	e0002a28 	.word	0xe0002a28
e000271c:	e0002a28 	.word	0xe0002a28
e0002720:	e0002a28 	.word	0xe0002a28
e0002724:	e0003050 	.word	0xe0003050
e0002728:	e0002a28 	.word	0xe0002a28
e000272c:	e0002a28 	.word	0xe0002a28
e0002730:	e0002a28 	.word	0xe0002a28
e0002734:	e0002a28 	.word	0xe0002a28
e0002738:	e0002a28 	.word	0xe0002a28
e000273c:	e0002a28 	.word	0xe0002a28
e0002740:	e0002a28 	.word	0xe0002a28
e0002744:	e0002a28 	.word	0xe0002a28
e0002748:	e0002a28 	.word	0xe0002a28
e000274c:	e0002a28 	.word	0xe0002a28
e0002750:	e0002a28 	.word	0xe0002a28
e0002754:	e0002a28 	.word	0xe0002a28
e0002758:	e0002a28 	.word	0xe0002a28
e000275c:	e0002a28 	.word	0xe0002a28
e0002760:	e0002a28 	.word	0xe0002a28
e0002764:	e0002a04 	.word	0xe0002a04
e0002768:	e0002a28 	.word	0xe0002a28
e000276c:	e0002a28 	.word	0xe0002a28
e0002770:	e0002a28 	.word	0xe0002a28
e0002774:	e0002a28 	.word	0xe0002a28
e0002778:	e0002a28 	.word	0xe0002a28
e000277c:	e0002a28 	.word	0xe0002a28
e0002780:	e0002a28 	.word	0xe0002a28
e0002784:	e0002a28 	.word	0xe0002a28
e0002788:	e0002a28 	.word	0xe0002a28
e000278c:	e0002a28 	.word	0xe0002a28
e0002790:	e0002a28 	.word	0xe0002a28
e0002794:	e0002a28 	.word	0xe0002a28
e0002798:	e0002a28 	.word	0xe0002a28
e000279c:	e0002a28 	.word	0xe0002a28
e00027a0:	e0002a28 	.word	0xe0002a28
e00027a4:	e0003050 	.word	0xe0003050
e00027a8:	e3a01000 	mov	r1, #0
e00027ac:	eaffffb0 	b	e0002674 <create_initial_thread+0x250>
e00027b0:	e6ef3074 	uxtb	r3, r4
e00027b4:	e2432002 	sub	r2, r3, #2
e00027b8:	e352003c 	cmp	r2, #60	; 0x3c
e00027bc:	979ff102 	ldrls	pc, [pc, r2, lsl #2]
e00027c0:	ea000098 	b	e0002a28 <create_initial_thread+0x604>
e00027c4:	e00028b8 	.word	0xe00028b8
e00027c8:	e0002a28 	.word	0xe0002a28
e00027cc:	e00029e0 	.word	0xe00029e0
e00027d0:	e0002a28 	.word	0xe0002a28
e00027d4:	e00029e8 	.word	0xe00029e8
e00027d8:	e0002a28 	.word	0xe0002a28
e00027dc:	e0003068 	.word	0xe0003068
e00027e0:	e0002a28 	.word	0xe0002a28
e00027e4:	e00029f0 	.word	0xe00029f0
e00027e8:	e0002a28 	.word	0xe0002a28
e00027ec:	e00029f8 	.word	0xe00029f8
e00027f0:	e0002a28 	.word	0xe0002a28
e00027f4:	e0003068 	.word	0xe0003068
e00027f8:	e0002a28 	.word	0xe0002a28
e00027fc:	e0002a28 	.word	0xe0002a28
e0002800:	e0002a28 	.word	0xe0002a28
e0002804:	e0002a28 	.word	0xe0002a28
e0002808:	e0002a28 	.word	0xe0002a28
e000280c:	e0002a28 	.word	0xe0002a28
e0002810:	e0002a28 	.word	0xe0002a28
e0002814:	e0002a28 	.word	0xe0002a28
e0002818:	e0002a28 	.word	0xe0002a28
e000281c:	e0002a28 	.word	0xe0002a28
e0002820:	e0002a28 	.word	0xe0002a28
e0002824:	e0002a28 	.word	0xe0002a28
e0002828:	e0002a28 	.word	0xe0002a28
e000282c:	e0002a28 	.word	0xe0002a28
e0002830:	e0002a28 	.word	0xe0002a28
e0002834:	e0003068 	.word	0xe0003068
e0002838:	e0002a28 	.word	0xe0002a28
e000283c:	e0002a28 	.word	0xe0002a28
e0002840:	e0002a28 	.word	0xe0002a28
e0002844:	e0002a28 	.word	0xe0002a28
e0002848:	e0002a28 	.word	0xe0002a28
e000284c:	e0002a28 	.word	0xe0002a28
e0002850:	e0002a28 	.word	0xe0002a28
e0002854:	e0002a28 	.word	0xe0002a28
e0002858:	e0002a28 	.word	0xe0002a28
e000285c:	e0002a28 	.word	0xe0002a28
e0002860:	e0002a28 	.word	0xe0002a28
e0002864:	e0002a28 	.word	0xe0002a28
e0002868:	e0002a28 	.word	0xe0002a28
e000286c:	e0002a28 	.word	0xe0002a28
e0002870:	e0002a28 	.word	0xe0002a28
e0002874:	e0002a04 	.word	0xe0002a04
e0002878:	e0002a28 	.word	0xe0002a28
e000287c:	e0002a28 	.word	0xe0002a28
e0002880:	e0002a28 	.word	0xe0002a28
e0002884:	e0002a28 	.word	0xe0002a28
e0002888:	e0002a28 	.word	0xe0002a28
e000288c:	e0002a28 	.word	0xe0002a28
e0002890:	e0002a28 	.word	0xe0002a28
e0002894:	e0002a28 	.word	0xe0002a28
e0002898:	e0002a28 	.word	0xe0002a28
e000289c:	e0002a28 	.word	0xe0002a28
e00028a0:	e0002a28 	.word	0xe0002a28
e00028a4:	e0002a28 	.word	0xe0002a28
e00028a8:	e0002a28 	.word	0xe0002a28
e00028ac:	e0002a28 	.word	0xe0002a28
e00028b0:	e0002a28 	.word	0xe0002a28
e00028b4:	e0003068 	.word	0xe0003068
e00028b8:	e3c4200f 	bic	r2, r4, #15
e00028bc:	e1a03006 	mov	r3, r6
e00028c0:	e2822020 	add	r2, r2, #32
e00028c4:	e28d1008 	add	r1, sp, #8
e00028c8:	e8910003 	ldm	r1, {r0, r1}
e00028cc:	eb004242 	bl	e00131dc <cteInsert>
e00028d0:	e359000e 	cmp	r9, #14
e00028d4:	0a0001e8 	beq	e000307c <create_initial_thread+0xc58>
e00028d8:	e204300f 	and	r3, r4, #15
e00028dc:	e2432002 	sub	r2, r3, #2
e00028e0:	e352003c 	cmp	r2, #60	; 0x3c
e00028e4:	979ff102 	ldrls	pc, [pc, r2, lsl #2]
e00028e8:	ea0000cf 	b	e0002c2c <create_initial_thread+0x808>
e00028ec:	e0002abc 	.word	0xe0002abc
e00028f0:	e0002c2c 	.word	0xe0002c2c
e00028f4:	e0002be4 	.word	0xe0002be4
e00028f8:	e0002c2c 	.word	0xe0002c2c
e00028fc:	e0002bec 	.word	0xe0002bec
e0002900:	e0002c2c 	.word	0xe0002c2c
e0002904:	e0003184 	.word	0xe0003184
e0002908:	e0002c2c 	.word	0xe0002c2c
e000290c:	e0002bf4 	.word	0xe0002bf4
e0002910:	e0002c2c 	.word	0xe0002c2c
e0002914:	e0002bfc 	.word	0xe0002bfc
e0002918:	e0002c2c 	.word	0xe0002c2c
e000291c:	e0003184 	.word	0xe0003184
e0002920:	e0002c2c 	.word	0xe0002c2c
e0002924:	e0002c2c 	.word	0xe0002c2c
e0002928:	e0002c2c 	.word	0xe0002c2c
e000292c:	e0002c2c 	.word	0xe0002c2c
e0002930:	e0002c2c 	.word	0xe0002c2c
e0002934:	e0002c2c 	.word	0xe0002c2c
e0002938:	e0002c2c 	.word	0xe0002c2c
e000293c:	e0002c2c 	.word	0xe0002c2c
e0002940:	e0002c2c 	.word	0xe0002c2c
e0002944:	e0002c2c 	.word	0xe0002c2c
e0002948:	e0002c2c 	.word	0xe0002c2c
e000294c:	e0002c2c 	.word	0xe0002c2c
e0002950:	e0002c2c 	.word	0xe0002c2c
e0002954:	e0002c2c 	.word	0xe0002c2c
e0002958:	e0002c2c 	.word	0xe0002c2c
e000295c:	e0003184 	.word	0xe0003184
e0002960:	e0002c2c 	.word	0xe0002c2c
e0002964:	e0002c2c 	.word	0xe0002c2c
e0002968:	e0002c2c 	.word	0xe0002c2c
e000296c:	e0002c2c 	.word	0xe0002c2c
e0002970:	e0002c2c 	.word	0xe0002c2c
e0002974:	e0002c2c 	.word	0xe0002c2c
e0002978:	e0002c2c 	.word	0xe0002c2c
e000297c:	e0002c2c 	.word	0xe0002c2c
e0002980:	e0002c2c 	.word	0xe0002c2c
e0002984:	e0002c2c 	.word	0xe0002c2c
e0002988:	e0002c2c 	.word	0xe0002c2c
e000298c:	e0002c2c 	.word	0xe0002c2c
e0002990:	e0002c2c 	.word	0xe0002c2c
e0002994:	e0002c2c 	.word	0xe0002c2c
e0002998:	e0002c2c 	.word	0xe0002c2c
e000299c:	e0002c08 	.word	0xe0002c08
e00029a0:	e0002c2c 	.word	0xe0002c2c
e00029a4:	e0002c2c 	.word	0xe0002c2c
e00029a8:	e0002c2c 	.word	0xe0002c2c
e00029ac:	e0002c2c 	.word	0xe0002c2c
e00029b0:	e0002c2c 	.word	0xe0002c2c
e00029b4:	e0002c2c 	.word	0xe0002c2c
e00029b8:	e0002c2c 	.word	0xe0002c2c
e00029bc:	e0002c2c 	.word	0xe0002c2c
e00029c0:	e0002c2c 	.word	0xe0002c2c
e00029c4:	e0002c2c 	.word	0xe0002c2c
e00029c8:	e0002c2c 	.word	0xe0002c2c
e00029cc:	e0002c2c 	.word	0xe0002c2c
e00029d0:	e0002c2c 	.word	0xe0002c2c
e00029d4:	e0002c2c 	.word	0xe0002c2c
e00029d8:	e0002c2c 	.word	0xe0002c2c
e00029dc:	e0003184 	.word	0xe0003184
e00029e0:	e3c8200f 	bic	r2, r8, #15
e00029e4:	eaffffb4 	b	e00028bc <create_initial_thread+0x498>
e00029e8:	e3c4200f 	bic	r2, r4, #15
e00029ec:	eaffffb2 	b	e00028bc <create_initial_thread+0x498>
e00029f0:	e3c4201f 	bic	r2, r4, #31
e00029f4:	eaffffb0 	b	e00028bc <create_initial_thread+0x498>
e00029f8:	e3c42f7f 	bic	r2, r4, #508	; 0x1fc
e00029fc:	e3c22003 	bic	r2, r2, #3
e0002a00:	eaffffad 	b	e00028bc <create_initial_thread+0x498>
e0002a04:	e1a03424 	lsr	r3, r4, #8
e0002a08:	e203203f 	and	r2, r3, #63	; 0x3f
e0002a0c:	e3520020 	cmp	r2, #32
e0002a10:	1203301f 	andne	r3, r3, #31
e0002a14:	03a03004 	moveq	r3, #4
e0002a18:	e2833001 	add	r3, r3, #1
e0002a1c:	e3e02000 	mvn	r2, #0
e0002a20:	e0082312 	and	r2, r8, r2, lsl r3
e0002a24:	eaffffa4 	b	e00028bc <create_initial_thread+0x498>
e0002a28:	e2432001 	sub	r2, r3, #1
e0002a2c:	e3520008 	cmp	r2, #8
e0002a30:	979ff102 	ldrls	pc, [pc, r2, lsl #2]
e0002a34:	ea00001e 	b	e0002ab4 <create_initial_thread+0x690>
e0002a38:	e0002a5c 	.word	0xe0002a5c
e0002a3c:	e0002ab4 	.word	0xe0002ab4
e0002a40:	e0002a5c 	.word	0xe0002a5c
e0002a44:	e0002ab4 	.word	0xe0002ab4
e0002a48:	e0002aac 	.word	0xe0002aac
e0002a4c:	e0002ab4 	.word	0xe0002ab4
e0002a50:	e0002a94 	.word	0xe0002a94
e0002a54:	e0002ab4 	.word	0xe0002ab4
e0002a58:	e0002aa0 	.word	0xe0002aa0
e0002a5c:	e3530001 	cmp	r3, #1
e0002a60:	0a000003 	beq	e0002a74 <create_initial_thread+0x650>
e0002a64:	e3530003 	cmp	r3, #3
e0002a68:	0a000005 	beq	e0002a84 <create_initial_thread+0x660>
e0002a6c:	e3a02000 	mov	r2, #0
e0002a70:	eaffff91 	b	e00028bc <create_initial_thread+0x498>
e0002a74:	e1a02404 	lsl	r2, r4, #8
e0002a78:	e3c22eff 	bic	r2, r2, #4080	; 0xff0
e0002a7c:	e3c2200f 	bic	r2, r2, #15
e0002a80:	eaffff8d 	b	e00028bc <create_initial_thread+0x498>
e0002a84:	e1a02504 	lsl	r2, r4, #10
e0002a88:	e3c22dff 	bic	r2, r2, #16320	; 0x3fc0
e0002a8c:	e3c2203f 	bic	r2, r2, #63	; 0x3f
e0002a90:	eaffff89 	b	e00028bc <create_initial_thread+0x498>
e0002a94:	e3c42fff 	bic	r2, r4, #1020	; 0x3fc
e0002a98:	e3c22003 	bic	r2, r2, #3
e0002a9c:	eaffff86 	b	e00028bc <create_initial_thread+0x498>
e0002aa0:	e3c42dff 	bic	r2, r4, #16320	; 0x3fc0
e0002aa4:	e3c2203f 	bic	r2, r2, #63	; 0x3f
e0002aa8:	eaffff83 	b	e00028bc <create_initial_thread+0x498>
e0002aac:	e3c4200f 	bic	r2, r4, #15
e0002ab0:	eaffff81 	b	e00028bc <create_initial_thread+0x498>
e0002ab4:	e3a02000 	mov	r2, #0
e0002ab8:	eaffff7f 	b	e00028bc <create_initial_thread+0x498>
e0002abc:	e3c4200f 	bic	r2, r4, #15
e0002ac0:	e2863010 	add	r3, r6, #16
e0002ac4:	e2822030 	add	r2, r2, #48	; 0x30
e0002ac8:	e1a0100d 	mov	r1, sp
e0002acc:	e8910003 	ldm	r1, {r0, r1}
e0002ad0:	eb0041c1 	bl	e00131dc <cteInsert>
e0002ad4:	e359000e 	cmp	r9, #14
e0002ad8:	0a0001b4 	beq	e00031b0 <create_initial_thread+0xd8c>
e0002adc:	e204200f 	and	r2, r4, #15
e0002ae0:	e2423002 	sub	r3, r2, #2
e0002ae4:	e353003c 	cmp	r3, #60	; 0x3c
e0002ae8:	979ff103 	ldrls	pc, [pc, r3, lsl #2]
e0002aec:	ea000087 	b	e0002d10 <create_initial_thread+0x8ec>
e0002af0:	e0002cc0 	.word	0xe0002cc0
e0002af4:	e0002d10 	.word	0xe0002d10
e0002af8:	e0002cc8 	.word	0xe0002cc8
e0002afc:	e0002d10 	.word	0xe0002d10
e0002b00:	e0002cd0 	.word	0xe0002cd0
e0002b04:	e0002d10 	.word	0xe0002d10
e0002b08:	e0002d9c 	.word	0xe0002d9c
e0002b0c:	e0002d10 	.word	0xe0002d10
e0002b10:	e0002cd8 	.word	0xe0002cd8
e0002b14:	e0002d10 	.word	0xe0002d10
e0002b18:	e0002ce0 	.word	0xe0002ce0
e0002b1c:	e0002d10 	.word	0xe0002d10
e0002b20:	e0002d9c 	.word	0xe0002d9c
e0002b24:	e0002d10 	.word	0xe0002d10
e0002b28:	e0002d10 	.word	0xe0002d10
e0002b2c:	e0002d10 	.word	0xe0002d10
e0002b30:	e0002d10 	.word	0xe0002d10
e0002b34:	e0002d10 	.word	0xe0002d10
e0002b38:	e0002d10 	.word	0xe0002d10
e0002b3c:	e0002d10 	.word	0xe0002d10
e0002b40:	e0002d10 	.word	0xe0002d10
e0002b44:	e0002d10 	.word	0xe0002d10
e0002b48:	e0002d10 	.word	0xe0002d10
e0002b4c:	e0002d10 	.word	0xe0002d10
e0002b50:	e0002d10 	.word	0xe0002d10
e0002b54:	e0002d10 	.word	0xe0002d10
e0002b58:	e0002d10 	.word	0xe0002d10
e0002b5c:	e0002d10 	.word	0xe0002d10
e0002b60:	e0002d9c 	.word	0xe0002d9c
e0002b64:	e0002d10 	.word	0xe0002d10
e0002b68:	e0002d10 	.word	0xe0002d10
e0002b6c:	e0002d10 	.word	0xe0002d10
e0002b70:	e0002d10 	.word	0xe0002d10
e0002b74:	e0002d10 	.word	0xe0002d10
e0002b78:	e0002d10 	.word	0xe0002d10
e0002b7c:	e0002d10 	.word	0xe0002d10
e0002b80:	e0002d10 	.word	0xe0002d10
e0002b84:	e0002d10 	.word	0xe0002d10
e0002b88:	e0002d10 	.word	0xe0002d10
e0002b8c:	e0002d10 	.word	0xe0002d10
e0002b90:	e0002d10 	.word	0xe0002d10
e0002b94:	e0002d10 	.word	0xe0002d10
e0002b98:	e0002d10 	.word	0xe0002d10
e0002b9c:	e0002d10 	.word	0xe0002d10
e0002ba0:	e0002cec 	.word	0xe0002cec
e0002ba4:	e0002d10 	.word	0xe0002d10
e0002ba8:	e0002d10 	.word	0xe0002d10
e0002bac:	e0002d10 	.word	0xe0002d10
e0002bb0:	e0002d10 	.word	0xe0002d10
e0002bb4:	e0002d10 	.word	0xe0002d10
e0002bb8:	e0002d10 	.word	0xe0002d10
e0002bbc:	e0002d10 	.word	0xe0002d10
e0002bc0:	e0002d10 	.word	0xe0002d10
e0002bc4:	e0002d10 	.word	0xe0002d10
e0002bc8:	e0002d10 	.word	0xe0002d10
e0002bcc:	e0002d10 	.word	0xe0002d10
e0002bd0:	e0002d10 	.word	0xe0002d10
e0002bd4:	e0002d10 	.word	0xe0002d10
e0002bd8:	e0002d10 	.word	0xe0002d10
e0002bdc:	e0002d10 	.word	0xe0002d10
e0002be0:	e0002d9c 	.word	0xe0002d9c
e0002be4:	e3c8200f 	bic	r2, r8, #15
e0002be8:	eaffffb4 	b	e0002ac0 <create_initial_thread+0x69c>
e0002bec:	e3c4200f 	bic	r2, r4, #15
e0002bf0:	eaffffb2 	b	e0002ac0 <create_initial_thread+0x69c>
e0002bf4:	e3c4201f 	bic	r2, r4, #31
e0002bf8:	eaffffb0 	b	e0002ac0 <create_initial_thread+0x69c>
e0002bfc:	e3c42f7f 	bic	r2, r4, #508	; 0x1fc
e0002c00:	e3c22003 	bic	r2, r2, #3
e0002c04:	eaffffad 	b	e0002ac0 <create_initial_thread+0x69c>
e0002c08:	e1a03424 	lsr	r3, r4, #8
e0002c0c:	e203203f 	and	r2, r3, #63	; 0x3f
e0002c10:	e3520020 	cmp	r2, #32
e0002c14:	1203301f 	andne	r3, r3, #31
e0002c18:	03a03004 	moveq	r3, #4
e0002c1c:	e2833001 	add	r3, r3, #1
e0002c20:	e3e02000 	mvn	r2, #0
e0002c24:	e0082312 	and	r2, r8, r2, lsl r3
e0002c28:	eaffffa4 	b	e0002ac0 <create_initial_thread+0x69c>
e0002c2c:	e2432001 	sub	r2, r3, #1
e0002c30:	e3520008 	cmp	r2, #8
e0002c34:	979ff102 	ldrls	pc, [pc, r2, lsl #2]
e0002c38:	ea00001e 	b	e0002cb8 <create_initial_thread+0x894>
e0002c3c:	e0002c60 	.word	0xe0002c60
e0002c40:	e0002cb8 	.word	0xe0002cb8
e0002c44:	e0002c60 	.word	0xe0002c60
e0002c48:	e0002cb8 	.word	0xe0002cb8
e0002c4c:	e0002cb0 	.word	0xe0002cb0
e0002c50:	e0002cb8 	.word	0xe0002cb8
e0002c54:	e0002c98 	.word	0xe0002c98
e0002c58:	e0002cb8 	.word	0xe0002cb8
e0002c5c:	e0002ca4 	.word	0xe0002ca4
e0002c60:	e3530001 	cmp	r3, #1
e0002c64:	0a000003 	beq	e0002c78 <create_initial_thread+0x854>
e0002c68:	e3530003 	cmp	r3, #3
e0002c6c:	0a000005 	beq	e0002c88 <create_initial_thread+0x864>
e0002c70:	e3a02000 	mov	r2, #0
e0002c74:	eaffff91 	b	e0002ac0 <create_initial_thread+0x69c>
e0002c78:	e1a02404 	lsl	r2, r4, #8
e0002c7c:	e3c22eff 	bic	r2, r2, #4080	; 0xff0
e0002c80:	e3c2200f 	bic	r2, r2, #15
e0002c84:	eaffff8d 	b	e0002ac0 <create_initial_thread+0x69c>
e0002c88:	e1a02504 	lsl	r2, r4, #10
e0002c8c:	e3c22dff 	bic	r2, r2, #16320	; 0x3fc0
e0002c90:	e3c2203f 	bic	r2, r2, #63	; 0x3f
e0002c94:	eaffff89 	b	e0002ac0 <create_initial_thread+0x69c>
e0002c98:	e3c42fff 	bic	r2, r4, #1020	; 0x3fc
e0002c9c:	e3c22003 	bic	r2, r2, #3
e0002ca0:	eaffff86 	b	e0002ac0 <create_initial_thread+0x69c>
e0002ca4:	e3c42dff 	bic	r2, r4, #16320	; 0x3fc0
e0002ca8:	e3c2203f 	bic	r2, r2, #63	; 0x3f
e0002cac:	eaffff83 	b	e0002ac0 <create_initial_thread+0x69c>
e0002cb0:	e3c4200f 	bic	r2, r4, #15
e0002cb4:	eaffff81 	b	e0002ac0 <create_initial_thread+0x69c>
e0002cb8:	e3a02000 	mov	r2, #0
e0002cbc:	eaffff7f 	b	e0002ac0 <create_initial_thread+0x69c>
e0002cc0:	e3c4200f 	bic	r2, r4, #15
e0002cc4:	ea000035 	b	e0002da0 <create_initial_thread+0x97c>
e0002cc8:	e3c8200f 	bic	r2, r8, #15
e0002ccc:	ea000033 	b	e0002da0 <create_initial_thread+0x97c>
e0002cd0:	e3c4200f 	bic	r2, r4, #15
e0002cd4:	ea000031 	b	e0002da0 <create_initial_thread+0x97c>
e0002cd8:	e3c4201f 	bic	r2, r4, #31
e0002cdc:	ea00002f 	b	e0002da0 <create_initial_thread+0x97c>
e0002ce0:	e3c42f7f 	bic	r2, r4, #508	; 0x1fc
e0002ce4:	e3c22003 	bic	r2, r2, #3
e0002ce8:	ea00002c 	b	e0002da0 <create_initial_thread+0x97c>
e0002cec:	e1a03424 	lsr	r3, r4, #8
e0002cf0:	e203203f 	and	r2, r3, #63	; 0x3f
e0002cf4:	e3520020 	cmp	r2, #32
e0002cf8:	1203301f 	andne	r3, r3, #31
e0002cfc:	03a03004 	moveq	r3, #4
e0002d00:	e2833001 	add	r3, r3, #1
e0002d04:	e3e02000 	mvn	r2, #0
e0002d08:	e0082312 	and	r2, r8, r2, lsl r3
e0002d0c:	ea000023 	b	e0002da0 <create_initial_thread+0x97c>
e0002d10:	e2423001 	sub	r3, r2, #1
e0002d14:	e3530008 	cmp	r3, #8
e0002d18:	979ff103 	ldrls	pc, [pc, r3, lsl #2]
e0002d1c:	ea000086 	b	e0002f3c <create_initial_thread+0xb18>
e0002d20:	e0002d44 	.word	0xe0002d44
e0002d24:	e0002f3c 	.word	0xe0002f3c
e0002d28:	e0002d44 	.word	0xe0002d44
e0002d2c:	e0002f3c 	.word	0xe0002f3c
e0002d30:	e0002d94 	.word	0xe0002d94
e0002d34:	e0002f3c 	.word	0xe0002f3c
e0002d38:	e0002d7c 	.word	0xe0002d7c
e0002d3c:	e0002f3c 	.word	0xe0002f3c
e0002d40:	e0002d88 	.word	0xe0002d88
e0002d44:	e3520001 	cmp	r2, #1
e0002d48:	0a000003 	beq	e0002d5c <create_initial_thread+0x938>
e0002d4c:	e3520003 	cmp	r2, #3
e0002d50:	0a000005 	beq	e0002d6c <create_initial_thread+0x948>
e0002d54:	e3a02000 	mov	r2, #0
e0002d58:	ea000010 	b	e0002da0 <create_initial_thread+0x97c>
e0002d5c:	e1a02404 	lsl	r2, r4, #8
e0002d60:	e3c22eff 	bic	r2, r2, #4080	; 0xff0
e0002d64:	e3c2200f 	bic	r2, r2, #15
e0002d68:	ea00000c 	b	e0002da0 <create_initial_thread+0x97c>
e0002d6c:	e1a02504 	lsl	r2, r4, #10
e0002d70:	e3c22dff 	bic	r2, r2, #16320	; 0x3fc0
e0002d74:	e3c2203f 	bic	r2, r2, #63	; 0x3f
e0002d78:	ea000008 	b	e0002da0 <create_initial_thread+0x97c>
e0002d7c:	e3c42fff 	bic	r2, r4, #1020	; 0x3fc
e0002d80:	e3c22003 	bic	r2, r2, #3
e0002d84:	ea000005 	b	e0002da0 <create_initial_thread+0x97c>
e0002d88:	e3c42dff 	bic	r2, r4, #16320	; 0x3fc0
e0002d8c:	e3c2203f 	bic	r2, r2, #63	; 0x3f
e0002d90:	ea000002 	b	e0002da0 <create_initial_thread+0x97c>
e0002d94:	e3c4200f 	bic	r2, r4, #15
e0002d98:	ea000000 	b	e0002da0 <create_initial_thread+0x97c>
e0002d9c:	e3a02000 	mov	r2, #0
e0002da0:	e2863040 	add	r3, r6, #64	; 0x40
e0002da4:	e28220a0 	add	r2, r2, #160	; 0xa0
e0002da8:	e28d1020 	add	r1, sp, #32
e0002dac:	e9110003 	ldmdb	r1, {r0, r1}
e0002db0:	eb004109 	bl	e00131dc <cteInsert>
e0002db4:	e585a084 	str	sl, [r5, #132]	; 0x84
e0002db8:	e585a04c 	str	sl, [r5, #76]	; 0x4c
e0002dbc:	e59d3044 	ldr	r3, [sp, #68]	; 0x44
e0002dc0:	e5863100 	str	r3, [r6, #256]	; 0x100
e0002dc4:	e59d3040 	ldr	r3, [sp, #64]	; 0x40
e0002dc8:	e585303c 	str	r3, [r5, #60]	; 0x3c
e0002dcc:	e3a030ff 	mov	r3, #255	; 0xff
e0002dd0:	e5853078 	str	r3, [r5, #120]	; 0x78
e0002dd4:	e5853074 	str	r3, [r5, #116]	; 0x74
e0002dd8:	e1a00005 	mov	r0, r5
e0002ddc:	eb004243 	bl	e00136f0 <setupReplyMaster>
e0002de0:	e3a01001 	mov	r1, #1
e0002de4:	e1a00005 	mov	r0, r5
e0002de8:	eb0047c6 	bl	e0014d08 <setThreadState>
e0002dec:	e3013b38 	movw	r3, #6968	; 0x1b38
e0002df0:	e34e3003 	movt	r3, #57347	; 0xe003
e0002df4:	e5931000 	ldr	r1, [r3]
e0002df8:	e30124e4 	movw	r2, #5348	; 0x14e4
e0002dfc:	e34e2003 	movt	r2, #57347	; 0xe003
e0002e00:	e30b3768 	movw	r3, #46952	; 0xb768
e0002e04:	e34e3001 	movt	r3, #57345	; 0xe001
e0002e08:	e0833181 	add	r3, r3, r1, lsl #3
e0002e0c:	e5931070 	ldr	r1, [r3, #112]	; 0x70
e0002e10:	e5821000 	str	r1, [r2]
e0002e14:	e30124dc 	movw	r2, #5340	; 0x14dc
e0002e18:	e34e2003 	movt	r2, #57347	; 0xe003
e0002e1c:	e5933074 	ldr	r3, [r3, #116]	; 0x74
e0002e20:	e5823000 	str	r3, [r2]
e0002e24:	e3c5500f 	bic	r5, r5, #15
e0002e28:	e385500c 	orr	r5, r5, #12
e0002e2c:	e359000e 	cmp	r9, #14
e0002e30:	1204200f 	andne	r2, r4, #15
e0002e34:	06ef2074 	uxtbeq	r2, r4
e0002e38:	e2423002 	sub	r3, r2, #2
e0002e3c:	e353003c 	cmp	r3, #60	; 0x3c
e0002e40:	979ff103 	ldrls	pc, [pc, r3, lsl #2]
e0002e44:	ea000052 	b	e0002f94 <create_initial_thread+0xb70>
e0002e48:	e0002f44 	.word	0xe0002f44
e0002e4c:	e0002f94 	.word	0xe0002f94
e0002e50:	e0002f4c 	.word	0xe0002f4c
e0002e54:	e0002f94 	.word	0xe0002f94
e0002e58:	e0002f54 	.word	0xe0002f54
e0002e5c:	e0002f94 	.word	0xe0002f94
e0002e60:	e0003020 	.word	0xe0003020
e0002e64:	e0002f94 	.word	0xe0002f94
e0002e68:	e0002f5c 	.word	0xe0002f5c
e0002e6c:	e0002f94 	.word	0xe0002f94
e0002e70:	e0002f64 	.word	0xe0002f64
e0002e74:	e0002f94 	.word	0xe0002f94
e0002e78:	e0003020 	.word	0xe0003020
e0002e7c:	e0002f94 	.word	0xe0002f94
e0002e80:	e0002f94 	.word	0xe0002f94
e0002e84:	e0002f94 	.word	0xe0002f94
e0002e88:	e0002f94 	.word	0xe0002f94
e0002e8c:	e0002f94 	.word	0xe0002f94
e0002e90:	e0002f94 	.word	0xe0002f94
e0002e94:	e0002f94 	.word	0xe0002f94
e0002e98:	e0002f94 	.word	0xe0002f94
e0002e9c:	e0002f94 	.word	0xe0002f94
e0002ea0:	e0002f94 	.word	0xe0002f94
e0002ea4:	e0002f94 	.word	0xe0002f94
e0002ea8:	e0002f94 	.word	0xe0002f94
e0002eac:	e0002f94 	.word	0xe0002f94
e0002eb0:	e0002f94 	.word	0xe0002f94
e0002eb4:	e0002f94 	.word	0xe0002f94
e0002eb8:	e0003020 	.word	0xe0003020
e0002ebc:	e0002f94 	.word	0xe0002f94
e0002ec0:	e0002f94 	.word	0xe0002f94
e0002ec4:	e0002f94 	.word	0xe0002f94
e0002ec8:	e0002f94 	.word	0xe0002f94
e0002ecc:	e0002f94 	.word	0xe0002f94
e0002ed0:	e0002f94 	.word	0xe0002f94
e0002ed4:	e0002f94 	.word	0xe0002f94
e0002ed8:	e0002f94 	.word	0xe0002f94
e0002edc:	e0002f94 	.word	0xe0002f94
e0002ee0:	e0002f94 	.word	0xe0002f94
e0002ee4:	e0002f94 	.word	0xe0002f94
e0002ee8:	e0002f94 	.word	0xe0002f94
e0002eec:	e0002f94 	.word	0xe0002f94
e0002ef0:	e0002f94 	.word	0xe0002f94
e0002ef4:	e0002f94 	.word	0xe0002f94
e0002ef8:	e0002f70 	.word	0xe0002f70
e0002efc:	e0002f94 	.word	0xe0002f94
e0002f00:	e0002f94 	.word	0xe0002f94
e0002f04:	e0002f94 	.word	0xe0002f94
e0002f08:	e0002f94 	.word	0xe0002f94
e0002f0c:	e0002f94 	.word	0xe0002f94
e0002f10:	e0002f94 	.word	0xe0002f94
e0002f14:	e0002f94 	.word	0xe0002f94
e0002f18:	e0002f94 	.word	0xe0002f94
e0002f1c:	e0002f94 	.word	0xe0002f94
e0002f20:	e0002f94 	.word	0xe0002f94
e0002f24:	e0002f94 	.word	0xe0002f94
e0002f28:	e0002f94 	.word	0xe0002f94
e0002f2c:	e0002f94 	.word	0xe0002f94
e0002f30:	e0002f94 	.word	0xe0002f94
e0002f34:	e0002f94 	.word	0xe0002f94
e0002f38:	e0003020 	.word	0xe0003020
e0002f3c:	e3a02000 	mov	r2, #0
e0002f40:	eaffff96 	b	e0002da0 <create_initial_thread+0x97c>
e0002f44:	e3c4400f 	bic	r4, r4, #15
e0002f48:	ea000035 	b	e0003024 <create_initial_thread+0xc00>
e0002f4c:	e3c8400f 	bic	r4, r8, #15
e0002f50:	ea000033 	b	e0003024 <create_initial_thread+0xc00>
e0002f54:	e3c4400f 	bic	r4, r4, #15
e0002f58:	ea000031 	b	e0003024 <create_initial_thread+0xc00>
e0002f5c:	e3c4401f 	bic	r4, r4, #31
e0002f60:	ea00002f 	b	e0003024 <create_initial_thread+0xc00>
e0002f64:	e3c44f7f 	bic	r4, r4, #508	; 0x1fc
e0002f68:	e3c44003 	bic	r4, r4, #3
e0002f6c:	ea00002c 	b	e0003024 <create_initial_thread+0xc00>
e0002f70:	e1a04424 	lsr	r4, r4, #8
e0002f74:	e204303f 	and	r3, r4, #63	; 0x3f
e0002f78:	e3530020 	cmp	r3, #32
e0002f7c:	1204401f 	andne	r4, r4, #31
e0002f80:	03a04004 	moveq	r4, #4
e0002f84:	e2843001 	add	r3, r4, #1
e0002f88:	e3e04000 	mvn	r4, #0
e0002f8c:	e0084314 	and	r4, r8, r4, lsl r3
e0002f90:	ea000023 	b	e0003024 <create_initial_thread+0xc00>
e0002f94:	e2423001 	sub	r3, r2, #1
e0002f98:	e3530008 	cmp	r3, #8
e0002f9c:	979ff103 	ldrls	pc, [pc, r3, lsl #2]
e0002fa0:	ea000028 	b	e0003048 <create_initial_thread+0xc24>
e0002fa4:	e0002fc8 	.word	0xe0002fc8
e0002fa8:	e0003048 	.word	0xe0003048
e0002fac:	e0002fc8 	.word	0xe0002fc8
e0002fb0:	e0003048 	.word	0xe0003048
e0002fb4:	e0003018 	.word	0xe0003018
e0002fb8:	e0003048 	.word	0xe0003048
e0002fbc:	e0003000 	.word	0xe0003000
e0002fc0:	e0003048 	.word	0xe0003048
e0002fc4:	e000300c 	.word	0xe000300c
e0002fc8:	e3520001 	cmp	r2, #1
e0002fcc:	0a000003 	beq	e0002fe0 <create_initial_thread+0xbbc>
e0002fd0:	e3520003 	cmp	r2, #3
e0002fd4:	0a000005 	beq	e0002ff0 <create_initial_thread+0xbcc>
e0002fd8:	e3a04000 	mov	r4, #0
e0002fdc:	ea000010 	b	e0003024 <create_initial_thread+0xc00>
e0002fe0:	e1a04404 	lsl	r4, r4, #8
e0002fe4:	e3c44eff 	bic	r4, r4, #4080	; 0xff0
e0002fe8:	e3c4400f 	bic	r4, r4, #15
e0002fec:	ea00000c 	b	e0003024 <create_initial_thread+0xc00>
e0002ff0:	e1a04504 	lsl	r4, r4, #10
e0002ff4:	e3c44dff 	bic	r4, r4, #16320	; 0x3fc0
e0002ff8:	e3c4403f 	bic	r4, r4, #63	; 0x3f
e0002ffc:	ea000008 	b	e0003024 <create_initial_thread+0xc00>
e0003000:	e3c44fff 	bic	r4, r4, #1020	; 0x3fc
e0003004:	e3c44003 	bic	r4, r4, #3
e0003008:	ea000005 	b	e0003024 <create_initial_thread+0xc00>
e000300c:	e3c44dff 	bic	r4, r4, #16320	; 0x3fc0
e0003010:	e3c4403f 	bic	r4, r4, #63	; 0x3f
e0003014:	ea000002 	b	e0003024 <create_initial_thread+0xc00>
e0003018:	e3c4400f 	bic	r4, r4, #15
e000301c:	ea000000 	b	e0003024 <create_initial_thread+0xc00>
e0003020:	e3a04000 	mov	r4, #0
e0003024:	e5845010 	str	r5, [r4, #16]
e0003028:	e3a03000 	mov	r3, #0
e000302c:	e5843014 	str	r3, [r4, #20]
e0003030:	e5843018 	str	r3, [r4, #24]
e0003034:	e3a03003 	mov	r3, #3
e0003038:	e584301c 	str	r3, [r4, #28]
e000303c:	e1a00007 	mov	r0, r7
e0003040:	e28dd020 	add	sp, sp, #32
e0003044:	e8bd87f0 	pop	{r4, r5, r6, r7, r8, r9, sl, pc}
e0003048:	e3a04000 	mov	r4, #0
e000304c:	eafffff4 	b	e0003024 <create_initial_thread+0xc00>
e0003050:	e1a03006 	mov	r3, r6
e0003054:	e3a02020 	mov	r2, #32
e0003058:	e28d1008 	add	r1, sp, #8
e000305c:	e8910003 	ldm	r1, {r0, r1}
e0003060:	eb00405d 	bl	e00131dc <cteInsert>
e0003064:	eafffe1b 	b	e00028d8 <create_initial_thread+0x4b4>
e0003068:	e1a03006 	mov	r3, r6
e000306c:	e3a02020 	mov	r2, #32
e0003070:	e28d1008 	add	r1, sp, #8
e0003074:	e8910003 	ldm	r1, {r0, r1}
e0003078:	eb004057 	bl	e00131dc <cteInsert>
e000307c:	e6ef3074 	uxtb	r3, r4
e0003080:	e2432002 	sub	r2, r3, #2
e0003084:	e352003c 	cmp	r2, #60	; 0x3c
e0003088:	979ff102 	ldrls	pc, [pc, r2, lsl #2]
e000308c:	eafffee6 	b	e0002c2c <create_initial_thread+0x808>
e0003090:	e0002abc 	.word	0xe0002abc
e0003094:	e0002c2c 	.word	0xe0002c2c
e0003098:	e0002be4 	.word	0xe0002be4
e000309c:	e0002c2c 	.word	0xe0002c2c
e00030a0:	e0002bec 	.word	0xe0002bec
e00030a4:	e0002c2c 	.word	0xe0002c2c
e00030a8:	e000319c 	.word	0xe000319c
e00030ac:	e0002c2c 	.word	0xe0002c2c
e00030b0:	e0002bf4 	.word	0xe0002bf4
e00030b4:	e0002c2c 	.word	0xe0002c2c
e00030b8:	e0002bfc 	.word	0xe0002bfc
e00030bc:	e0002c2c 	.word	0xe0002c2c
e00030c0:	e000319c 	.word	0xe000319c
e00030c4:	e0002c2c 	.word	0xe0002c2c
e00030c8:	e0002c2c 	.word	0xe0002c2c
e00030cc:	e0002c2c 	.word	0xe0002c2c
e00030d0:	e0002c2c 	.word	0xe0002c2c
e00030d4:	e0002c2c 	.word	0xe0002c2c
e00030d8:	e0002c2c 	.word	0xe0002c2c
e00030dc:	e0002c2c 	.word	0xe0002c2c
e00030e0:	e0002c2c 	.word	0xe0002c2c
e00030e4:	e0002c2c 	.word	0xe0002c2c
e00030e8:	e0002c2c 	.word	0xe0002c2c
e00030ec:	e0002c2c 	.word	0xe0002c2c
e00030f0:	e0002c2c 	.word	0xe0002c2c
e00030f4:	e0002c2c 	.word	0xe0002c2c
e00030f8:	e0002c2c 	.word	0xe0002c2c
e00030fc:	e0002c2c 	.word	0xe0002c2c
e0003100:	e000319c 	.word	0xe000319c
e0003104:	e0002c2c 	.word	0xe0002c2c
e0003108:	e0002c2c 	.word	0xe0002c2c
e000310c:	e0002c2c 	.word	0xe0002c2c
e0003110:	e0002c2c 	.word	0xe0002c2c
e0003114:	e0002c2c 	.word	0xe0002c2c
e0003118:	e0002c2c 	.word	0xe0002c2c
e000311c:	e0002c2c 	.word	0xe0002c2c
e0003120:	e0002c2c 	.word	0xe0002c2c
e0003124:	e0002c2c 	.word	0xe0002c2c
e0003128:	e0002c2c 	.word	0xe0002c2c
e000312c:	e0002c2c 	.word	0xe0002c2c
e0003130:	e0002c2c 	.word	0xe0002c2c
e0003134:	e0002c2c 	.word	0xe0002c2c
e0003138:	e0002c2c 	.word	0xe0002c2c
e000313c:	e0002c2c 	.word	0xe0002c2c
e0003140:	e0002c08 	.word	0xe0002c08
e0003144:	e0002c2c 	.word	0xe0002c2c
e0003148:	e0002c2c 	.word	0xe0002c2c
e000314c:	e0002c2c 	.word	0xe0002c2c
e0003150:	e0002c2c 	.word	0xe0002c2c
e0003154:	e0002c2c 	.word	0xe0002c2c
e0003158:	e0002c2c 	.word	0xe0002c2c
e000315c:	e0002c2c 	.word	0xe0002c2c
e0003160:	e0002c2c 	.word	0xe0002c2c
e0003164:	e0002c2c 	.word	0xe0002c2c
e0003168:	e0002c2c 	.word	0xe0002c2c
e000316c:	e0002c2c 	.word	0xe0002c2c
e0003170:	e0002c2c 	.word	0xe0002c2c
e0003174:	e0002c2c 	.word	0xe0002c2c
e0003178:	e0002c2c 	.word	0xe0002c2c
e000317c:	e0002c2c 	.word	0xe0002c2c
e0003180:	e000319c 	.word	0xe000319c
e0003184:	e2863010 	add	r3, r6, #16
e0003188:	e3a02030 	mov	r2, #48	; 0x30
e000318c:	e1a0100d 	mov	r1, sp
e0003190:	e8910003 	ldm	r1, {r0, r1}
e0003194:	eb004010 	bl	e00131dc <cteInsert>
e0003198:	eafffe4f 	b	e0002adc <create_initial_thread+0x6b8>
e000319c:	e2863010 	add	r3, r6, #16
e00031a0:	e3a02030 	mov	r2, #48	; 0x30
e00031a4:	e1a0100d 	mov	r1, sp
e00031a8:	e8910003 	ldm	r1, {r0, r1}
e00031ac:	eb00400a 	bl	e00131dc <cteInsert>
e00031b0:	e6ef2074 	uxtb	r2, r4
e00031b4:	eafffe49 	b	e0002ae0 <create_initial_thread+0x6bc>

e00031b8 <allocate_bi_frame>:
e00031b8:	e92d41f0 	push	{r4, r5, r6, r7, r8, lr}
e00031bc:	e1a07000 	mov	r7, r0
e00031c0:	e1a06001 	mov	r6, r1
e00031c4:	e1a05002 	mov	r5, r2
e00031c8:	e3a0000c 	mov	r0, #12
e00031cc:	ebfff688 	bl	e0000bf4 <alloc_region>
e00031d0:	e2504000 	subs	r4, r0, #0
e00031d4:	1a000001 	bne	e00031e0 <allocate_bi_frame+0x28>
e00031d8:	e1a00004 	mov	r0, r4
e00031dc:	e8bd81f0 	pop	{r4, r5, r6, r7, r8, pc}
e00031e0:	e3a01a01 	mov	r1, #4096	; 0x1000
e00031e4:	e1a00004 	mov	r0, r4
e00031e8:	eb005893 	bl	e001943c <memzero>
e00031ec:	e2842203 	add	r2, r4, #805306368	; 0x30000000
e00031f0:	e2841eff 	add	r1, r4, #4080	; 0xff0
e00031f4:	e281100f 	add	r1, r1, #15
e00031f8:	e1a00004 	mov	r0, r4
e00031fc:	eb003c4f 	bl	e0012340 <cleanCacheRange_PoU>
e0003200:	e3033d18 	movw	r3, #15640	; 0x3d18
e0003204:	e34e3000 	movt	r3, #57344	; 0xe000
e0003208:	e5834010 	str	r4, [r3, #16]
e000320c:	e3a0100c 	mov	r1, #12
e0003210:	e5831014 	str	r1, [r3, #20]
e0003214:	e5847004 	str	r7, [r4, #4]
e0003218:	e5846008 	str	r6, [r4, #8]
e000321c:	e3a02000 	mov	r2, #0
e0003220:	e584200c 	str	r2, [r4, #12]
e0003224:	e5845010 	str	r5, [r4, #16]
e0003228:	e5841044 	str	r1, [r4, #68]	; 0x44
e000322c:	e30b3768 	movw	r3, #46952	; 0xb768
e0003230:	e34e3001 	movt	r3, #57345	; 0xe001
e0003234:	e3011b38 	movw	r1, #6968	; 0x1b38
e0003238:	e34e1003 	movt	r1, #57347	; 0xe003
e000323c:	e5911000 	ldr	r1, [r1]
e0003240:	e0833181 	add	r3, r3, r1, lsl #3
e0003244:	e5933070 	ldr	r3, [r3, #112]	; 0x70
e0003248:	e5843048 	str	r3, [r4, #72]	; 0x48
e000324c:	e5842000 	str	r2, [r4]
e0003250:	e584203c 	str	r2, [r4, #60]	; 0x3c
e0003254:	e5842040 	str	r2, [r4, #64]	; 0x40
e0003258:	eaffffde 	b	e00031d8 <allocate_bi_frame+0x20>

e000325c <create_ipcbuf_frame>:
e000325c:	e24dd008 	sub	sp, sp, #8
e0003260:	e92d4030 	push	{r4, r5, lr}
e0003264:	e24dd024 	sub	sp, sp, #36	; 0x24
e0003268:	e1a04000 	mov	r4, r0
e000326c:	e28d0010 	add	r0, sp, #16
e0003270:	e8800006 	stm	r0, {r1, r2}
e0003274:	e58d3034 	str	r3, [sp, #52]	; 0x34
e0003278:	e3a0000c 	mov	r0, #12
e000327c:	ebfff65c 	bl	e0000bf4 <alloc_region>
e0003280:	e2505000 	subs	r5, r0, #0
e0003284:	1a000007 	bne	e00032a8 <create_ipcbuf_frame+0x4c>
e0003288:	e3a03000 	mov	r3, #0
e000328c:	e5843000 	str	r3, [r4]
e0003290:	e5843004 	str	r3, [r4, #4]
e0003294:	e1a00004 	mov	r0, r4
e0003298:	e28dd024 	add	sp, sp, #36	; 0x24
e000329c:	e8bd4030 	pop	{r4, r5, lr}
e00032a0:	e28dd008 	add	sp, sp, #8
e00032a4:	e12fff1e 	bx	lr
e00032a8:	e3a01a01 	mov	r1, #4096	; 0x1000
e00032ac:	e1a00005 	mov	r0, r5
e00032b0:	eb005861 	bl	e001943c <memzero>
e00032b4:	e2852203 	add	r2, r5, #805306368	; 0x30000000
e00032b8:	e2851eff 	add	r1, r5, #4080	; 0xff0
e00032bc:	e281100f 	add	r1, r1, #15
e00032c0:	e1a00005 	mov	r0, r5
e00032c4:	eb003c1d 	bl	e0012340 <cleanCacheRange_PoU>
e00032c8:	e3a03000 	mov	r3, #0
e00032cc:	e58d300c 	str	r3, [sp, #12]
e00032d0:	e58d3008 	str	r3, [sp, #8]
e00032d4:	e3a03001 	mov	r3, #1
e00032d8:	e58d3004 	str	r3, [sp, #4]
e00032dc:	e59d303c 	ldr	r3, [sp, #60]	; 0x3c
e00032e0:	e58d3000 	str	r3, [sp]
e00032e4:	e1a03005 	mov	r3, r5
e00032e8:	e28d2034 	add	r2, sp, #52	; 0x34
e00032ec:	e8920006 	ldm	r2, {r1, r2}
e00032f0:	e28d0018 	add	r0, sp, #24
e00032f4:	ebfff419 	bl	e0000360 <create_mapped_it_frame_cap>
e00032f8:	e59d3010 	ldr	r3, [sp, #16]
e00032fc:	e59d0014 	ldr	r0, [sp, #20]
e0003300:	e203200e 	and	r2, r3, #14
e0003304:	e352000e 	cmp	r2, #14
e0003308:	1203100f 	andne	r1, r3, #15
e000330c:	06ef1073 	uxtbeq	r1, r3
e0003310:	e2412002 	sub	r2, r1, #2
e0003314:	e352003c 	cmp	r2, #60	; 0x3c
e0003318:	979ff102 	ldrls	pc, [pc, r2, lsl #2]
e000331c:	ea000050 	b	e0003464 <create_ipcbuf_frame+0x208>
e0003320:	e0003414 	.word	0xe0003414
e0003324:	e0003464 	.word	0xe0003464
e0003328:	e000341c 	.word	0xe000341c
e000332c:	e0003464 	.word	0xe0003464
e0003330:	e0003424 	.word	0xe0003424
e0003334:	e0003464 	.word	0xe0003464
e0003338:	e00034f0 	.word	0xe00034f0
e000333c:	e0003464 	.word	0xe0003464
e0003340:	e000342c 	.word	0xe000342c
e0003344:	e0003464 	.word	0xe0003464
e0003348:	e0003434 	.word	0xe0003434
e000334c:	e0003464 	.word	0xe0003464
e0003350:	e00034f0 	.word	0xe00034f0
e0003354:	e0003464 	.word	0xe0003464
e0003358:	e0003464 	.word	0xe0003464
e000335c:	e0003464 	.word	0xe0003464
e0003360:	e0003464 	.word	0xe0003464
e0003364:	e0003464 	.word	0xe0003464
e0003368:	e0003464 	.word	0xe0003464
e000336c:	e0003464 	.word	0xe0003464
e0003370:	e0003464 	.word	0xe0003464
e0003374:	e0003464 	.word	0xe0003464
e0003378:	e0003464 	.word	0xe0003464
e000337c:	e0003464 	.word	0xe0003464
e0003380:	e0003464 	.word	0xe0003464
e0003384:	e0003464 	.word	0xe0003464
e0003388:	e0003464 	.word	0xe0003464
e000338c:	e0003464 	.word	0xe0003464
e0003390:	e00034f0 	.word	0xe00034f0
e0003394:	e0003464 	.word	0xe0003464
e0003398:	e0003464 	.word	0xe0003464
e000339c:	e0003464 	.word	0xe0003464
e00033a0:	e0003464 	.word	0xe0003464
e00033a4:	e0003464 	.word	0xe0003464
e00033a8:	e0003464 	.word	0xe0003464
e00033ac:	e0003464 	.word	0xe0003464
e00033b0:	e0003464 	.word	0xe0003464
e00033b4:	e0003464 	.word	0xe0003464
e00033b8:	e0003464 	.word	0xe0003464
e00033bc:	e0003464 	.word	0xe0003464
e00033c0:	e0003464 	.word	0xe0003464
e00033c4:	e0003464 	.word	0xe0003464
e00033c8:	e0003464 	.word	0xe0003464
e00033cc:	e0003464 	.word	0xe0003464
e00033d0:	e0003440 	.word	0xe0003440
e00033d4:	e0003464 	.word	0xe0003464
e00033d8:	e0003464 	.word	0xe0003464
e00033dc:	e0003464 	.word	0xe0003464
e00033e0:	e0003464 	.word	0xe0003464
e00033e4:	e0003464 	.word	0xe0003464
e00033e8:	e0003464 	.word	0xe0003464
e00033ec:	e0003464 	.word	0xe0003464
e00033f0:	e0003464 	.word	0xe0003464
e00033f4:	e0003464 	.word	0xe0003464
e00033f8:	e0003464 	.word	0xe0003464
e00033fc:	e0003464 	.word	0xe0003464
e0003400:	e0003464 	.word	0xe0003464
e0003404:	e0003464 	.word	0xe0003464
e0003408:	e0003464 	.word	0xe0003464
e000340c:	e0003464 	.word	0xe0003464
e0003410:	e00034f0 	.word	0xe00034f0
e0003414:	e3c3300f 	bic	r3, r3, #15
e0003418:	ea000035 	b	e00034f4 <create_ipcbuf_frame+0x298>
e000341c:	e3c0300f 	bic	r3, r0, #15
e0003420:	ea000033 	b	e00034f4 <create_ipcbuf_frame+0x298>
e0003424:	e3c3300f 	bic	r3, r3, #15
e0003428:	ea000031 	b	e00034f4 <create_ipcbuf_frame+0x298>
e000342c:	e3c3301f 	bic	r3, r3, #31
e0003430:	ea00002f 	b	e00034f4 <create_ipcbuf_frame+0x298>
e0003434:	e3c33f7f 	bic	r3, r3, #508	; 0x1fc
e0003438:	e3c33003 	bic	r3, r3, #3
e000343c:	ea00002c 	b	e00034f4 <create_ipcbuf_frame+0x298>
e0003440:	e1a03423 	lsr	r3, r3, #8
e0003444:	e203203f 	and	r2, r3, #63	; 0x3f
e0003448:	e3520020 	cmp	r2, #32
e000344c:	1203301f 	andne	r3, r3, #31
e0003450:	03a03004 	moveq	r3, #4
e0003454:	e2833001 	add	r3, r3, #1
e0003458:	e3e02000 	mvn	r2, #0
e000345c:	e0003312 	and	r3, r0, r2, lsl r3
e0003460:	ea000023 	b	e00034f4 <create_ipcbuf_frame+0x298>
e0003464:	e2412001 	sub	r2, r1, #1
e0003468:	e3520008 	cmp	r2, #8
e000346c:	979ff102 	ldrls	pc, [pc, r2, lsl #2]
e0003470:	ea00002b 	b	e0003524 <create_ipcbuf_frame+0x2c8>
e0003474:	e0003498 	.word	0xe0003498
e0003478:	e0003524 	.word	0xe0003524
e000347c:	e0003498 	.word	0xe0003498
e0003480:	e0003524 	.word	0xe0003524
e0003484:	e00034e8 	.word	0xe00034e8
e0003488:	e0003524 	.word	0xe0003524
e000348c:	e00034d0 	.word	0xe00034d0
e0003490:	e0003524 	.word	0xe0003524
e0003494:	e00034dc 	.word	0xe00034dc
e0003498:	e3510001 	cmp	r1, #1
e000349c:	0a000003 	beq	e00034b0 <create_ipcbuf_frame+0x254>
e00034a0:	e3510003 	cmp	r1, #3
e00034a4:	0a000005 	beq	e00034c0 <create_ipcbuf_frame+0x264>
e00034a8:	e3a03000 	mov	r3, #0
e00034ac:	ea000010 	b	e00034f4 <create_ipcbuf_frame+0x298>
e00034b0:	e1a03403 	lsl	r3, r3, #8
e00034b4:	e3c33eff 	bic	r3, r3, #4080	; 0xff0
e00034b8:	e3c3300f 	bic	r3, r3, #15
e00034bc:	ea00000c 	b	e00034f4 <create_ipcbuf_frame+0x298>
e00034c0:	e1a03503 	lsl	r3, r3, #10
e00034c4:	e3c33dff 	bic	r3, r3, #16320	; 0x3fc0
e00034c8:	e3c3303f 	bic	r3, r3, #63	; 0x3f
e00034cc:	ea000008 	b	e00034f4 <create_ipcbuf_frame+0x298>
e00034d0:	e3c33fff 	bic	r3, r3, #1020	; 0x3fc
e00034d4:	e3c33003 	bic	r3, r3, #3
e00034d8:	ea000005 	b	e00034f4 <create_ipcbuf_frame+0x298>
e00034dc:	e3c33dff 	bic	r3, r3, #16320	; 0x3fc0
e00034e0:	e3c3303f 	bic	r3, r3, #63	; 0x3f
e00034e4:	ea000002 	b	e00034f4 <create_ipcbuf_frame+0x298>
e00034e8:	e3c3300f 	bic	r3, r3, #15
e00034ec:	ea000000 	b	e00034f4 <create_ipcbuf_frame+0x298>
e00034f0:	e3a03000 	mov	r3, #0
e00034f4:	e28d2020 	add	r2, sp, #32
e00034f8:	e5321008 	ldr	r1, [r2, #-8]!
e00034fc:	e58310a0 	str	r1, [r3, #160]	; 0xa0
e0003500:	e59d101c 	ldr	r1, [sp, #28]
e0003504:	e58310a4 	str	r1, [r3, #164]	; 0xa4
e0003508:	e3a01000 	mov	r1, #0
e000350c:	e58310a8 	str	r1, [r3, #168]	; 0xa8
e0003510:	e3a01003 	mov	r1, #3
e0003514:	e58310ac 	str	r1, [r3, #172]	; 0xac
e0003518:	e8920003 	ldm	r2, {r0, r1}
e000351c:	e8840003 	stm	r4, {r0, r1}
e0003520:	eaffff5b 	b	e0003294 <create_ipcbuf_frame+0x38>
e0003524:	e3a03000 	mov	r3, #0
e0003528:	eafffff1 	b	e00034f4 <create_ipcbuf_frame+0x298>

e000352c <init_kernel>:
e000352c:	e92d4ff0 	push	{r4, r5, r6, r7, r8, r9, sl, fp, lr}
e0003530:	e24dd094 	sub	sp, sp, #148	; 0x94
e0003534:	e58d3018 	str	r3, [sp, #24]
e0003538:	e30b3768 	movw	r3, #46952	; 0xb768
e000353c:	e34e3001 	movt	r3, #57345	; 0xe001
e0003540:	e593a0d0 	ldr	sl, [r3, #208]	; 0xd0
e0003544:	e280920d 	add	r9, r0, #-805306368	; 0xd0000000
e0003548:	e281420d 	add	r4, r1, #-805306368	; 0xd0000000
e000354c:	e58d9044 	str	r9, [sp, #68]	; 0x44
e0003550:	e58d4048 	str	r4, [sp, #72]	; 0x48
e0003554:	e0415002 	sub	r5, r1, r2
e0003558:	e0400002 	sub	r0, r0, r2
e000355c:	e58d004c 	str	r0, [sp, #76]	; 0x4c
e0003560:	e2857a02 	add	r7, r5, #8192	; 0x2000
e0003564:	e357020e 	cmp	r7, #-536870912	; 0xe0000000
e0003568:	9a000000 	bls	e0003570 <init_kernel+0x44>
e000356c:	eb0034bf 	bl	e0010870 <halt>
e0003570:	e1a06002 	mov	r6, r2
e0003574:	ebfff8c3 	bl	e0001888 <map_kernel_window>
e0003578:	ebfff511 	bl	e00009c4 <activate_global_pd>
e000357c:	e59f36b0 	ldr	r3, [pc, #1712]	; e0003c34 <init_kernel+0x708>
e0003580:	ee0d3f90 	mcr	15, 0, r3, cr13, cr0, {4}
e0003584:	ebfff4d2 	bl	e00008d4 <fpsimd_HWCapTest>
e0003588:	e3500000 	cmp	r0, #0
e000358c:	1a00008f 	bne	e00037d0 <init_kernel+0x2a4>
e0003590:	ebfff317 	bl	e00001f4 <cpu_iface_init>
e0003594:	eb003b08 	bl	e00121bc <armv_init_user_access>
e0003598:	ebfff565 	bl	e0000b34 <initTimer>
e000359c:	ebfff2ad 	bl	e0000058 <dist_init>
e00035a0:	ebfff521 	bl	e0000a2c <initL2Cache>
e00035a4:	e3033d18 	movw	r3, #15640	; 0x3d18
e00035a8:	e34e3000 	movt	r3, #57344	; 0xe000
e00035ac:	e3a02000 	mov	r2, #0
e00035b0:	e5832000 	str	r2, [r3]
e00035b4:	e5832004 	str	r2, [r3, #4]
e00035b8:	e5832008 	str	r2, [r3, #8]
e00035bc:	e583200c 	str	r2, [r3, #12]
e00035c0:	e3023000 	movw	r3, #8192	; 0x2000
e00035c4:	e34e3003 	movt	r3, #57347	; 0xe003
e00035c8:	e34f2ff0 	movt	r2, #65520	; 0xfff0
e00035cc:	e1530002 	cmp	r3, r2
e00035d0:	21a03002 	movcs	r3, r2
e00035d4:	e58d305c 	str	r3, [sp, #92]	; 0x5c
e00035d8:	e58d2060 	str	r2, [sp, #96]	; 0x60
e00035dc:	e1590003 	cmp	r9, r3
e00035e0:	2a000082 	bcs	e00037f0 <init_kernel+0x2c4>
e00035e4:	e1540003 	cmp	r4, r3
e00035e8:	21a03004 	movcs	r3, r4
e00035ec:	e3a02000 	mov	r2, #0
e00035f0:	e34f2ff0 	movt	r2, #65520	; 0xfff0
e00035f4:	e1530002 	cmp	r3, r2
e00035f8:	31a04003 	movcc	r4, r3
e00035fc:	21a04002 	movcs	r4, r2
e0003600:	e58d4064 	str	r4, [sp, #100]	; 0x64
e0003604:	e58d2068 	str	r2, [sp, #104]	; 0x68
e0003608:	e35304ff 	cmp	r3, #-16777216	; 0xff000000
e000360c:	93a08000 	movls	r8, #0
e0003610:	934f8ff0 	movtls	r8, #65520	; 0xfff0
e0003614:	9a00008f 	bls	e0003858 <init_kernel+0x32c>
e0003618:	e3a09000 	mov	r9, #0
e000361c:	e34f9ff0 	movt	r9, #65520	; 0xfff0
e0003620:	e3a03000 	mov	r3, #0
e0003624:	e34f3f10 	movt	r3, #65296	; 0xff10
e0003628:	e1540003 	cmp	r4, r3
e000362c:	31a04003 	movcc	r4, r3
e0003630:	e1540009 	cmp	r4, r9
e0003634:	2a000005 	bcs	e0003650 <init_kernel+0x124>
e0003638:	21a04009 	movcs	r4, r9
e000363c:	e58d4054 	str	r4, [sp, #84]	; 0x54
e0003640:	e58d9058 	str	r9, [sp, #88]	; 0x58
e0003644:	e28d3054 	add	r3, sp, #84	; 0x54
e0003648:	e8930003 	ldm	r3, {r0, r1}
e000364c:	ebfff547 	bl	e0000b70 <insert_region>
e0003650:	e28d0024 	add	r0, sp, #36	; 0x24
e0003654:	ebfff9c2 	bl	e0001d64 <create_root_cnode>
e0003658:	e59d8024 	ldr	r8, [sp, #36]	; 0x24
e000365c:	e208900e 	and	r9, r8, #14
e0003660:	e359000e 	cmp	r9, #14
e0003664:	1208300f 	andne	r3, r8, #15
e0003668:	06ef3078 	uxtbeq	r3, r8
e000366c:	e3530000 	cmp	r3, #0
e0003670:	0affffbd 	beq	e000356c <init_kernel+0x40>
e0003674:	e28d3024 	add	r3, sp, #36	; 0x24
e0003678:	e8930003 	ldm	r3, {r0, r1}
e000367c:	ebfff5e2 	bl	e0000e0c <create_domain_cap>
e0003680:	ebfff9d5 	bl	e0001ddc <create_irq_cnode>
e0003684:	e3500000 	cmp	r0, #0
e0003688:	0affffb7 	beq	e000356c <init_kernel+0x40>
e000368c:	e59d3028 	ldr	r3, [sp, #40]	; 0x28
e0003690:	e58d301c 	str	r3, [sp, #28]
e0003694:	e3a04000 	mov	r4, #0
e0003698:	e1a0b004 	mov	fp, r4
e000369c:	e6ff1074 	uxth	r1, r4
e00036a0:	e1a0000b 	mov	r0, fp
e00036a4:	eb004074 	bl	e001387c <setIRQState>
e00036a8:	e2844001 	add	r4, r4, #1
e00036ac:	e35400a0 	cmp	r4, #160	; 0xa0
e00036b0:	1afffff9 	bne	e000369c <init_kernel+0x170>
e00036b4:	e3a0101d 	mov	r1, #29
e00036b8:	e3a00002 	mov	r0, #2
e00036bc:	eb00406e 	bl	e001387c <setIRQState>
e00036c0:	e359000e 	cmp	r9, #14
e00036c4:	1208300f 	andne	r3, r8, #15
e00036c8:	06ef3078 	uxtbeq	r3, r8
e00036cc:	e2432002 	sub	r2, r3, #2
e00036d0:	e352003c 	cmp	r2, #60	; 0x3c
e00036d4:	979ff102 	ldrls	pc, [pc, r2, lsl #2]
e00036d8:	ea000083 	b	e00038ec <init_kernel+0x3c0>
e00036dc:	e0003894 	.word	0xe0003894
e00036e0:	e00038ec 	.word	0xe00038ec
e00036e4:	e000389c 	.word	0xe000389c
e00036e8:	e00038ec 	.word	0xe00038ec
e00036ec:	e00038a8 	.word	0xe00038a8
e00036f0:	e00038ec 	.word	0xe00038ec
e00036f4:	e0003978 	.word	0xe0003978
e00036f8:	e00038ec 	.word	0xe00038ec
e00036fc:	e00038b0 	.word	0xe00038b0
e0003700:	e00038ec 	.word	0xe00038ec
e0003704:	e00038b8 	.word	0xe00038b8
e0003708:	e00038ec 	.word	0xe00038ec
e000370c:	e0003978 	.word	0xe0003978
e0003710:	e00038ec 	.word	0xe00038ec
e0003714:	e00038ec 	.word	0xe00038ec
e0003718:	e00038ec 	.word	0xe00038ec
e000371c:	e00038ec 	.word	0xe00038ec
e0003720:	e00038ec 	.word	0xe00038ec
e0003724:	e00038ec 	.word	0xe00038ec
e0003728:	e00038ec 	.word	0xe00038ec
e000372c:	e00038ec 	.word	0xe00038ec
e0003730:	e00038ec 	.word	0xe00038ec
e0003734:	e00038ec 	.word	0xe00038ec
e0003738:	e00038ec 	.word	0xe00038ec
e000373c:	e00038ec 	.word	0xe00038ec
e0003740:	e00038ec 	.word	0xe00038ec
e0003744:	e00038ec 	.word	0xe00038ec
e0003748:	e00038ec 	.word	0xe00038ec
e000374c:	e0003978 	.word	0xe0003978
e0003750:	e00038ec 	.word	0xe00038ec
e0003754:	e00038ec 	.word	0xe00038ec
e0003758:	e00038ec 	.word	0xe00038ec
e000375c:	e00038ec 	.word	0xe00038ec
e0003760:	e00038ec 	.word	0xe00038ec
e0003764:	e00038ec 	.word	0xe00038ec
e0003768:	e00038ec 	.word	0xe00038ec
e000376c:	e00038ec 	.word	0xe00038ec
e0003770:	e00038ec 	.word	0xe00038ec
e0003774:	e00038ec 	.word	0xe00038ec
e0003778:	e00038ec 	.word	0xe00038ec
e000377c:	e00038ec 	.word	0xe00038ec
e0003780:	e00038ec 	.word	0xe00038ec
e0003784:	e00038ec 	.word	0xe00038ec
e0003788:	e00038ec 	.word	0xe00038ec
e000378c:	e00038c4 	.word	0xe00038c4
e0003790:	e00038ec 	.word	0xe00038ec
e0003794:	e00038ec 	.word	0xe00038ec
e0003798:	e00038ec 	.word	0xe00038ec
e000379c:	e00038ec 	.word	0xe00038ec
e00037a0:	e00038ec 	.word	0xe00038ec
e00037a4:	e00038ec 	.word	0xe00038ec
e00037a8:	e00038ec 	.word	0xe00038ec
e00037ac:	e00038ec 	.word	0xe00038ec
e00037b0:	e00038ec 	.word	0xe00038ec
e00037b4:	e00038ec 	.word	0xe00038ec
e00037b8:	e00038ec 	.word	0xe00038ec
e00037bc:	e00038ec 	.word	0xe00038ec
e00037c0:	e00038ec 	.word	0xe00038ec
e00037c4:	e00038ec 	.word	0xe00038ec
e00037c8:	e00038ec 	.word	0xe00038ec
e00037cc:	e0003978 	.word	0xe0003978
e00037d0:	eef83a10 	vmrs	r3, fpexc
e00037d4:	e3c33101 	bic	r3, r3, #1073741824	; 0x40000000
e00037d8:	eee83a10 	vmsr	fpexc, r3
e00037dc:	e3013b3c 	movw	r3, #6972	; 0x1b3c
e00037e0:	e34e3003 	movt	r3, #57347	; 0xe003
e00037e4:	e3a02000 	mov	r2, #0
e00037e8:	e5832000 	str	r2, [r3]
e00037ec:	eaffff67 	b	e0003590 <init_kernel+0x64>
e00037f0:	e3790601 	cmn	r9, #1048576	; 0x100000
e00037f4:	e3a08000 	mov	r8, #0
e00037f8:	21a04008 	movcs	r4, r8
e00037fc:	21a09004 	movcs	r9, r4
e0003800:	234f9ff0 	movtcs	r9, #65520	; 0xfff0
e0003804:	334f8ff0 	movtcc	r8, #65520	; 0xfff0
e0003808:	e1590003 	cmp	r9, r3
e000380c:	9a000003 	bls	e0003820 <init_kernel+0x2f4>
e0003810:	e58d9060 	str	r9, [sp, #96]	; 0x60
e0003814:	e28d305c 	add	r3, sp, #92	; 0x5c
e0003818:	e8930003 	ldm	r3, {r0, r1}
e000381c:	ebfff4d3 	bl	e0000b70 <insert_region>
e0003820:	e1540008 	cmp	r4, r8
e0003824:	21a04008 	movcs	r4, r8
e0003828:	e58d4064 	str	r4, [sp, #100]	; 0x64
e000382c:	e58d8068 	str	r8, [sp, #104]	; 0x68
e0003830:	e35404ff 	cmp	r4, #-16777216	; 0xff000000
e0003834:	81a09008 	movhi	r9, r8
e0003838:	8affff78 	bhi	e0003620 <init_kernel+0xf4>
e000383c:	e35804ff 	cmp	r8, #-16777216	; 0xff000000
e0003840:	8a000004 	bhi	e0003858 <init_kernel+0x32c>
e0003844:	e1580004 	cmp	r8, r4
e0003848:	83a09000 	movhi	r9, #0
e000384c:	81a04009 	movhi	r4, r9
e0003850:	8a000006 	bhi	e0003870 <init_kernel+0x344>
e0003854:	eaffff7d 	b	e0003650 <init_kernel+0x124>
e0003858:	e35404ff 	cmp	r4, #-16777216	; 0xff000000
e000385c:	2a000008 	bcs	e0003884 <init_kernel+0x358>
e0003860:	e1a09008 	mov	r9, r8
e0003864:	e3a04000 	mov	r4, #0
e0003868:	e34f4f10 	movt	r4, #65296	; 0xff10
e000386c:	e3a084ff 	mov	r8, #-16777216	; 0xff000000
e0003870:	e58d8068 	str	r8, [sp, #104]	; 0x68
e0003874:	e28d3064 	add	r3, sp, #100	; 0x64
e0003878:	e8930003 	ldm	r3, {r0, r1}
e000387c:	ebfff4bb 	bl	e0000b70 <insert_region>
e0003880:	eaffff6a 	b	e0003630 <init_kernel+0x104>
e0003884:	e1a09008 	mov	r9, r8
e0003888:	e3a04000 	mov	r4, #0
e000388c:	e34f4f10 	movt	r4, #65296	; 0xff10
e0003890:	eaffff66 	b	e0003630 <init_kernel+0x104>
e0003894:	e3c8800f 	bic	r8, r8, #15
e0003898:	ea000037 	b	e000397c <init_kernel+0x450>
e000389c:	e59d301c 	ldr	r3, [sp, #28]
e00038a0:	e3c3800f 	bic	r8, r3, #15
e00038a4:	ea000034 	b	e000397c <init_kernel+0x450>
e00038a8:	e3c8800f 	bic	r8, r8, #15
e00038ac:	ea000032 	b	e000397c <init_kernel+0x450>
e00038b0:	e3c8801f 	bic	r8, r8, #31
e00038b4:	ea000030 	b	e000397c <init_kernel+0x450>
e00038b8:	e3c88f7f 	bic	r8, r8, #508	; 0x1fc
e00038bc:	e3c88003 	bic	r8, r8, #3
e00038c0:	ea00002d 	b	e000397c <init_kernel+0x450>
e00038c4:	e1a03428 	lsr	r3, r8, #8
e00038c8:	e203203f 	and	r2, r3, #63	; 0x3f
e00038cc:	e3520020 	cmp	r2, #32
e00038d0:	1203301f 	andne	r3, r3, #31
e00038d4:	03a03004 	moveq	r3, #4
e00038d8:	e2833001 	add	r3, r3, #1
e00038dc:	e3e08000 	mvn	r8, #0
e00038e0:	e59d201c 	ldr	r2, [sp, #28]
e00038e4:	e0028318 	and	r8, r2, r8, lsl r3
e00038e8:	ea000023 	b	e000397c <init_kernel+0x450>
e00038ec:	e2432001 	sub	r2, r3, #1
e00038f0:	e3520008 	cmp	r2, #8
e00038f4:	979ff102 	ldrls	pc, [pc, r2, lsl #2]
e00038f8:	ea0000cb 	b	e0003c2c <init_kernel+0x700>
e00038fc:	e0003920 	.word	0xe0003920
e0003900:	e0003c2c 	.word	0xe0003c2c
e0003904:	e0003920 	.word	0xe0003920
e0003908:	e0003c2c 	.word	0xe0003c2c
e000390c:	e0003970 	.word	0xe0003970
e0003910:	e0003c2c 	.word	0xe0003c2c
e0003914:	e0003958 	.word	0xe0003958
e0003918:	e0003c2c 	.word	0xe0003c2c
e000391c:	e0003964 	.word	0xe0003964
e0003920:	e3530001 	cmp	r3, #1
e0003924:	0a000003 	beq	e0003938 <init_kernel+0x40c>
e0003928:	e3530003 	cmp	r3, #3
e000392c:	0a000005 	beq	e0003948 <init_kernel+0x41c>
e0003930:	e3a08000 	mov	r8, #0
e0003934:	ea000010 	b	e000397c <init_kernel+0x450>
e0003938:	e1a08408 	lsl	r8, r8, #8
e000393c:	e3c88eff 	bic	r8, r8, #4080	; 0xff0
e0003940:	e3c8800f 	bic	r8, r8, #15
e0003944:	ea00000c 	b	e000397c <init_kernel+0x450>
e0003948:	e1a08508 	lsl	r8, r8, #10
e000394c:	e3c88dff 	bic	r8, r8, #16320	; 0x3fc0
e0003950:	e3c8803f 	bic	r8, r8, #63	; 0x3f
e0003954:	ea000008 	b	e000397c <init_kernel+0x450>
e0003958:	e3c88fff 	bic	r8, r8, #1020	; 0x3fc
e000395c:	e3c88003 	bic	r8, r8, #3
e0003960:	ea000005 	b	e000397c <init_kernel+0x450>
e0003964:	e3c88dff 	bic	r8, r8, #16320	; 0x3fc0
e0003968:	e3c8803f 	bic	r8, r8, #63	; 0x3f
e000396c:	ea000002 	b	e000397c <init_kernel+0x450>
e0003970:	e3c8800f 	bic	r8, r8, #15
e0003974:	ea000000 	b	e000397c <init_kernel+0x450>
e0003978:	e3a08000 	mov	r8, #0
e000397c:	e3a0300e 	mov	r3, #14
e0003980:	e5883040 	str	r3, [r8, #64]	; 0x40
e0003984:	e3a00000 	mov	r0, #0
e0003988:	e5880044 	str	r0, [r8, #68]	; 0x44
e000398c:	e5880048 	str	r0, [r8, #72]	; 0x48
e0003990:	e3a03003 	mov	r3, #3
e0003994:	e588304c 	str	r3, [r8, #76]	; 0x4c
e0003998:	e1a02005 	mov	r2, r5
e000399c:	e3a01001 	mov	r1, #1
e00039a0:	ebfffe04 	bl	e00031b8 <allocate_bi_frame>
e00039a4:	e2508000 	subs	r8, r0, #0
e00039a8:	0afffeef 	beq	e000356c <init_kernel+0x40>
e00039ac:	e3033d18 	movw	r3, #15640	; 0x3d18
e00039b0:	e34e3000 	movt	r3, #57344	; 0xe000
e00039b4:	e5933010 	ldr	r3, [r3, #16]
e00039b8:	e3a02000 	mov	r2, #0
e00039bc:	e5832034 	str	r2, [r3, #52]	; 0x34
e00039c0:	e5832038 	str	r2, [r3, #56]	; 0x38
e00039c4:	e58d7050 	str	r7, [sp, #80]	; 0x50
e00039c8:	e58d7000 	str	r7, [sp]
e00039cc:	e59d304c 	ldr	r3, [sp, #76]	; 0x4c
e00039d0:	e28d2024 	add	r2, sp, #36	; 0x24
e00039d4:	e8920006 	ldm	r2, {r1, r2}
e00039d8:	e28d0034 	add	r0, sp, #52	; 0x34
e00039dc:	ebfff800 	bl	e00019e4 <create_it_address_space>
e00039e0:	e59d3034 	ldr	r3, [sp, #52]	; 0x34
e00039e4:	e203200e 	and	r2, r3, #14
e00039e8:	e352000e 	cmp	r2, #14
e00039ec:	1203300f 	andne	r3, r3, #15
e00039f0:	06ef3073 	uxtbeq	r3, r3
e00039f4:	e3530000 	cmp	r3, #0
e00039f8:	0afffedb 	beq	e000356c <init_kernel+0x40>
e00039fc:	e2854a01 	add	r4, r5, #4096	; 0x1000
e0003a00:	e58d4004 	str	r4, [sp, #4]
e0003a04:	e58d8000 	str	r8, [sp]
e0003a08:	e28d3034 	add	r3, sp, #52	; 0x34
e0003a0c:	e893000c 	ldm	r3, {r2, r3}
e0003a10:	e28d7024 	add	r7, sp, #36	; 0x24
e0003a14:	e8970003 	ldm	r7, {r0, r1}
e0003a18:	ebfff588 	bl	e0001040 <create_bi_frame_cap>
e0003a1c:	e58d5004 	str	r5, [sp, #4]
e0003a20:	e59d3038 	ldr	r3, [sp, #56]	; 0x38
e0003a24:	e58d3000 	str	r3, [sp]
e0003a28:	e59d3034 	ldr	r3, [sp, #52]	; 0x34
e0003a2c:	e8970006 	ldm	r7, {r1, r2}
e0003a30:	e28d003c 	add	r0, sp, #60	; 0x3c
e0003a34:	ebfffe08 	bl	e000325c <create_ipcbuf_frame>
e0003a38:	e59d303c 	ldr	r3, [sp, #60]	; 0x3c
e0003a3c:	e203200e 	and	r2, r3, #14
e0003a40:	e352000e 	cmp	r2, #14
e0003a44:	1203300f 	andne	r3, r3, #15
e0003a48:	06ef3073 	uxtbeq	r3, r3
e0003a4c:	e3530000 	cmp	r3, #0
e0003a50:	0afffec5 	beq	e000356c <init_kernel+0x40>
e0003a54:	e58d6010 	str	r6, [sp, #16]
e0003a58:	e3a03001 	mov	r3, #1
e0003a5c:	e58d300c 	str	r3, [sp, #12]
e0003a60:	e28d3044 	add	r3, sp, #68	; 0x44
e0003a64:	e8930003 	ldm	r3, {r0, r1}
e0003a68:	e98d0003 	stmib	sp, {r0, r1}
e0003a6c:	e59d3038 	ldr	r3, [sp, #56]	; 0x38
e0003a70:	e58d3000 	str	r3, [sp]
e0003a74:	e59d3034 	ldr	r3, [sp, #52]	; 0x34
e0003a78:	e28d2024 	add	r2, sp, #36	; 0x24
e0003a7c:	e8920006 	ldm	r2, {r1, r2}
e0003a80:	e28d0084 	add	r0, sp, #132	; 0x84
e0003a84:	ebfff6a8 	bl	e000152c <create_frames_of_region>
e0003a88:	e59d308c 	ldr	r3, [sp, #140]	; 0x8c
e0003a8c:	e3530000 	cmp	r3, #0
e0003a90:	0afffeb5 	beq	e000356c <init_kernel+0x40>
e0003a94:	e3033d18 	movw	r3, #15640	; 0x3d18
e0003a98:	e34e3000 	movt	r3, #57344	; 0xe000
e0003a9c:	e5933010 	ldr	r3, [r3, #16]
e0003aa0:	e2833024 	add	r3, r3, #36	; 0x24
e0003aa4:	e28d2084 	add	r2, sp, #132	; 0x84
e0003aa8:	e8920003 	ldm	r2, {r0, r1}
e0003aac:	e8830003 	stm	r3, {r0, r1}
e0003ab0:	e28d3024 	add	r3, sp, #36	; 0x24
e0003ab4:	e8930006 	ldm	r3, {r1, r2}
e0003ab8:	e28d002c 	add	r0, sp, #44	; 0x2c
e0003abc:	ebfff8d5 	bl	e0001e18 <create_it_asid_pool>
e0003ac0:	e59d302c 	ldr	r3, [sp, #44]	; 0x2c
e0003ac4:	e203200e 	and	r2, r3, #14
e0003ac8:	e352000e 	cmp	r2, #14
e0003acc:	1203300f 	andne	r3, r3, #15
e0003ad0:	06ef3073 	uxtbeq	r3, r3
e0003ad4:	e3530000 	cmp	r3, #0
e0003ad8:	0afffea3 	beq	e000356c <init_kernel+0x40>
e0003adc:	e28d3034 	add	r3, sp, #52	; 0x34
e0003ae0:	e893000c 	ldm	r3, {r2, r3}
e0003ae4:	e28d102c 	add	r1, sp, #44	; 0x2c
e0003ae8:	e8910003 	ldm	r1, {r0, r1}
e0003aec:	ebfff26a 	bl	e000049c <write_it_asid_pool>
e0003af0:	ebfffa3a 	bl	e00023e0 <create_idle_thread>
e0003af4:	e3500000 	cmp	r0, #0
e0003af8:	0afffe9b 	beq	e000356c <init_kernel+0x40>
e0003afc:	eb003c01 	bl	e0012b08 <cleanInvalidateL1Caches>
e0003b00:	e28d300c 	add	r3, sp, #12
e0003b04:	e28d203c 	add	r2, sp, #60	; 0x3c
e0003b08:	e8920003 	ldm	r2, {r0, r1}
e0003b0c:	e8830003 	stm	r3, {r0, r1}
e0003b10:	e58d5008 	str	r5, [sp, #8]
e0003b14:	e58d4004 	str	r4, [sp, #4]
e0003b18:	e59d3018 	ldr	r3, [sp, #24]
e0003b1c:	e58d3000 	str	r3, [sp]
e0003b20:	e28d3034 	add	r3, sp, #52	; 0x34
e0003b24:	e893000c 	ldm	r3, {r2, r3}
e0003b28:	e28d1024 	add	r1, sp, #36	; 0x24
e0003b2c:	e8910003 	ldm	r1, {r0, r1}
e0003b30:	ebfffa3b 	bl	e0002424 <create_initial_thread>
e0003b34:	e3500000 	cmp	r0, #0
e0003b38:	0afffe8b 	beq	e000356c <init_kernel+0x40>
e0003b3c:	ebfff6be 	bl	e000163c <init_core_state>
e0003b40:	e28dc06c 	add	ip, sp, #108	; 0x6c
e0003b44:	e28d3024 	add	r3, sp, #36	; 0x24
e0003b48:	e8930003 	ldm	r3, {r0, r1}
e0003b4c:	e88c0003 	stm	ip, {r0, r1}
e0003b50:	e3a0320e 	mov	r3, #-536870912	; 0xe0000000
e0003b54:	e58d3074 	str	r3, [sp, #116]	; 0x74
e0003b58:	e58da078 	str	sl, [sp, #120]	; 0x78
e0003b5c:	e3033d18 	movw	r3, #15640	; 0x3d18
e0003b60:	e34e3000 	movt	r3, #57344	; 0xe000
e0003b64:	e5934014 	ldr	r4, [r3, #20]
e0003b68:	e58d4000 	str	r4, [sp]
e0003b6c:	e28d3074 	add	r3, sp, #116	; 0x74
e0003b70:	e893000c 	ldm	r3, {r2, r3}
e0003b74:	ebfff708 	bl	e000179c <create_kernel_untypeds>
e0003b78:	e3a05000 	mov	r5, #0
e0003b7c:	e3036cd8 	movw	r6, #15576	; 0x3cd8
e0003b80:	e34e6000 	movt	r6, #57344	; 0xe000
e0003b84:	e3a08001 	mov	r8, #1
e0003b88:	e28d706c 	add	r7, sp, #108	; 0x6c
e0003b8c:	e0863005 	add	r3, r6, r5
e0003b90:	e5932004 	ldr	r2, [r3, #4]
e0003b94:	e282220d 	add	r2, r2, #-805306368	; 0xd0000000
e0003b98:	e7953006 	ldr	r3, [r5, r6]
e0003b9c:	e283320d 	add	r3, r3, #-805306368	; 0xd0000000
e0003ba0:	e58d307c 	str	r3, [sp, #124]	; 0x7c
e0003ba4:	e58d2080 	str	r2, [sp, #128]	; 0x80
e0003ba8:	e58d4004 	str	r4, [sp, #4]
e0003bac:	e58d2000 	str	r2, [sp]
e0003bb0:	e1a02008 	mov	r2, r8
e0003bb4:	e8970003 	ldm	r7, {r0, r1}
e0003bb8:	ebfff6a9 	bl	e0001664 <create_untypeds_for_region>
e0003bbc:	e3500000 	cmp	r0, #0
e0003bc0:	0afffe69 	beq	e000356c <init_kernel+0x40>
e0003bc4:	e2855008 	add	r5, r5, #8
e0003bc8:	e3550038 	cmp	r5, #56	; 0x38
e0003bcc:	1affffee 	bne	e0003b8c <init_kernel+0x660>
e0003bd0:	e3033d18 	movw	r3, #15640	; 0x3d18
e0003bd4:	e34e3000 	movt	r3, #57344	; 0xe000
e0003bd8:	e5932014 	ldr	r2, [r3, #20]
e0003bdc:	e5933010 	ldr	r3, [r3, #16]
e0003be0:	e583404c 	str	r4, [r3, #76]	; 0x4c
e0003be4:	e5832050 	str	r2, [r3, #80]	; 0x50
e0003be8:	e3a04000 	mov	r4, #0
e0003bec:	e583401c 	str	r4, [r3, #28]
e0003bf0:	e5834020 	str	r4, [r3, #32]
e0003bf4:	ebfff712 	bl	e0001844 <bi_finalise>
e0003bf8:	eb003bc2 	bl	e0012b08 <cleanInvalidateL1Caches>
e0003bfc:	f57ff04f 	dsb	sy
e0003c00:	ee084f17 	mcr	15, 0, r4, cr8, cr7, {0}
e0003c04:	f57ff04f 	dsb	sy
e0003c08:	f57ff06f 	isb	sy
e0003c0c:	e30934d8 	movw	r3, #38104	; 0x94d8
e0003c10:	e34e3002 	movt	r3, #57346	; 0xe002
e0003c14:	e3a02001 	mov	r2, #1
e0003c18:	e5832000 	str	r2, [r3]
e0003c1c:	eb004644 	bl	e0015534 <schedule>
e0003c20:	eb00449f 	bl	e0014ea4 <activateThread>
e0003c24:	e28dd094 	add	sp, sp, #148	; 0x94
e0003c28:	e8bd8ff0 	pop	{r4, r5, r6, r7, r8, r9, sl, fp, pc}
e0003c2c:	e3a08000 	mov	r8, #0
e0003c30:	eaffff51 	b	e000397c <init_kernel+0x450>
e0003c34:	e0029020 	.word	0xe0029020

e0003c38 <allocate_extra_bi_region>:
e0003c38:	e92d41f0 	push	{r4, r5, r6, r7, r8, lr}
e0003c3c:	e1a05000 	mov	r5, r0
e0003c40:	e3510000 	cmp	r1, #0
e0003c44:	1a000004 	bne	e0003c5c <allocate_extra_bi_region+0x24>
e0003c48:	e59f3084 	ldr	r3, [pc, #132]	; e0003cd4 <allocate_extra_bi_region+0x9c>
e0003c4c:	e8930003 	ldm	r3, {r0, r1}
e0003c50:	e8850003 	stm	r5, {r0, r1}
e0003c54:	e1a00005 	mov	r0, r5
e0003c58:	e8bd81f0 	pop	{r4, r5, r6, r7, r8, pc}
e0003c5c:	e2411001 	sub	r1, r1, #1
e0003c60:	e3c11eff 	bic	r1, r1, #4080	; 0xff0
e0003c64:	e3c1100f 	bic	r1, r1, #15
e0003c68:	e2814a01 	add	r4, r1, #4096	; 0x1000
e0003c6c:	e16f4f14 	clz	r4, r4
e0003c70:	e264401f 	rsb	r4, r4, #31
e0003c74:	e1a00004 	mov	r0, r4
e0003c78:	ebfff3dd 	bl	e0000bf4 <alloc_region>
e0003c7c:	e2506000 	subs	r6, r0, #0
e0003c80:	03a03000 	moveq	r3, #0
e0003c84:	05853000 	streq	r3, [r5]
e0003c88:	05853004 	streq	r3, [r5, #4]
e0003c8c:	0afffff0 	beq	e0003c54 <allocate_extra_bi_region+0x1c>
e0003c90:	e3a03001 	mov	r3, #1
e0003c94:	e1a04413 	lsl	r4, r3, r4
e0003c98:	e1a01004 	mov	r1, r4
e0003c9c:	e1a00006 	mov	r0, r6
e0003ca0:	eb0055e5 	bl	e001943c <memzero>
e0003ca4:	e0867004 	add	r7, r6, r4
e0003ca8:	e2862203 	add	r2, r6, #805306368	; 0x30000000
e0003cac:	e2471001 	sub	r1, r7, #1
e0003cb0:	e1a00006 	mov	r0, r6
e0003cb4:	eb0039a1 	bl	e0012340 <cleanCacheRange_PoU>
e0003cb8:	e3033d18 	movw	r3, #15640	; 0x3d18
e0003cbc:	e34e3000 	movt	r3, #57344	; 0xe000
e0003cc0:	e5933010 	ldr	r3, [r3, #16]
e0003cc4:	e5834000 	str	r4, [r3]
e0003cc8:	e5856000 	str	r6, [r5]
e0003ccc:	e5857004 	str	r7, [r5, #4]
e0003cd0:	eaffffdf 	b	e0003c54 <allocate_extra_bi_region+0x1c>
e0003cd4:	e001b83c 	.word	0xe001b83c

e0003cd8 <dev_p_regs>:
e0003cd8:	00110000 00116000 00120000 00129000     .....`..........
e0003ce8:	00130000 00138000 00900000 00940000     ................
e0003cf8:	01f00000 01f80000 01ffc000 02208000     .............. .
e0003d08:	02400000 02c00000                       ..@.....

e0003d10 <avail_p_regs>:
e0003d10:	10000000 50000000                       .......P

e0003d18 <ndks_boot>:
e0003d18:	00000000 00000000 00000000 00000000     ................
e0003d28:	00000000 00000000 00000000 00000000     ................
e0003d38:	00000000 00000000 00000000 00000000     ................
e0003d48:	00000000 00000000 00000000 00000000     ................
e0003d58:	00000000 00000000 00000000 00000000     ................
e0003d68:	00000000 00000000 00000000 00000000     ................
e0003d78:	00000000 00000000 00000000 00000000     ................
e0003d88:	00000000 00000000 00000000 00000000     ................
e0003d98:	00000000 00000000 00000000 00000000     ................
e0003da8:	00000000 00000000 00000000 00000000     ................
e0003db8:	00000000 00000000 00000000 00000000     ................
e0003dc8:	00000000 00000000 00000000 00000000     ................
e0003dd8:	00000000 00000000 00000000 00000000     ................
e0003de8:	00000000 00000000 00000000 00000000     ................
e0003df8:	00000000 00000000 00000000 00000000     ................
e0003e08:	00000000 00000000 00000000 00000000     ................
e0003e18:	00000000 00000000 00000000 00000000     ................
e0003e28:	00000000 00000000 00000000 00000000     ................
e0003e38:	00000000 00000000 00000000 00000000     ................
e0003e48:	00000000 00000000 00000000 00000000     ................
e0003e58:	00000000 00000000 00000000 00000000     ................
e0003e68:	00000000 00000000 00000000 00000000     ................
e0003e78:	00000000 00000000 00000000 00000000     ................
e0003e88:	00000000 00000000 00000000 00000000     ................
e0003e98:	00000000 00000000 00000000 00000000     ................
e0003ea8:	00000000 00000000 00000000 00000000     ................
e0003eb8:	00000000 00000000 00000000 00000000     ................
e0003ec8:	00000000 00000000 00000000 00000000     ................
e0003ed8:	00000000 00000000 00000000 00000000     ................
e0003ee8:	00000000 00000000 00000000 00000000     ................
e0003ef8:	00000000 00000000 00000000 00000000     ................
e0003f08:	00000000 00000000 00000000 00000000     ................
e0003f18:	00000000 00000000 00000000 00000000     ................
e0003f28:	00000000 00000000 00000000 00000000     ................
e0003f38:	00000000 00000000 00000000 00000000     ................
e0003f48:	00000000 00000000 00000000 00000000     ................
e0003f58:	00000000 00000000 00000000 00000000     ................
e0003f68:	00000000 00000000 00000000 00000000     ................
e0003f78:	00000000 00000000 00000000 00000000     ................
e0003f88:	00000000 00000000 00000000 00000000     ................
e0003f98:	00000000 00000000 00000000 00000000     ................
e0003fa8:	00000000 00000000 00000000 00000000     ................
e0003fb8:	00000000 00000000 00000000 00000000     ................
e0003fc8:	00000000 00000000 00000000 00000000     ................
e0003fd8:	00000000 00000000 00000000 00000000     ................
e0003fe8:	00000000 00000000 00000000 00000000     ................
e0003ff8:	00000000 00000000 00000000 00000000     ................
e0004008:	00000000 00000000 00000000 00000000     ................
e0004018:	00000000 00000000 00000000 00000000     ................
e0004028:	00000000 00000000 00000000 00000000     ................
e0004038:	00000000 00000000 00000000 00000000     ................
e0004048:	00000000 00000000 00000000 00000000     ................
e0004058:	00000000 00000000 00000000 00000000     ................
e0004068:	00000000 00000000 00000000 00000000     ................
e0004078:	00000000 00000000 00000000 00000000     ................
e0004088:	00000000 00000000 00000000 00000000     ................
e0004098:	00000000 00000000 00000000 00000000     ................
e00040a8:	00000000 00000000 00000000 00000000     ................
e00040b8:	00000000 00000000 00000000 00000000     ................
e00040c8:	00000000 00000000 00000000 00000000     ................
e00040d8:	00000000 00000000 00000000 00000000     ................
e00040e8:	00000000 00000000 00000000 00000000     ................
e00040f8:	00000000 00000000 00000000 00000000     ................
e0004108:	00000000 00000000 00000000 00000000     ................
e0004118:	00000000 00000000 00000000 00000000     ................
e0004128:	00000000 00000000 00000000 00000000     ................
e0004138:	00000000 00000000 00000000 00000000     ................
e0004148:	00000000 00000000 00000000 00000000     ................
e0004158:	00000000 00000000 00000000 00000000     ................
e0004168:	00000000 00000000 00000000 00000000     ................
e0004178:	00000000 00000000 00000000 00000000     ................
e0004188:	00000000 00000000 00000000 00000000     ................
e0004198:	00000000 00000000 00000000 00000000     ................
e00041a8:	00000000 00000000 00000000 00000000     ................
e00041b8:	00000000 00000000 00000000 00000000     ................
e00041c8:	00000000 00000000 00000000 00000000     ................
e00041d8:	00000000 00000000 00000000 00000000     ................
e00041e8:	00000000 00000000 00000000 00000000     ................
e00041f8:	00000000 00000000 00000000 00000000     ................
e0004208:	00000000 00000000 00000000 00000000     ................
e0004218:	00000000 00000000 00000000 00000000     ................
e0004228:	00000000 00000000 00000000 00000000     ................
e0004238:	00000000 00000000 00000000 00000000     ................
e0004248:	00000000 00000000 00000000 00000000     ................
e0004258:	00000000 00000000 00000000 00000000     ................
e0004268:	00000000 00000000 00000000 00000000     ................
e0004278:	00000000 00000000 00000000 00000000     ................
e0004288:	00000000 00000000 00000000 00000000     ................
e0004298:	00000000 00000000 00000000 00000000     ................
e00042a8:	00000000 00000000 00000000 00000000     ................
e00042b8:	00000000 00000000 00000000 00000000     ................
e00042c8:	00000000 00000000 00000000 00000000     ................
e00042d8:	00000000 00000000 00000000 00000000     ................
e00042e8:	00000000 00000000 00000000 00000000     ................
e00042f8:	00000000 00000000 00000000 00000000     ................
e0004308:	00000000 00000000 00000000 00000000     ................
e0004318:	00000000 00000000 00000000 00000000     ................
e0004328:	00000000 00000000 00000000 00000000     ................
e0004338:	00000000 00000000 00000000 00000000     ................
e0004348:	00000000 00000000 00000000 00000000     ................
e0004358:	00000000 00000000 00000000 00000000     ................
e0004368:	00000000 00000000 00000000 00000000     ................
e0004378:	00000000 00000000 00000000 00000000     ................
e0004388:	00000000 00000000 00000000 00000000     ................
e0004398:	00000000 00000000 00000000 00000000     ................
e00043a8:	00000000 00000000 00000000 00000000     ................
e00043b8:	00000000 00000000 00000000 00000000     ................
e00043c8:	00000000 00000000 00000000 00000000     ................
e00043d8:	00000000 00000000 00000000 00000000     ................
e00043e8:	00000000 00000000 00000000 00000000     ................
e00043f8:	00000000 00000000 00000000 00000000     ................
e0004408:	00000000 00000000 00000000 00000000     ................
e0004418:	00000000 00000000 00000000 00000000     ................
e0004428:	00000000 00000000 00000000 00000000     ................
e0004438:	00000000 00000000 00000000 00000000     ................
e0004448:	00000000 00000000 00000000 00000000     ................
e0004458:	00000000 00000000 00000000 00000000     ................
e0004468:	00000000 00000000 00000000 00000000     ................
e0004478:	00000000 00000000 00000000 00000000     ................
e0004488:	00000000 00000000 00000000 00000000     ................
e0004498:	00000000 00000000 00000000 00000000     ................
e00044a8:	00000000 00000000 00000000 00000000     ................
e00044b8:	00000000 00000000 00000000 00000000     ................
e00044c8:	00000000 00000000 00000000 00000000     ................
e00044d8:	00000000 00000000 00000000 00000000     ................
e00044e8:	00000000 00000000 00000000 00000000     ................
e00044f8:	00000000 00000000 00000000 00000000     ................
e0004508:	00000000 00000000 00000000 00000000     ................
e0004518:	00000000 00000000 00000000 00000000     ................
e0004528:	00000000 00000000 00000000 00000000     ................
e0004538:	00000000 00000000 00000000 00000000     ................
e0004548:	00000000 00000000 00000000 00000000     ................
e0004558:	00000000 00000000 00000000 00000000     ................
e0004568:	00000000 00000000 00000000 00000000     ................
e0004578:	00000000 00000000 00000000 00000000     ................
e0004588:	00000000 00000000 00000000 00000000     ................
e0004598:	00000000 00000000 00000000 00000000     ................
e00045a8:	00000000 00000000 00000000 00000000     ................
e00045b8:	00000000 00000000 00000000 00000000     ................
e00045c8:	00000000 00000000 00000000 00000000     ................
e00045d8:	00000000 00000000 00000000 00000000     ................
e00045e8:	00000000 00000000 00000000 00000000     ................
e00045f8:	00000000 00000000 00000000 00000000     ................
e0004608:	00000000 00000000 00000000 00000000     ................
e0004618:	00000000 00000000 00000000 00000000     ................
e0004628:	00000000 00000000 00000000 00000000     ................
e0004638:	00000000 00000000 00000000 00000000     ................
e0004648:	00000000 00000000 00000000 00000000     ................
e0004658:	00000000 00000000 00000000 00000000     ................
e0004668:	00000000 00000000 00000000 00000000     ................
e0004678:	00000000 00000000 00000000 00000000     ................
e0004688:	00000000 00000000 00000000 00000000     ................
e0004698:	00000000 00000000 00000000 00000000     ................
e00046a8:	00000000 00000000 00000000 00000000     ................
e00046b8:	00000000 00000000 00000000 00000000     ................
e00046c8:	00000000 00000000 00000000 00000000     ................
e00046d8:	00000000 00000000 00000000 00000000     ................
e00046e8:	00000000 00000000 00000000 00000000     ................
e00046f8:	00000000 00000000 00000000 00000000     ................
e0004708:	00000000 00000000 00000000 00000000     ................
e0004718:	00000000 00000000 00000000 00000000     ................
e0004728:	00000000 00000000 00000000 00000000     ................
e0004738:	00000000 00000000 00000000 00000000     ................
e0004748:	00000000 00000000 00000000 00000000     ................
e0004758:	00000000 00000000 00000000 00000000     ................
e0004768:	00000000 00000000 00000000 00000000     ................
e0004778:	00000000 00000000 00000000 00000000     ................
e0004788:	00000000 00000000 00000000 00000000     ................
e0004798:	00000000 00000000 00000000 00000000     ................
e00047a8:	00000000 00000000 00000000 00000000     ................
e00047b8:	00000000 00000000 00000000 00000000     ................
e00047c8:	00000000 00000000 00000000 00000000     ................
e00047d8:	00000000 00000000 00000000 00000000     ................
e00047e8:	00000000 00000000 00000000 00000000     ................
e00047f8:	00000000 00000000 00000000 00000000     ................
e0004808:	00000000 00000000 00000000 00000000     ................
e0004818:	00000000 00000000 00000000 00000000     ................
e0004828:	00000000 00000000 00000000 00000000     ................
e0004838:	00000000 00000000 00000000 00000000     ................
e0004848:	00000000 00000000 00000000 00000000     ................
e0004858:	00000000 00000000 00000000 00000000     ................
e0004868:	00000000 00000000 00000000 00000000     ................
e0004878:	00000000 00000000 00000000 00000000     ................
e0004888:	00000000 00000000 00000000 00000000     ................
e0004898:	00000000 00000000 00000000 00000000     ................
e00048a8:	00000000 00000000 00000000 00000000     ................
e00048b8:	00000000 00000000 00000000 00000000     ................
e00048c8:	00000000 00000000 00000000 00000000     ................
e00048d8:	00000000 00000000 00000000 00000000     ................
e00048e8:	00000000 00000000 00000000 00000000     ................
e00048f8:	00000000 00000000 00000000 00000000     ................
e0004908:	00000000 00000000 00000000 00000000     ................
e0004918:	00000000 00000000 00000000 00000000     ................
e0004928:	00000000 00000000 00000000 00000000     ................
e0004938:	00000000 00000000 00000000 00000000     ................
e0004948:	00000000 00000000 00000000 00000000     ................
e0004958:	00000000 00000000 00000000 00000000     ................
e0004968:	00000000 00000000 00000000 00000000     ................
e0004978:	00000000 00000000 00000000 00000000     ................
e0004988:	00000000 00000000 00000000 00000000     ................
e0004998:	00000000 00000000 00000000 00000000     ................
e00049a8:	00000000 00000000 00000000 00000000     ................
e00049b8:	00000000 00000000 00000000 00000000     ................
e00049c8:	00000000 00000000 00000000 00000000     ................
e00049d8:	00000000 00000000 00000000 00000000     ................
e00049e8:	00000000 00000000 00000000 00000000     ................
e00049f8:	00000000 00000000 00000000 00000000     ................
e0004a08:	00000000 00000000 00000000 00000000     ................
e0004a18:	00000000 00000000 00000000 00000000     ................
e0004a28:	00000000 00000000 00000000 00000000     ................
e0004a38:	00000000 00000000 00000000 00000000     ................
e0004a48:	00000000 00000000 00000000 00000000     ................
e0004a58:	00000000 00000000 00000000 00000000     ................
e0004a68:	00000000 00000000 00000000 00000000     ................
e0004a78:	00000000 00000000 00000000 00000000     ................
e0004a88:	00000000 00000000 00000000 00000000     ................
e0004a98:	00000000 00000000 00000000 00000000     ................
e0004aa8:	00000000 00000000 00000000 00000000     ................
e0004ab8:	00000000 00000000 00000000 00000000     ................
e0004ac8:	00000000 00000000 00000000 00000000     ................
e0004ad8:	00000000 00000000 00000000 00000000     ................
e0004ae8:	00000000 00000000 00000000 00000000     ................
e0004af8:	00000000 00000000 00000000 00000000     ................
e0004b08:	00000000 00000000 00000000 00000000     ................
e0004b18:	00000000 00000000 00000000 00000000     ................
e0004b28:	00000000 00000000 00000000 00000000     ................
e0004b38:	00000000 00000000 00000000 00000000     ................
e0004b48:	00000000 00000000 00000000 00000000     ................
e0004b58:	00000000 00000000 00000000 00000000     ................
e0004b68:	00000000 00000000 00000000 00000000     ................
e0004b78:	00000000 00000000 00000000 00000000     ................
e0004b88:	00000000 00000000 00000000 00000000     ................
e0004b98:	00000000 00000000 00000000 00000000     ................
e0004ba8:	00000000 00000000 00000000 00000000     ................
e0004bb8:	00000000 00000000 00000000 00000000     ................
e0004bc8:	00000000 00000000 00000000 00000000     ................
e0004bd8:	00000000 00000000 00000000 00000000     ................
e0004be8:	00000000 00000000 00000000 00000000     ................
e0004bf8:	00000000 00000000 00000000 00000000     ................
e0004c08:	00000000 00000000 00000000 00000000     ................
e0004c18:	00000000 00000000 00000000 00000000     ................
e0004c28:	00000000 00000000 00000000 00000000     ................
e0004c38:	00000000 00000000 00000000 00000000     ................
e0004c48:	00000000 00000000 00000000 00000000     ................
e0004c58:	00000000 00000000 00000000 00000000     ................
e0004c68:	00000000 00000000 00000000 00000000     ................
e0004c78:	00000000 00000000 00000000 00000000     ................
e0004c88:	00000000 00000000 00000000 00000000     ................
e0004c98:	00000000 00000000 00000000 00000000     ................
e0004ca8:	00000000 00000000 00000000 00000000     ................
e0004cb8:	00000000 00000000 00000000 00000000     ................
e0004cc8:	00000000 00000000 00000000 00000000     ................
e0004cd8:	00000000 00000000 00000000 00000000     ................
e0004ce8:	00000000 00000000 00000000 00000000     ................
e0004cf8:	00000000 00000000 00000000 00000000     ................
e0004d08:	00000000 00000000 00000000 00000000     ................
e0004d18:	00000000 00000000 00000000 00000000     ................
e0004d28:	00000000 00000000 00000000 00000000     ................
e0004d38:	00000000 00000000 00000000 00000000     ................
e0004d48:	00000000 00000000 00000000 00000000     ................
e0004d58:	00000000 00000000 00000000 00000000     ................
e0004d68:	00000000 00000000 00000000 00000000     ................
e0004d78:	00000000 00000000 00000000 00000000     ................
e0004d88:	00000000 00000000 00000000 00000000     ................
e0004d98:	00000000 00000000 00000000 00000000     ................
e0004da8:	00000000 00000000 00000000 00000000     ................
e0004db8:	00000000 00000000 00000000 00000000     ................
e0004dc8:	00000000 00000000 00000000 00000000     ................
e0004dd8:	00000000 00000000 00000000 00000000     ................
e0004de8:	00000000 00000000 00000000 00000000     ................
e0004df8:	00000000 00000000 00000000 00000000     ................
e0004e08:	00000000 00000000 00000000 00000000     ................
e0004e18:	00000000 00000000 00000000 00000000     ................
e0004e28:	00000000 00000000 00000000 00000000     ................
e0004e38:	00000000 00000000 00000000 00000000     ................
e0004e48:	00000000 00000000 00000000 00000000     ................
e0004e58:	00000000 00000000 00000000 00000000     ................
e0004e68:	00000000 00000000 00000000 00000000     ................
e0004e78:	00000000 00000000 00000000 00000000     ................
e0004e88:	00000000 00000000 00000000 00000000     ................
e0004e98:	00000000 00000000 00000000 00000000     ................
e0004ea8:	00000000 00000000 00000000 00000000     ................
e0004eb8:	00000000 00000000 00000000 00000000     ................
e0004ec8:	00000000 00000000 00000000 00000000     ................
e0004ed8:	00000000 00000000 00000000 00000000     ................
e0004ee8:	00000000 00000000 00000000 00000000     ................
e0004ef8:	00000000 00000000 00000000 00000000     ................
e0004f08:	00000000 00000000 00000000 00000000     ................
e0004f18:	00000000 00000000 00000000 00000000     ................
e0004f28:	00000000 00000000 00000000 00000000     ................
e0004f38:	00000000 00000000 00000000 00000000     ................
e0004f48:	00000000 00000000 00000000 00000000     ................
e0004f58:	00000000 00000000 00000000 00000000     ................
e0004f68:	00000000 00000000 00000000 00000000     ................
e0004f78:	00000000 00000000 00000000 00000000     ................
e0004f88:	00000000 00000000 00000000 00000000     ................
e0004f98:	00000000 00000000 00000000 00000000     ................
e0004fa8:	00000000 00000000 00000000 00000000     ................
e0004fb8:	00000000 00000000 00000000 00000000     ................
e0004fc8:	00000000 00000000 00000000 00000000     ................
e0004fd8:	00000000 00000000 00000000 00000000     ................
e0004fe8:	00000000 00000000 00000000 00000000     ................
e0004ff8:	00000000 00000000 00000000 00000000     ................
e0005008:	00000000 00000000 00000000 00000000     ................
e0005018:	00000000 00000000 00000000 00000000     ................
e0005028:	00000000 00000000 00000000 00000000     ................
e0005038:	00000000 00000000 00000000 00000000     ................
e0005048:	00000000 00000000 00000000 00000000     ................
e0005058:	00000000 00000000 00000000 00000000     ................
e0005068:	00000000 00000000 00000000 00000000     ................
e0005078:	00000000 00000000 00000000 00000000     ................
e0005088:	00000000 00000000 00000000 00000000     ................
e0005098:	00000000 00000000 00000000 00000000     ................
e00050a8:	00000000 00000000 00000000 00000000     ................
e00050b8:	00000000 00000000 00000000 00000000     ................
e00050c8:	00000000 00000000 00000000 00000000     ................
e00050d8:	00000000 00000000 00000000 00000000     ................
e00050e8:	00000000 00000000 00000000 00000000     ................
e00050f8:	00000000 00000000 00000000 00000000     ................
e0005108:	00000000 00000000 00000000 00000000     ................
e0005118:	00000000 00000000 00000000 00000000     ................
e0005128:	00000000 00000000 00000000 00000000     ................
e0005138:	00000000 00000000 00000000 00000000     ................
e0005148:	00000000 00000000 00000000 00000000     ................
e0005158:	00000000 00000000 00000000 00000000     ................
e0005168:	00000000 00000000 00000000 00000000     ................
e0005178:	00000000 00000000 00000000 00000000     ................
e0005188:	00000000 00000000 00000000 00000000     ................
e0005198:	00000000 00000000 00000000 00000000     ................
e00051a8:	00000000 00000000 00000000 00000000     ................
e00051b8:	00000000 00000000 00000000 00000000     ................
e00051c8:	00000000 00000000 00000000 00000000     ................
e00051d8:	00000000 00000000 00000000 00000000     ................
e00051e8:	00000000 00000000 00000000 00000000     ................
e00051f8:	00000000 00000000 00000000 00000000     ................
e0005208:	00000000 00000000 00000000 00000000     ................
e0005218:	00000000 00000000 00000000 00000000     ................
e0005228:	00000000 00000000 00000000 00000000     ................
e0005238:	00000000 00000000 00000000 00000000     ................
e0005248:	00000000 00000000 00000000 00000000     ................
e0005258:	00000000 00000000 00000000 00000000     ................
e0005268:	00000000 00000000 00000000 00000000     ................
e0005278:	00000000 00000000 00000000 00000000     ................
e0005288:	00000000 00000000 00000000 00000000     ................
e0005298:	00000000 00000000 00000000 00000000     ................
e00052a8:	00000000 00000000 00000000 00000000     ................
e00052b8:	00000000 00000000 00000000 00000000     ................
e00052c8:	00000000 00000000 00000000 00000000     ................
e00052d8:	00000000 00000000 00000000 00000000     ................
e00052e8:	00000000 00000000 00000000 00000000     ................
e00052f8:	00000000 00000000 00000000 00000000     ................
e0005308:	00000000 00000000 00000000 00000000     ................
e0005318:	00000000 00000000 00000000 00000000     ................
e0005328:	00000000 00000000 00000000 00000000     ................
e0005338:	00000000 00000000 00000000 00000000     ................
e0005348:	00000000 00000000 00000000 00000000     ................
e0005358:	00000000 00000000 00000000 00000000     ................
e0005368:	00000000 00000000 00000000 00000000     ................
e0005378:	00000000 00000000 00000000 00000000     ................
e0005388:	00000000 00000000 00000000 00000000     ................
e0005398:	00000000 00000000 00000000 00000000     ................
e00053a8:	00000000 00000000 00000000 00000000     ................
e00053b8:	00000000 00000000 00000000 00000000     ................
e00053c8:	00000000 00000000 00000000 00000000     ................
e00053d8:	00000000 00000000 00000000 00000000     ................
e00053e8:	00000000 00000000 00000000 00000000     ................
e00053f8:	00000000 00000000 00000000 00000000     ................
e0005408:	00000000 00000000 00000000 00000000     ................
e0005418:	00000000 00000000 00000000 00000000     ................
e0005428:	00000000 00000000 00000000 00000000     ................
e0005438:	00000000 00000000 00000000 00000000     ................
e0005448:	00000000 00000000 00000000 00000000     ................
e0005458:	00000000 00000000 00000000 00000000     ................
e0005468:	00000000 00000000 00000000 00000000     ................
e0005478:	00000000 00000000 00000000 00000000     ................
e0005488:	00000000 00000000 00000000 00000000     ................
e0005498:	00000000 00000000 00000000 00000000     ................
e00054a8:	00000000 00000000 00000000 00000000     ................
e00054b8:	00000000 00000000 00000000 00000000     ................
e00054c8:	00000000 00000000 00000000 00000000     ................
e00054d8:	00000000 00000000 00000000 00000000     ................
e00054e8:	00000000 00000000 00000000 00000000     ................
e00054f8:	00000000 00000000 00000000 00000000     ................
e0005508:	00000000 00000000 00000000 00000000     ................
e0005518:	00000000 00000000 00000000 00000000     ................
e0005528:	00000000 00000000 00000000 00000000     ................
e0005538:	00000000 00000000 00000000 00000000     ................
e0005548:	00000000 00000000 00000000 00000000     ................
e0005558:	00000000 00000000 00000000 00000000     ................
e0005568:	00000000 00000000 00000000 00000000     ................
e0005578:	00000000 00000000 00000000 00000000     ................
e0005588:	00000000 00000000 00000000 00000000     ................
e0005598:	00000000 00000000 00000000 00000000     ................
e00055a8:	00000000 00000000 00000000 00000000     ................
e00055b8:	00000000 00000000 00000000 00000000     ................
e00055c8:	00000000 00000000 00000000 00000000     ................
e00055d8:	00000000 00000000 00000000 00000000     ................
e00055e8:	00000000 00000000 00000000 00000000     ................
e00055f8:	00000000 00000000 00000000 00000000     ................
e0005608:	00000000 00000000 00000000 00000000     ................
e0005618:	00000000 00000000 00000000 00000000     ................
e0005628:	00000000 00000000 00000000 00000000     ................
e0005638:	00000000 00000000 00000000 00000000     ................
e0005648:	00000000 00000000 00000000 00000000     ................
e0005658:	00000000 00000000 00000000 00000000     ................
e0005668:	00000000 00000000 00000000 00000000     ................
e0005678:	00000000 00000000 00000000 00000000     ................
e0005688:	00000000 00000000 00000000 00000000     ................
e0005698:	00000000 00000000 00000000 00000000     ................
e00056a8:	00000000 00000000 00000000 00000000     ................
e00056b8:	00000000 00000000 00000000 00000000     ................
e00056c8:	00000000 00000000 00000000 00000000     ................
e00056d8:	00000000 00000000 00000000 00000000     ................
e00056e8:	00000000 00000000 00000000 00000000     ................
e00056f8:	00000000 00000000 00000000 00000000     ................
e0005708:	00000000 00000000 00000000 00000000     ................
e0005718:	00000000 00000000 00000000 00000000     ................
e0005728:	00000000 00000000 00000000 00000000     ................
e0005738:	00000000 00000000 00000000 00000000     ................
e0005748:	00000000 00000000 00000000 00000000     ................
e0005758:	00000000 00000000 00000000 00000000     ................
e0005768:	00000000 00000000 00000000 00000000     ................
e0005778:	00000000 00000000 00000000 00000000     ................
e0005788:	00000000 00000000 00000000 00000000     ................
e0005798:	00000000 00000000 00000000 00000000     ................
e00057a8:	00000000 00000000 00000000 00000000     ................
e00057b8:	00000000 00000000 00000000 00000000     ................
e00057c8:	00000000 00000000 00000000 00000000     ................
e00057d8:	00000000 00000000 00000000 00000000     ................
e00057e8:	00000000 00000000 00000000 00000000     ................
e00057f8:	00000000 00000000 00000000 00000000     ................
e0005808:	00000000 00000000 00000000 00000000     ................
e0005818:	00000000 00000000 00000000 00000000     ................
e0005828:	00000000 00000000 00000000 00000000     ................
e0005838:	00000000 00000000 00000000 00000000     ................
e0005848:	00000000 00000000 00000000 00000000     ................
e0005858:	00000000 00000000 00000000 00000000     ................
e0005868:	00000000 00000000 00000000 00000000     ................
e0005878:	00000000 00000000 00000000 00000000     ................
e0005888:	00000000 00000000 00000000 00000000     ................
e0005898:	00000000 00000000 00000000 00000000     ................
e00058a8:	00000000 00000000 00000000 00000000     ................
e00058b8:	00000000 00000000 00000000 00000000     ................
e00058c8:	00000000 00000000 00000000 00000000     ................
e00058d8:	00000000 00000000 00000000 00000000     ................
e00058e8:	00000000 00000000 00000000 00000000     ................
e00058f8:	00000000 00000000 00000000 00000000     ................
e0005908:	00000000 00000000 00000000 00000000     ................
e0005918:	00000000 00000000 00000000 00000000     ................
e0005928:	00000000 00000000 00000000 00000000     ................
e0005938:	00000000 00000000 00000000 00000000     ................
e0005948:	00000000 00000000 00000000 00000000     ................
e0005958:	00000000 00000000 00000000 00000000     ................
e0005968:	00000000 00000000 00000000 00000000     ................
e0005978:	00000000 00000000 00000000 00000000     ................
e0005988:	00000000 00000000 00000000 00000000     ................
e0005998:	00000000 00000000 00000000 00000000     ................
e00059a8:	00000000 00000000 00000000 00000000     ................
e00059b8:	00000000 00000000 00000000 00000000     ................
e00059c8:	00000000 00000000 00000000 00000000     ................
e00059d8:	00000000 00000000 00000000 00000000     ................
e00059e8:	00000000 00000000 00000000 00000000     ................
e00059f8:	00000000 00000000 00000000 00000000     ................
e0005a08:	00000000 00000000 00000000 00000000     ................
e0005a18:	00000000 00000000 00000000 00000000     ................
e0005a28:	00000000 00000000 00000000 00000000     ................
e0005a38:	00000000 00000000 00000000 00000000     ................
e0005a48:	00000000 00000000 00000000 00000000     ................
e0005a58:	00000000 00000000 00000000 00000000     ................
e0005a68:	00000000 00000000 00000000 00000000     ................
e0005a78:	00000000 00000000 00000000 00000000     ................
e0005a88:	00000000 00000000 00000000 00000000     ................
e0005a98:	00000000 00000000 00000000 00000000     ................
e0005aa8:	00000000 00000000 00000000 00000000     ................
e0005ab8:	00000000 00000000 00000000 00000000     ................
e0005ac8:	00000000 00000000 00000000 00000000     ................
e0005ad8:	00000000 00000000 00000000 00000000     ................
e0005ae8:	00000000 00000000 00000000 00000000     ................
e0005af8:	00000000 00000000 00000000 00000000     ................
e0005b08:	00000000 00000000 00000000 00000000     ................
e0005b18:	00000000 00000000 00000000 00000000     ................
e0005b28:	00000000 00000000 00000000 00000000     ................
e0005b38:	00000000 00000000 00000000 00000000     ................
e0005b48:	00000000 00000000 00000000 00000000     ................
e0005b58:	00000000 00000000 00000000 00000000     ................
e0005b68:	00000000 00000000 00000000 00000000     ................
e0005b78:	00000000 00000000 00000000 00000000     ................
e0005b88:	00000000 00000000 00000000 00000000     ................
e0005b98:	00000000 00000000 00000000 00000000     ................
e0005ba8:	00000000 00000000 00000000 00000000     ................
e0005bb8:	00000000 00000000 00000000 00000000     ................
e0005bc8:	00000000 00000000 00000000 00000000     ................
e0005bd8:	00000000 00000000 00000000 00000000     ................
e0005be8:	00000000 00000000 00000000 00000000     ................
e0005bf8:	00000000 00000000 00000000 00000000     ................
e0005c08:	00000000 00000000 00000000 00000000     ................
e0005c18:	00000000 00000000 00000000 00000000     ................
e0005c28:	00000000 00000000 00000000 00000000     ................
e0005c38:	00000000 00000000 00000000 00000000     ................
e0005c48:	00000000 00000000 00000000 00000000     ................
e0005c58:	00000000 00000000 00000000 00000000     ................
e0005c68:	00000000 00000000 00000000 00000000     ................
e0005c78:	00000000 00000000 00000000 00000000     ................
e0005c88:	00000000 00000000 00000000 00000000     ................
e0005c98:	00000000 00000000 00000000 00000000     ................
e0005ca8:	00000000 00000000 00000000 00000000     ................
e0005cb8:	00000000 00000000 00000000 00000000     ................
e0005cc8:	00000000 00000000 00000000 00000000     ................
e0005cd8:	00000000 00000000 00000000 00000000     ................
e0005ce8:	00000000 00000000 00000000 00000000     ................
e0005cf8:	00000000 00000000 00000000 00000000     ................
e0005d08:	00000000 00000000 00000000 00000000     ................
e0005d18:	00000000 00000000 00000000 00000000     ................
e0005d28:	00000000 00000000 00000000 00000000     ................
e0005d38:	00000000 00000000 00000000 00000000     ................
e0005d48:	00000000 00000000 00000000 00000000     ................
e0005d58:	00000000 00000000 00000000 00000000     ................
e0005d68:	00000000 00000000 00000000 00000000     ................
e0005d78:	00000000 00000000 00000000 00000000     ................
e0005d88:	00000000 00000000 00000000 00000000     ................
e0005d98:	00000000 00000000 00000000 00000000     ................
e0005da8:	00000000 00000000 00000000 00000000     ................
e0005db8:	00000000 00000000 00000000 00000000     ................
e0005dc8:	00000000 00000000 00000000 00000000     ................
e0005dd8:	00000000 00000000 00000000 00000000     ................
e0005de8:	00000000 00000000 00000000 00000000     ................
e0005df8:	00000000 00000000 00000000 00000000     ................
e0005e08:	00000000 00000000 00000000 00000000     ................
e0005e18:	00000000 00000000 00000000 00000000     ................
e0005e28:	00000000 00000000 00000000 00000000     ................
e0005e38:	00000000 00000000 00000000 00000000     ................
e0005e48:	00000000 00000000 00000000 00000000     ................
e0005e58:	00000000 00000000 00000000 00000000     ................
e0005e68:	00000000 00000000 00000000 00000000     ................
e0005e78:	00000000 00000000 00000000 00000000     ................
e0005e88:	00000000 00000000 00000000 00000000     ................
e0005e98:	00000000 00000000 00000000 00000000     ................
e0005ea8:	00000000 00000000 00000000 00000000     ................
e0005eb8:	00000000 00000000 00000000 00000000     ................
e0005ec8:	00000000 00000000 00000000 00000000     ................
e0005ed8:	00000000 00000000 00000000 00000000     ................
e0005ee8:	00000000 00000000 00000000 00000000     ................
e0005ef8:	00000000 00000000 00000000 00000000     ................
e0005f08:	00000000 00000000 00000000 00000000     ................
e0005f18:	00000000 00000000 00000000 00000000     ................
e0005f28:	00000000 00000000 00000000 00000000     ................
e0005f38:	00000000 00000000 00000000 00000000     ................
e0005f48:	00000000 00000000 00000000 00000000     ................
e0005f58:	00000000 00000000 00000000 00000000     ................
e0005f68:	00000000 00000000 00000000 00000000     ................
e0005f78:	00000000 00000000 00000000 00000000     ................
e0005f88:	00000000 00000000 00000000 00000000     ................
e0005f98:	00000000 00000000 00000000 00000000     ................
e0005fa8:	00000000 00000000 00000000 00000000     ................
e0005fb8:	00000000 00000000 00000000 00000000     ................
e0005fc8:	00000000 00000000 00000000 00000000     ................
e0005fd8:	00000000 00000000 00000000 00000000     ................
e0005fe8:	00000000 00000000 00000000 00000000     ................
e0005ff8:	00000000 00000000 00000000 00000000     ................
e0006008:	00000000 00000000 00000000 00000000     ................
e0006018:	00000000 00000000 00000000 00000000     ................
e0006028:	00000000 00000000 00000000 00000000     ................
e0006038:	00000000 00000000 00000000 00000000     ................
e0006048:	00000000 00000000 00000000 00000000     ................
e0006058:	00000000 00000000 00000000 00000000     ................
e0006068:	00000000 00000000 00000000 00000000     ................
e0006078:	00000000 00000000 00000000 00000000     ................
e0006088:	00000000 00000000 00000000 00000000     ................
e0006098:	00000000 00000000 00000000 00000000     ................
e00060a8:	00000000 00000000 00000000 00000000     ................
e00060b8:	00000000 00000000 00000000 00000000     ................
e00060c8:	00000000 00000000 00000000 00000000     ................
e00060d8:	00000000 00000000 00000000 00000000     ................
e00060e8:	00000000 00000000 00000000 00000000     ................
e00060f8:	00000000 00000000 00000000 00000000     ................
e0006108:	00000000 00000000 00000000 00000000     ................
e0006118:	00000000 00000000 00000000 00000000     ................
e0006128:	00000000 00000000 00000000 00000000     ................
e0006138:	00000000 00000000 00000000 00000000     ................
e0006148:	00000000 00000000 00000000 00000000     ................
e0006158:	00000000 00000000 00000000 00000000     ................
e0006168:	00000000 00000000 00000000 00000000     ................
e0006178:	00000000 00000000 00000000 00000000     ................
e0006188:	00000000 00000000 00000000 00000000     ................
e0006198:	00000000 00000000 00000000 00000000     ................
e00061a8:	00000000 00000000 00000000 00000000     ................
e00061b8:	00000000 00000000 00000000 00000000     ................
e00061c8:	00000000 00000000 00000000 00000000     ................
e00061d8:	00000000 00000000 00000000 00000000     ................
e00061e8:	00000000 00000000 00000000 00000000     ................
e00061f8:	00000000 00000000 00000000 00000000     ................
e0006208:	00000000 00000000 00000000 00000000     ................
e0006218:	00000000 00000000 00000000 00000000     ................
e0006228:	00000000 00000000 00000000 00000000     ................
e0006238:	00000000 00000000 00000000 00000000     ................
e0006248:	00000000 00000000 00000000 00000000     ................
e0006258:	00000000 00000000 00000000 00000000     ................
e0006268:	00000000 00000000 00000000 00000000     ................
e0006278:	00000000 00000000 00000000 00000000     ................
e0006288:	00000000 00000000 00000000 00000000     ................
e0006298:	00000000 00000000 00000000 00000000     ................
e00062a8:	00000000 00000000 00000000 00000000     ................
e00062b8:	00000000 00000000 00000000 00000000     ................
e00062c8:	00000000 00000000 00000000 00000000     ................
e00062d8:	00000000 00000000 00000000 00000000     ................
e00062e8:	00000000 00000000 00000000 00000000     ................
e00062f8:	00000000 00000000 00000000 00000000     ................
e0006308:	00000000 00000000 00000000 00000000     ................
e0006318:	00000000 00000000 00000000 00000000     ................
e0006328:	00000000 00000000 00000000 00000000     ................
e0006338:	00000000 00000000 00000000 00000000     ................
e0006348:	00000000 00000000 00000000 00000000     ................
e0006358:	00000000 00000000 00000000 00000000     ................
e0006368:	00000000 00000000 00000000 00000000     ................
e0006378:	00000000 00000000 00000000 00000000     ................
e0006388:	00000000 00000000 00000000 00000000     ................
e0006398:	00000000 00000000 00000000 00000000     ................
e00063a8:	00000000 00000000 00000000 00000000     ................
e00063b8:	00000000 00000000 00000000 00000000     ................
e00063c8:	00000000 00000000 00000000 00000000     ................
e00063d8:	00000000 00000000 00000000 00000000     ................
e00063e8:	00000000 00000000 00000000 00000000     ................
e00063f8:	00000000 00000000 00000000 00000000     ................
e0006408:	00000000 00000000 00000000 00000000     ................
e0006418:	00000000 00000000 00000000 00000000     ................
e0006428:	00000000 00000000 00000000 00000000     ................
e0006438:	00000000 00000000 00000000 00000000     ................
e0006448:	00000000 00000000 00000000 00000000     ................
e0006458:	00000000 00000000 00000000 00000000     ................
e0006468:	00000000 00000000 00000000 00000000     ................
e0006478:	00000000 00000000 00000000 00000000     ................
e0006488:	00000000 00000000 00000000 00000000     ................
e0006498:	00000000 00000000 00000000 00000000     ................
e00064a8:	00000000 00000000 00000000 00000000     ................
e00064b8:	00000000 00000000 00000000 00000000     ................
e00064c8:	00000000 00000000 00000000 00000000     ................
e00064d8:	00000000 00000000 00000000 00000000     ................
e00064e8:	00000000 00000000 00000000 00000000     ................
e00064f8:	00000000 00000000 00000000 00000000     ................
e0006508:	00000000 00000000 00000000 00000000     ................
e0006518:	00000000 00000000 00000000 00000000     ................
e0006528:	00000000 00000000 00000000 00000000     ................
e0006538:	00000000 00000000 00000000 00000000     ................
e0006548:	00000000 00000000 00000000 00000000     ................
e0006558:	00000000 00000000 00000000 00000000     ................
e0006568:	00000000 00000000 00000000 00000000     ................
e0006578:	00000000 00000000 00000000 00000000     ................
e0006588:	00000000 00000000 00000000 00000000     ................
e0006598:	00000000 00000000 00000000 00000000     ................
e00065a8:	00000000 00000000 00000000 00000000     ................
e00065b8:	00000000 00000000 00000000 00000000     ................
e00065c8:	00000000 00000000 00000000 00000000     ................
e00065d8:	00000000 00000000 00000000 00000000     ................
e00065e8:	00000000 00000000 00000000 00000000     ................
e00065f8:	00000000 00000000 00000000 00000000     ................
e0006608:	00000000 00000000 00000000 00000000     ................
e0006618:	00000000 00000000 00000000 00000000     ................
e0006628:	00000000 00000000 00000000 00000000     ................
e0006638:	00000000 00000000 00000000 00000000     ................
e0006648:	00000000 00000000 00000000 00000000     ................
e0006658:	00000000 00000000 00000000 00000000     ................
e0006668:	00000000 00000000 00000000 00000000     ................
e0006678:	00000000 00000000 00000000 00000000     ................
e0006688:	00000000 00000000 00000000 00000000     ................
e0006698:	00000000 00000000 00000000 00000000     ................
e00066a8:	00000000 00000000 00000000 00000000     ................
e00066b8:	00000000 00000000 00000000 00000000     ................
e00066c8:	00000000 00000000 00000000 00000000     ................
e00066d8:	00000000 00000000 00000000 00000000     ................
e00066e8:	00000000 00000000 00000000 00000000     ................
e00066f8:	00000000 00000000 00000000 00000000     ................
e0006708:	00000000 00000000 00000000 00000000     ................
e0006718:	00000000 00000000 00000000 00000000     ................
e0006728:	00000000 00000000 00000000 00000000     ................
e0006738:	00000000 00000000 00000000 00000000     ................
e0006748:	00000000 00000000 00000000 00000000     ................
e0006758:	00000000 00000000 00000000 00000000     ................
e0006768:	00000000 00000000 00000000 00000000     ................
e0006778:	00000000 00000000 00000000 00000000     ................
e0006788:	00000000 00000000 00000000 00000000     ................
e0006798:	00000000 00000000 00000000 00000000     ................
e00067a8:	00000000 00000000 00000000 00000000     ................
e00067b8:	00000000 00000000 00000000 00000000     ................
e00067c8:	00000000 00000000 00000000 00000000     ................
e00067d8:	00000000 00000000 00000000 00000000     ................
e00067e8:	00000000 00000000 00000000 00000000     ................
e00067f8:	00000000 00000000 00000000 00000000     ................
e0006808:	00000000 00000000 00000000 00000000     ................
e0006818:	00000000 00000000 00000000 00000000     ................
e0006828:	00000000 00000000 00000000 00000000     ................
e0006838:	00000000 00000000 00000000 00000000     ................
e0006848:	00000000 00000000 00000000 00000000     ................
e0006858:	00000000 00000000 00000000 00000000     ................
e0006868:	00000000 00000000 00000000 00000000     ................
e0006878:	00000000 00000000 00000000 00000000     ................
e0006888:	00000000 00000000 00000000 00000000     ................
e0006898:	00000000 00000000 00000000 00000000     ................
e00068a8:	00000000 00000000 00000000 00000000     ................
e00068b8:	00000000 00000000 00000000 00000000     ................
e00068c8:	00000000 00000000 00000000 00000000     ................
e00068d8:	00000000 00000000 00000000 00000000     ................
e00068e8:	00000000 00000000 00000000 00000000     ................
e00068f8:	00000000 00000000 00000000 00000000     ................
e0006908:	00000000 00000000 00000000 00000000     ................
e0006918:	00000000 00000000 00000000 00000000     ................
e0006928:	00000000 00000000 00000000 00000000     ................
e0006938:	00000000 00000000 00000000 00000000     ................
e0006948:	00000000 00000000 00000000 00000000     ................
e0006958:	00000000 00000000 00000000 00000000     ................
e0006968:	00000000 00000000 00000000 00000000     ................
e0006978:	00000000 00000000 00000000 00000000     ................
e0006988:	00000000 00000000 00000000 00000000     ................
e0006998:	00000000 00000000 00000000 00000000     ................
e00069a8:	00000000 00000000 00000000 00000000     ................
e00069b8:	00000000 00000000 00000000 00000000     ................
e00069c8:	00000000 00000000 00000000 00000000     ................
e00069d8:	00000000 00000000 00000000 00000000     ................
e00069e8:	00000000 00000000 00000000 00000000     ................
e00069f8:	00000000 00000000 00000000 00000000     ................
e0006a08:	00000000 00000000 00000000 00000000     ................
e0006a18:	00000000 00000000 00000000 00000000     ................
e0006a28:	00000000 00000000 00000000 00000000     ................
e0006a38:	00000000 00000000 00000000 00000000     ................
e0006a48:	00000000 00000000 00000000 00000000     ................
e0006a58:	00000000 00000000 00000000 00000000     ................
e0006a68:	00000000 00000000 00000000 00000000     ................
e0006a78:	00000000 00000000 00000000 00000000     ................
e0006a88:	00000000 00000000 00000000 00000000     ................
e0006a98:	00000000 00000000 00000000 00000000     ................
e0006aa8:	00000000 00000000 00000000 00000000     ................
e0006ab8:	00000000 00000000 00000000 00000000     ................
e0006ac8:	00000000 00000000 00000000 00000000     ................
e0006ad8:	00000000 00000000 00000000 00000000     ................
e0006ae8:	00000000 00000000 00000000 00000000     ................
e0006af8:	00000000 00000000 00000000 00000000     ................
e0006b08:	00000000 00000000 00000000 00000000     ................
e0006b18:	00000000 00000000 00000000 00000000     ................
e0006b28:	00000000 00000000 00000000 00000000     ................
e0006b38:	00000000 00000000 00000000 00000000     ................
e0006b48:	00000000 00000000 00000000 00000000     ................
e0006b58:	00000000 00000000 00000000 00000000     ................
e0006b68:	00000000 00000000 00000000 00000000     ................
e0006b78:	00000000 00000000 00000000 00000000     ................
e0006b88:	00000000 00000000 00000000 00000000     ................
e0006b98:	00000000 00000000 00000000 00000000     ................
e0006ba8:	00000000 00000000 00000000 00000000     ................
e0006bb8:	00000000 00000000 00000000 00000000     ................
e0006bc8:	00000000 00000000 00000000 00000000     ................
e0006bd8:	00000000 00000000 00000000 00000000     ................
e0006be8:	00000000 00000000 00000000 00000000     ................
e0006bf8:	00000000 00000000 00000000 00000000     ................
e0006c08:	00000000 00000000 00000000 00000000     ................
e0006c18:	00000000 00000000 00000000 00000000     ................
e0006c28:	00000000 00000000 00000000 00000000     ................
e0006c38:	00000000 00000000 00000000 00000000     ................
e0006c48:	00000000 00000000 00000000 00000000     ................
e0006c58:	00000000 00000000 00000000 00000000     ................
e0006c68:	00000000 00000000 00000000 00000000     ................
e0006c78:	00000000 00000000 00000000 00000000     ................
e0006c88:	00000000 00000000 00000000 00000000     ................
e0006c98:	00000000 00000000 00000000 00000000     ................
e0006ca8:	00000000 00000000 00000000 00000000     ................
e0006cb8:	00000000 00000000 00000000 00000000     ................
e0006cc8:	00000000 00000000 00000000 00000000     ................
e0006cd8:	00000000 00000000 00000000 00000000     ................
e0006ce8:	00000000 00000000 00000000 00000000     ................
e0006cf8:	00000000 00000000 00000000 00000000     ................
e0006d08:	00000000 00000000 00000000 00000000     ................
e0006d18:	00000000 00000000 00000000 00000000     ................
e0006d28:	00000000 00000000 00000000 00000000     ................
e0006d38:	00000000 00000000 00000000 00000000     ................
e0006d48:	00000000 00000000 00000000 00000000     ................
e0006d58:	00000000 00000000 00000000 00000000     ................
e0006d68:	00000000 00000000 00000000 00000000     ................
e0006d78:	00000000 00000000 00000000 00000000     ................
e0006d88:	00000000 00000000 00000000 00000000     ................
e0006d98:	00000000 00000000 00000000 00000000     ................
e0006da8:	00000000 00000000 00000000 00000000     ................
e0006db8:	00000000 00000000 00000000 00000000     ................
e0006dc8:	00000000 00000000 00000000 00000000     ................
e0006dd8:	00000000 00000000 00000000 00000000     ................
e0006de8:	00000000 00000000 00000000 00000000     ................
e0006df8:	00000000 00000000 00000000 00000000     ................
e0006e08:	00000000 00000000 00000000 00000000     ................
e0006e18:	00000000 00000000 00000000 00000000     ................
e0006e28:	00000000 00000000 00000000 00000000     ................
e0006e38:	00000000 00000000 00000000 00000000     ................
e0006e48:	00000000 00000000 00000000 00000000     ................
e0006e58:	00000000 00000000 00000000 00000000     ................
e0006e68:	00000000 00000000 00000000 00000000     ................
e0006e78:	00000000 00000000 00000000 00000000     ................
e0006e88:	00000000 00000000 00000000 00000000     ................
e0006e98:	00000000 00000000 00000000 00000000     ................
e0006ea8:	00000000 00000000 00000000 00000000     ................
e0006eb8:	00000000 00000000 00000000 00000000     ................
e0006ec8:	00000000 00000000 00000000 00000000     ................
e0006ed8:	00000000 00000000 00000000 00000000     ................
e0006ee8:	00000000 00000000 00000000 00000000     ................
e0006ef8:	00000000 00000000 00000000 00000000     ................
e0006f08:	00000000 00000000 00000000 00000000     ................
e0006f18:	00000000 00000000 00000000 00000000     ................
e0006f28:	00000000 00000000 00000000 00000000     ................
e0006f38:	00000000 00000000 00000000 00000000     ................
e0006f48:	00000000 00000000 00000000 00000000     ................
e0006f58:	00000000 00000000 00000000 00000000     ................
e0006f68:	00000000 00000000 00000000 00000000     ................
e0006f78:	00000000 00000000 00000000 00000000     ................
e0006f88:	00000000 00000000 00000000 00000000     ................
e0006f98:	00000000 00000000 00000000 00000000     ................
e0006fa8:	00000000 00000000 00000000 00000000     ................
e0006fb8:	00000000 00000000 00000000 00000000     ................
e0006fc8:	00000000 00000000 00000000 00000000     ................
e0006fd8:	00000000 00000000 00000000 00000000     ................
e0006fe8:	00000000 00000000 00000000 00000000     ................
e0006ff8:	00000000 00000000 00000000 00000000     ................
e0007008:	00000000 00000000 00000000 00000000     ................
e0007018:	00000000 00000000 00000000 00000000     ................
e0007028:	00000000 00000000 00000000 00000000     ................
e0007038:	00000000 00000000 00000000 00000000     ................
e0007048:	00000000 00000000 00000000 00000000     ................
e0007058:	00000000 00000000 00000000 00000000     ................
e0007068:	00000000 00000000 00000000 00000000     ................
e0007078:	00000000 00000000 00000000 00000000     ................
e0007088:	00000000 00000000 00000000 00000000     ................
e0007098:	00000000 00000000 00000000 00000000     ................
e00070a8:	00000000 00000000 00000000 00000000     ................
e00070b8:	00000000 00000000 00000000 00000000     ................
e00070c8:	00000000 00000000 00000000 00000000     ................
e00070d8:	00000000 00000000 00000000 00000000     ................
e00070e8:	00000000 00000000 00000000 00000000     ................
e00070f8:	00000000 00000000 00000000 00000000     ................
e0007108:	00000000 00000000 00000000 00000000     ................
e0007118:	00000000 00000000 00000000 00000000     ................
e0007128:	00000000 00000000 00000000 00000000     ................
e0007138:	00000000 00000000 00000000 00000000     ................
e0007148:	00000000 00000000 00000000 00000000     ................
e0007158:	00000000 00000000 00000000 00000000     ................
e0007168:	00000000 00000000 00000000 00000000     ................
e0007178:	00000000 00000000 00000000 00000000     ................
e0007188:	00000000 00000000 00000000 00000000     ................
e0007198:	00000000 00000000 00000000 00000000     ................
e00071a8:	00000000 00000000 00000000 00000000     ................
e00071b8:	00000000 00000000 00000000 00000000     ................
e00071c8:	00000000 00000000 00000000 00000000     ................
e00071d8:	00000000 00000000 00000000 00000000     ................
e00071e8:	00000000 00000000 00000000 00000000     ................
e00071f8:	00000000 00000000 00000000 00000000     ................
e0007208:	00000000 00000000 00000000 00000000     ................
e0007218:	00000000 00000000 00000000 00000000     ................
e0007228:	00000000 00000000 00000000 00000000     ................
e0007238:	00000000 00000000 00000000 00000000     ................
e0007248:	00000000 00000000 00000000 00000000     ................
e0007258:	00000000 00000000 00000000 00000000     ................
e0007268:	00000000 00000000 00000000 00000000     ................
e0007278:	00000000 00000000 00000000 00000000     ................
e0007288:	00000000 00000000 00000000 00000000     ................
e0007298:	00000000 00000000 00000000 00000000     ................
e00072a8:	00000000 00000000 00000000 00000000     ................
e00072b8:	00000000 00000000 00000000 00000000     ................
e00072c8:	00000000 00000000 00000000 00000000     ................
e00072d8:	00000000 00000000 00000000 00000000     ................
e00072e8:	00000000 00000000 00000000 00000000     ................
e00072f8:	00000000 00000000 00000000 00000000     ................
e0007308:	00000000 00000000 00000000 00000000     ................
e0007318:	00000000 00000000 00000000 00000000     ................
e0007328:	00000000 00000000 00000000 00000000     ................
e0007338:	00000000 00000000 00000000 00000000     ................
e0007348:	00000000 00000000 00000000 00000000     ................
e0007358:	00000000 00000000 00000000 00000000     ................
e0007368:	00000000 00000000 00000000 00000000     ................
e0007378:	00000000 00000000 00000000 00000000     ................
e0007388:	00000000 00000000 00000000 00000000     ................
e0007398:	00000000 00000000 00000000 00000000     ................
e00073a8:	00000000 00000000 00000000 00000000     ................
e00073b8:	00000000 00000000 00000000 00000000     ................
e00073c8:	00000000 00000000 00000000 00000000     ................
e00073d8:	00000000 00000000 00000000 00000000     ................
e00073e8:	00000000 00000000 00000000 00000000     ................
e00073f8:	00000000 00000000 00000000 00000000     ................
e0007408:	00000000 00000000 00000000 00000000     ................
e0007418:	00000000 00000000 00000000 00000000     ................
e0007428:	00000000 00000000 00000000 00000000     ................
e0007438:	00000000 00000000 00000000 00000000     ................
e0007448:	00000000 00000000 00000000 00000000     ................
e0007458:	00000000 00000000 00000000 00000000     ................
e0007468:	00000000 00000000 00000000 00000000     ................
e0007478:	00000000 00000000 00000000 00000000     ................
e0007488:	00000000 00000000 00000000 00000000     ................
e0007498:	00000000 00000000 00000000 00000000     ................
e00074a8:	00000000 00000000 00000000 00000000     ................
e00074b8:	00000000 00000000 00000000 00000000     ................
e00074c8:	00000000 00000000 00000000 00000000     ................
e00074d8:	00000000 00000000 00000000 00000000     ................
e00074e8:	00000000 00000000 00000000 00000000     ................
e00074f8:	00000000 00000000 00000000 00000000     ................
e0007508:	00000000 00000000 00000000 00000000     ................
e0007518:	00000000 00000000 00000000 00000000     ................
e0007528:	00000000 00000000 00000000 00000000     ................
e0007538:	00000000 00000000 00000000 00000000     ................
e0007548:	00000000 00000000 00000000 00000000     ................
e0007558:	00000000 00000000 00000000 00000000     ................
e0007568:	00000000 00000000 00000000 00000000     ................
e0007578:	00000000 00000000 00000000 00000000     ................
e0007588:	00000000 00000000 00000000 00000000     ................
e0007598:	00000000 00000000 00000000 00000000     ................
e00075a8:	00000000 00000000 00000000 00000000     ................
e00075b8:	00000000 00000000 00000000 00000000     ................
e00075c8:	00000000 00000000 00000000 00000000     ................
e00075d8:	00000000 00000000 00000000 00000000     ................
e00075e8:	00000000 00000000 00000000 00000000     ................
e00075f8:	00000000 00000000 00000000 00000000     ................
e0007608:	00000000 00000000 00000000 00000000     ................
e0007618:	00000000 00000000 00000000 00000000     ................
e0007628:	00000000 00000000 00000000 00000000     ................
e0007638:	00000000 00000000 00000000 00000000     ................
e0007648:	00000000 00000000 00000000 00000000     ................
e0007658:	00000000 00000000 00000000 00000000     ................
e0007668:	00000000 00000000 00000000 00000000     ................
e0007678:	00000000 00000000 00000000 00000000     ................
e0007688:	00000000 00000000 00000000 00000000     ................
e0007698:	00000000 00000000 00000000 00000000     ................
e00076a8:	00000000 00000000 00000000 00000000     ................
e00076b8:	00000000 00000000 00000000 00000000     ................
e00076c8:	00000000 00000000 00000000 00000000     ................
e00076d8:	00000000 00000000 00000000 00000000     ................
e00076e8:	00000000 00000000 00000000 00000000     ................
e00076f8:	00000000 00000000 00000000 00000000     ................
e0007708:	00000000 00000000 00000000 00000000     ................
e0007718:	00000000 00000000 00000000 00000000     ................
e0007728:	00000000 00000000 00000000 00000000     ................
e0007738:	00000000 00000000 00000000 00000000     ................
e0007748:	00000000 00000000 00000000 00000000     ................
e0007758:	00000000 00000000 00000000 00000000     ................
e0007768:	00000000 00000000 00000000 00000000     ................
e0007778:	00000000 00000000 00000000 00000000     ................
e0007788:	00000000 00000000 00000000 00000000     ................
e0007798:	00000000 00000000 00000000 00000000     ................
e00077a8:	00000000 00000000 00000000 00000000     ................
e00077b8:	00000000 00000000 00000000 00000000     ................
e00077c8:	00000000 00000000 00000000 00000000     ................
e00077d8:	00000000 00000000 00000000 00000000     ................
e00077e8:	00000000 00000000 00000000 00000000     ................
e00077f8:	00000000 00000000 00000000 00000000     ................
e0007808:	00000000 00000000 00000000 00000000     ................
e0007818:	00000000 00000000 00000000 00000000     ................
e0007828:	00000000 00000000 00000000 00000000     ................
e0007838:	00000000 00000000 00000000 00000000     ................
e0007848:	00000000 00000000 00000000 00000000     ................
e0007858:	00000000 00000000 00000000 00000000     ................
e0007868:	00000000 00000000 00000000 00000000     ................
e0007878:	00000000 00000000 00000000 00000000     ................
e0007888:	00000000 00000000 00000000 00000000     ................
e0007898:	00000000 00000000 00000000 00000000     ................
e00078a8:	00000000 00000000 00000000 00000000     ................
e00078b8:	00000000 00000000 00000000 00000000     ................
e00078c8:	00000000 00000000 00000000 00000000     ................
e00078d8:	00000000 00000000 00000000 00000000     ................
e00078e8:	00000000 00000000 00000000 00000000     ................
e00078f8:	00000000 00000000 00000000 00000000     ................
e0007908:	00000000 00000000 00000000 00000000     ................
e0007918:	00000000 00000000 00000000 00000000     ................
e0007928:	00000000 00000000 00000000 00000000     ................
e0007938:	00000000 00000000 00000000 00000000     ................
e0007948:	00000000 00000000 00000000 00000000     ................
e0007958:	00000000 00000000 00000000 00000000     ................
e0007968:	00000000 00000000 00000000 00000000     ................
e0007978:	00000000 00000000 00000000 00000000     ................
e0007988:	00000000 00000000 00000000 00000000     ................
e0007998:	00000000 00000000 00000000 00000000     ................
e00079a8:	00000000 00000000 00000000 00000000     ................
e00079b8:	00000000 00000000 00000000 00000000     ................
e00079c8:	00000000 00000000 00000000 00000000     ................
e00079d8:	00000000 00000000 00000000 00000000     ................
e00079e8:	00000000 00000000 00000000 00000000     ................
e00079f8:	00000000 00000000 00000000 00000000     ................
e0007a08:	00000000 00000000 00000000 00000000     ................
e0007a18:	00000000 00000000 00000000 00000000     ................
e0007a28:	00000000 00000000 00000000 00000000     ................
e0007a38:	00000000 00000000 00000000 00000000     ................
e0007a48:	00000000 00000000 00000000 00000000     ................
e0007a58:	00000000 00000000 00000000 00000000     ................
e0007a68:	00000000 00000000 00000000 00000000     ................
e0007a78:	00000000 00000000 00000000 00000000     ................
e0007a88:	00000000 00000000 00000000 00000000     ................
e0007a98:	00000000 00000000 00000000 00000000     ................
e0007aa8:	00000000 00000000 00000000 00000000     ................
e0007ab8:	00000000 00000000 00000000 00000000     ................
e0007ac8:	00000000 00000000 00000000 00000000     ................
e0007ad8:	00000000 00000000 00000000 00000000     ................
e0007ae8:	00000000 00000000 00000000 00000000     ................
e0007af8:	00000000 00000000 00000000 00000000     ................
e0007b08:	00000000 00000000 00000000 00000000     ................
e0007b18:	00000000 00000000 00000000 00000000     ................
e0007b28:	00000000 00000000 00000000 00000000     ................
e0007b38:	00000000 00000000 00000000 00000000     ................
e0007b48:	00000000 00000000 00000000 00000000     ................
e0007b58:	00000000 00000000 00000000 00000000     ................
e0007b68:	00000000 00000000 00000000 00000000     ................
e0007b78:	00000000 00000000 00000000 00000000     ................
e0007b88:	00000000 00000000 00000000 00000000     ................
e0007b98:	00000000 00000000 00000000 00000000     ................
e0007ba8:	00000000 00000000 00000000 00000000     ................
e0007bb8:	00000000 00000000 00000000 00000000     ................
e0007bc8:	00000000 00000000 00000000 00000000     ................
e0007bd8:	00000000 00000000 00000000 00000000     ................
e0007be8:	00000000 00000000 00000000 00000000     ................
e0007bf8:	00000000 00000000 00000000 00000000     ................
e0007c08:	00000000 00000000 00000000 00000000     ................
e0007c18:	00000000 00000000 00000000 00000000     ................
e0007c28:	00000000 00000000 00000000 00000000     ................
e0007c38:	00000000 00000000 00000000 00000000     ................
e0007c48:	00000000 00000000 00000000 00000000     ................
e0007c58:	00000000 00000000 00000000 00000000     ................
e0007c68:	00000000 00000000 00000000 00000000     ................
e0007c78:	00000000 00000000 00000000 00000000     ................
e0007c88:	00000000 00000000 00000000 00000000     ................
e0007c98:	00000000 00000000 00000000 00000000     ................
e0007ca8:	00000000 00000000 00000000 00000000     ................
e0007cb8:	00000000 00000000 00000000 00000000     ................
e0007cc8:	00000000 00000000 00000000 00000000     ................
e0007cd8:	00000000 00000000 00000000 00000000     ................
e0007ce8:	00000000 00000000 00000000 00000000     ................
e0007cf8:	00000000 00000000 00000000 00000000     ................
e0007d08:	00000000 00000000 00000000 00000000     ................
e0007d18:	00000000 00000000 00000000 00000000     ................
e0007d28:	00000000 00000000 00000000 00000000     ................
e0007d38:	00000000 00000000 00000000 00000000     ................
e0007d48:	00000000 00000000 00000000 00000000     ................
e0007d58:	00000000 00000000 00000000 00000000     ................
e0007d68:	00000000 00000000 00000000 00000000     ................
e0007d78:	00000000 00000000 00000000 00000000     ................
e0007d88:	00000000 00000000 00000000 00000000     ................
e0007d98:	00000000 00000000 00000000 00000000     ................
e0007da8:	00000000 00000000 00000000 00000000     ................
e0007db8:	00000000 00000000 00000000 00000000     ................
e0007dc8:	00000000 00000000 00000000 00000000     ................
e0007dd8:	00000000 00000000 00000000 00000000     ................
e0007de8:	00000000 00000000 00000000 00000000     ................
e0007df8:	00000000 00000000 00000000 00000000     ................
e0007e08:	00000000 00000000 00000000 00000000     ................
e0007e18:	00000000 00000000 00000000 00000000     ................
e0007e28:	00000000 00000000 00000000 00000000     ................
e0007e38:	00000000 00000000 00000000 00000000     ................
e0007e48:	00000000 00000000 00000000 00000000     ................
e0007e58:	00000000 00000000 00000000 00000000     ................
e0007e68:	00000000 00000000 00000000 00000000     ................
e0007e78:	00000000 00000000 00000000 00000000     ................
e0007e88:	00000000 00000000 00000000 00000000     ................
e0007e98:	00000000 00000000 00000000 00000000     ................
e0007ea8:	00000000 00000000 00000000 00000000     ................
e0007eb8:	00000000 00000000 00000000 00000000     ................
e0007ec8:	00000000 00000000 00000000 00000000     ................
e0007ed8:	00000000 00000000 00000000 00000000     ................
e0007ee8:	00000000 00000000 00000000 00000000     ................
e0007ef8:	00000000 00000000 00000000 00000000     ................
e0007f08:	00000000 00000000 00000000 00000000     ................
e0007f18:	00000000 00000000 00000000 00000000     ................
e0007f28:	00000000 00000000 00000000 00000000     ................
e0007f38:	00000000 00000000 00000000 00000000     ................
e0007f48:	00000000 00000000 00000000 00000000     ................
e0007f58:	00000000 00000000 00000000 00000000     ................
e0007f68:	00000000 00000000 00000000 00000000     ................
e0007f78:	00000000 00000000 00000000 00000000     ................
e0007f88:	00000000 00000000 00000000 00000000     ................
e0007f98:	00000000 00000000 00000000 00000000     ................
e0007fa8:	00000000 00000000 00000000 00000000     ................
e0007fb8:	00000000 00000000 00000000 00000000     ................
e0007fc8:	00000000 00000000 00000000 00000000     ................
e0007fd8:	00000000 00000000 00000000 00000000     ................
e0007fe8:	00000000 00000000 00000000 00000000     ................
e0007ff8:	00000000 00000000 00000000 00000000     ................
e0008008:	00000000 00000000 00000000 00000000     ................
e0008018:	00000000 00000000 00000000 00000000     ................
e0008028:	00000000 00000000 00000000 00000000     ................
e0008038:	00000000 00000000 00000000 00000000     ................
e0008048:	00000000 00000000 00000000 00000000     ................
e0008058:	00000000 00000000 00000000 00000000     ................
e0008068:	00000000 00000000 00000000 00000000     ................
e0008078:	00000000 00000000 00000000 00000000     ................
e0008088:	00000000 00000000 00000000 00000000     ................
e0008098:	00000000 00000000 00000000 00000000     ................
e00080a8:	00000000 00000000 00000000 00000000     ................
e00080b8:	00000000 00000000 00000000 00000000     ................
e00080c8:	00000000 00000000 00000000 00000000     ................
e00080d8:	00000000 00000000 00000000 00000000     ................
e00080e8:	00000000 00000000 00000000 00000000     ................
e00080f8:	00000000 00000000 00000000 00000000     ................
e0008108:	00000000 00000000 00000000 00000000     ................
e0008118:	00000000 00000000 00000000 00000000     ................
e0008128:	00000000 00000000 00000000 00000000     ................
e0008138:	00000000 00000000 00000000 00000000     ................
e0008148:	00000000 00000000 00000000 00000000     ................
e0008158:	00000000 00000000 00000000 00000000     ................
e0008168:	00000000 00000000 00000000 00000000     ................
e0008178:	00000000 00000000 00000000 00000000     ................
e0008188:	00000000 00000000 00000000 00000000     ................
e0008198:	00000000 00000000 00000000 00000000     ................
e00081a8:	00000000 00000000 00000000 00000000     ................
e00081b8:	00000000 00000000 00000000 00000000     ................
e00081c8:	00000000 00000000 00000000 00000000     ................
e00081d8:	00000000 00000000 00000000 00000000     ................
e00081e8:	00000000 00000000 00000000 00000000     ................
e00081f8:	00000000 00000000 00000000 00000000     ................
e0008208:	00000000 00000000 00000000 00000000     ................
e0008218:	00000000 00000000 00000000 00000000     ................
e0008228:	00000000 00000000 00000000 00000000     ................
e0008238:	00000000 00000000 00000000 00000000     ................
e0008248:	00000000 00000000 00000000 00000000     ................
e0008258:	00000000 00000000 00000000 00000000     ................
e0008268:	00000000 00000000 00000000 00000000     ................
e0008278:	00000000 00000000 00000000 00000000     ................
e0008288:	00000000 00000000 00000000 00000000     ................
e0008298:	00000000 00000000 00000000 00000000     ................
e00082a8:	00000000 00000000 00000000 00000000     ................
e00082b8:	00000000 00000000 00000000 00000000     ................
e00082c8:	00000000 00000000 00000000 00000000     ................
e00082d8:	00000000 00000000 00000000 00000000     ................
e00082e8:	00000000 00000000 00000000 00000000     ................
e00082f8:	00000000 00000000 00000000 00000000     ................
e0008308:	00000000 00000000 00000000 00000000     ................
e0008318:	00000000 00000000 00000000 00000000     ................
e0008328:	00000000 00000000 00000000 00000000     ................
e0008338:	00000000 00000000 00000000 00000000     ................
e0008348:	00000000 00000000 00000000 00000000     ................
e0008358:	00000000 00000000 00000000 00000000     ................
e0008368:	00000000 00000000 00000000 00000000     ................
e0008378:	00000000 00000000 00000000 00000000     ................
e0008388:	00000000 00000000 00000000 00000000     ................
e0008398:	00000000 00000000 00000000 00000000     ................
e00083a8:	00000000 00000000 00000000 00000000     ................
e00083b8:	00000000 00000000 00000000 00000000     ................
e00083c8:	00000000 00000000 00000000 00000000     ................
e00083d8:	00000000 00000000 00000000 00000000     ................
e00083e8:	00000000 00000000 00000000 00000000     ................
e00083f8:	00000000 00000000 00000000 00000000     ................
e0008408:	00000000 00000000 00000000 00000000     ................
e0008418:	00000000 00000000 00000000 00000000     ................
e0008428:	00000000 00000000 00000000 00000000     ................
e0008438:	00000000 00000000 00000000 00000000     ................
e0008448:	00000000 00000000 00000000 00000000     ................
e0008458:	00000000 00000000 00000000 00000000     ................
e0008468:	00000000 00000000 00000000 00000000     ................
e0008478:	00000000 00000000 00000000 00000000     ................
e0008488:	00000000 00000000 00000000 00000000     ................
e0008498:	00000000 00000000 00000000 00000000     ................
e00084a8:	00000000 00000000 00000000 00000000     ................
e00084b8:	00000000 00000000 00000000 00000000     ................
e00084c8:	00000000 00000000 00000000 00000000     ................
e00084d8:	00000000 00000000 00000000 00000000     ................
e00084e8:	00000000 00000000 00000000 00000000     ................
e00084f8:	00000000 00000000 00000000 00000000     ................
e0008508:	00000000 00000000 00000000 00000000     ................
e0008518:	00000000 00000000 00000000 00000000     ................
e0008528:	00000000 00000000 00000000 00000000     ................
e0008538:	00000000 00000000 00000000 00000000     ................
e0008548:	00000000 00000000 00000000 00000000     ................
e0008558:	00000000 00000000 00000000 00000000     ................
e0008568:	00000000 00000000 00000000 00000000     ................
e0008578:	00000000 00000000 00000000 00000000     ................
e0008588:	00000000 00000000 00000000 00000000     ................
e0008598:	00000000 00000000 00000000 00000000     ................
e00085a8:	00000000 00000000 00000000 00000000     ................
e00085b8:	00000000 00000000 00000000 00000000     ................
e00085c8:	00000000 00000000 00000000 00000000     ................
e00085d8:	00000000 00000000 00000000 00000000     ................
e00085e8:	00000000 00000000 00000000 00000000     ................
e00085f8:	00000000 00000000 00000000 00000000     ................
e0008608:	00000000 00000000 00000000 00000000     ................
e0008618:	00000000 00000000 00000000 00000000     ................
e0008628:	00000000 00000000 00000000 00000000     ................
e0008638:	00000000 00000000 00000000 00000000     ................
e0008648:	00000000 00000000 00000000 00000000     ................
e0008658:	00000000 00000000 00000000 00000000     ................
e0008668:	00000000 00000000 00000000 00000000     ................
e0008678:	00000000 00000000 00000000 00000000     ................
e0008688:	00000000 00000000 00000000 00000000     ................
e0008698:	00000000 00000000 00000000 00000000     ................
e00086a8:	00000000 00000000 00000000 00000000     ................
e00086b8:	00000000 00000000 00000000 00000000     ................
e00086c8:	00000000 00000000 00000000 00000000     ................
e00086d8:	00000000 00000000 00000000 00000000     ................
e00086e8:	00000000 00000000 00000000 00000000     ................
e00086f8:	00000000 00000000 00000000 00000000     ................
e0008708:	00000000 00000000 00000000 00000000     ................
e0008718:	00000000 00000000 00000000 00000000     ................
e0008728:	00000000 00000000 00000000 00000000     ................
e0008738:	00000000 00000000 00000000 00000000     ................
e0008748:	00000000 00000000 00000000 00000000     ................
e0008758:	00000000 00000000 00000000 00000000     ................
e0008768:	00000000 00000000 00000000 00000000     ................
e0008778:	00000000 00000000 00000000 00000000     ................
e0008788:	00000000 00000000 00000000 00000000     ................
e0008798:	00000000 00000000 00000000 00000000     ................
e00087a8:	00000000 00000000 00000000 00000000     ................
e00087b8:	00000000 00000000 00000000 00000000     ................
e00087c8:	00000000 00000000 00000000 00000000     ................
e00087d8:	00000000 00000000 00000000 00000000     ................
e00087e8:	00000000 00000000 00000000 00000000     ................
e00087f8:	00000000 00000000 00000000 00000000     ................
e0008808:	00000000 00000000 00000000 00000000     ................
e0008818:	00000000 00000000 00000000 00000000     ................
e0008828:	00000000 00000000 00000000 00000000     ................
e0008838:	00000000 00000000 00000000 00000000     ................
e0008848:	00000000 00000000 00000000 00000000     ................
e0008858:	00000000 00000000 00000000 00000000     ................
e0008868:	00000000 00000000 00000000 00000000     ................
e0008878:	00000000 00000000 00000000 00000000     ................
e0008888:	00000000 00000000 00000000 00000000     ................
e0008898:	00000000 00000000 00000000 00000000     ................
e00088a8:	00000000 00000000 00000000 00000000     ................
e00088b8:	00000000 00000000 00000000 00000000     ................
e00088c8:	00000000 00000000 00000000 00000000     ................
e00088d8:	00000000 00000000 00000000 00000000     ................
e00088e8:	00000000 00000000 00000000 00000000     ................
e00088f8:	00000000 00000000 00000000 00000000     ................
e0008908:	00000000 00000000 00000000 00000000     ................
e0008918:	00000000 00000000 00000000 00000000     ................
e0008928:	00000000 00000000 00000000 00000000     ................
e0008938:	00000000 00000000 00000000 00000000     ................
e0008948:	00000000 00000000 00000000 00000000     ................
e0008958:	00000000 00000000 00000000 00000000     ................
e0008968:	00000000 00000000 00000000 00000000     ................
e0008978:	00000000 00000000 00000000 00000000     ................
e0008988:	00000000 00000000 00000000 00000000     ................
e0008998:	00000000 00000000 00000000 00000000     ................
e00089a8:	00000000 00000000 00000000 00000000     ................
e00089b8:	00000000 00000000 00000000 00000000     ................
e00089c8:	00000000 00000000 00000000 00000000     ................
e00089d8:	00000000 00000000 00000000 00000000     ................
e00089e8:	00000000 00000000 00000000 00000000     ................
e00089f8:	00000000 00000000 00000000 00000000     ................
e0008a08:	00000000 00000000 00000000 00000000     ................
e0008a18:	00000000 00000000 00000000 00000000     ................
e0008a28:	00000000 00000000 00000000 00000000     ................
e0008a38:	00000000 00000000 00000000 00000000     ................
e0008a48:	00000000 00000000 00000000 00000000     ................
e0008a58:	00000000 00000000 00000000 00000000     ................
e0008a68:	00000000 00000000 00000000 00000000     ................
e0008a78:	00000000 00000000 00000000 00000000     ................
e0008a88:	00000000 00000000 00000000 00000000     ................
e0008a98:	00000000 00000000 00000000 00000000     ................
e0008aa8:	00000000 00000000 00000000 00000000     ................
e0008ab8:	00000000 00000000 00000000 00000000     ................
e0008ac8:	00000000 00000000 00000000 00000000     ................
e0008ad8:	00000000 00000000 00000000 00000000     ................
e0008ae8:	00000000 00000000 00000000 00000000     ................
e0008af8:	00000000 00000000 00000000 00000000     ................
e0008b08:	00000000 00000000 00000000 00000000     ................
e0008b18:	00000000 00000000 00000000 00000000     ................
e0008b28:	00000000 00000000 00000000 00000000     ................
e0008b38:	00000000 00000000 00000000 00000000     ................
e0008b48:	00000000 00000000 00000000 00000000     ................
e0008b58:	00000000 00000000 00000000 00000000     ................
e0008b68:	00000000 00000000 00000000 00000000     ................
e0008b78:	00000000 00000000 00000000 00000000     ................
e0008b88:	00000000 00000000 00000000 00000000     ................
e0008b98:	00000000 00000000 00000000 00000000     ................
e0008ba8:	00000000 00000000 00000000 00000000     ................
e0008bb8:	00000000 00000000 00000000 00000000     ................
e0008bc8:	00000000 00000000 00000000 00000000     ................
e0008bd8:	00000000 00000000 00000000 00000000     ................
e0008be8:	00000000 00000000 00000000 00000000     ................
e0008bf8:	00000000 00000000 00000000 00000000     ................
e0008c08:	00000000 00000000 00000000 00000000     ................
e0008c18:	00000000 00000000 00000000 00000000     ................
e0008c28:	00000000 00000000 00000000 00000000     ................
e0008c38:	00000000 00000000 00000000 00000000     ................
e0008c48:	00000000 00000000 00000000 00000000     ................
e0008c58:	00000000 00000000 00000000 00000000     ................
e0008c68:	00000000 00000000 00000000 00000000     ................
e0008c78:	00000000 00000000 00000000 00000000     ................
e0008c88:	00000000 00000000 00000000 00000000     ................
e0008c98:	00000000 00000000 00000000 00000000     ................
e0008ca8:	00000000 00000000 00000000 00000000     ................
e0008cb8:	00000000 00000000 00000000 00000000     ................
e0008cc8:	00000000 00000000 00000000 00000000     ................
e0008cd8:	00000000 00000000 00000000 00000000     ................
e0008ce8:	00000000 00000000 00000000 00000000     ................
e0008cf8:	00000000 00000000 00000000 00000000     ................
e0008d08:	00000000 00000000 00000000 00000000     ................
e0008d18:	00000000 00000000 00000000 00000000     ................
e0008d28:	00000000 00000000 00000000 00000000     ................
e0008d38:	00000000 00000000 00000000 00000000     ................
e0008d48:	00000000 00000000 00000000 00000000     ................
e0008d58:	00000000 00000000 00000000 00000000     ................
e0008d68:	00000000 00000000 00000000 00000000     ................
e0008d78:	00000000 00000000 00000000 00000000     ................
e0008d88:	00000000 00000000 00000000 00000000     ................
e0008d98:	00000000 00000000 00000000 00000000     ................
e0008da8:	00000000 00000000 00000000 00000000     ................
e0008db8:	00000000 00000000 00000000 00000000     ................
e0008dc8:	00000000 00000000 00000000 00000000     ................
e0008dd8:	00000000 00000000 00000000 00000000     ................
e0008de8:	00000000 00000000 00000000 00000000     ................
e0008df8:	00000000 00000000 00000000 00000000     ................
e0008e08:	00000000 00000000 00000000 00000000     ................
e0008e18:	00000000 00000000 00000000 00000000     ................
e0008e28:	00000000 00000000 00000000 00000000     ................
e0008e38:	00000000 00000000 00000000 00000000     ................
e0008e48:	00000000 00000000 00000000 00000000     ................
e0008e58:	00000000 00000000 00000000 00000000     ................
e0008e68:	00000000 00000000 00000000 00000000     ................
e0008e78:	00000000 00000000 00000000 00000000     ................
e0008e88:	00000000 00000000 00000000 00000000     ................
e0008e98:	00000000 00000000 00000000 00000000     ................
e0008ea8:	00000000 00000000 00000000 00000000     ................
e0008eb8:	00000000 00000000 00000000 00000000     ................
e0008ec8:	00000000 00000000 00000000 00000000     ................
e0008ed8:	00000000 00000000 00000000 00000000     ................
e0008ee8:	00000000 00000000 00000000 00000000     ................
e0008ef8:	00000000 00000000 00000000 00000000     ................
e0008f08:	00000000 00000000 00000000 00000000     ................
e0008f18:	00000000 00000000 00000000 00000000     ................
e0008f28:	00000000 00000000 00000000 00000000     ................
e0008f38:	00000000 00000000 00000000 00000000     ................
e0008f48:	00000000 00000000 00000000 00000000     ................
e0008f58:	00000000 00000000 00000000 00000000     ................
e0008f68:	00000000 00000000 00000000 00000000     ................
e0008f78:	00000000 00000000 00000000 00000000     ................
e0008f88:	00000000 00000000 00000000 00000000     ................
e0008f98:	00000000 00000000 00000000 00000000     ................
e0008fa8:	00000000 00000000 00000000 00000000     ................
e0008fb8:	00000000 00000000 00000000 00000000     ................
e0008fc8:	00000000 00000000 00000000 00000000     ................
e0008fd8:	00000000 00000000 00000000 00000000     ................
e0008fe8:	00000000 00000000 00000000 00000000     ................
e0008ff8:	00000000 00000000 00000000 00000000     ................
e0009008:	00000000 00000000 00000000 00000000     ................
e0009018:	00000000 00000000 00000000 00000000     ................
e0009028:	00000000 00000000 00000000 00000000     ................
e0009038:	00000000 00000000 00000000 00000000     ................
e0009048:	00000000 00000000 00000000 00000000     ................
e0009058:	00000000 00000000 00000000 00000000     ................
e0009068:	00000000 00000000 00000000 00000000     ................
e0009078:	00000000 00000000 00000000 00000000     ................
e0009088:	00000000 00000000 00000000 00000000     ................
e0009098:	00000000 00000000 00000000 00000000     ................
e00090a8:	00000000 00000000 00000000 00000000     ................
e00090b8:	00000000 00000000 00000000 00000000     ................
e00090c8:	00000000 00000000 00000000 00000000     ................
e00090d8:	00000000 00000000 00000000 00000000     ................
e00090e8:	00000000 00000000 00000000 00000000     ................
e00090f8:	00000000 00000000 00000000 00000000     ................
e0009108:	00000000 00000000 00000000 00000000     ................
e0009118:	00000000 00000000 00000000 00000000     ................
e0009128:	00000000 00000000 00000000 00000000     ................
e0009138:	00000000 00000000 00000000 00000000     ................
e0009148:	00000000 00000000 00000000 00000000     ................
e0009158:	00000000 00000000 00000000 00000000     ................
e0009168:	00000000 00000000 00000000 00000000     ................
e0009178:	00000000 00000000 00000000 00000000     ................
e0009188:	00000000 00000000 00000000 00000000     ................
e0009198:	00000000 00000000 00000000 00000000     ................
e00091a8:	00000000 00000000 00000000 00000000     ................
e00091b8:	00000000 00000000 00000000 00000000     ................
e00091c8:	00000000 00000000 00000000 00000000     ................
e00091d8:	00000000 00000000 00000000 00000000     ................
e00091e8:	00000000 00000000 00000000 00000000     ................
e00091f8:	00000000 00000000 00000000 00000000     ................
e0009208:	00000000 00000000 00000000 00000000     ................
e0009218:	00000000 00000000 00000000 00000000     ................
e0009228:	00000000 00000000 00000000 00000000     ................
e0009238:	00000000 00000000 00000000 00000000     ................
e0009248:	00000000 00000000 00000000 00000000     ................
e0009258:	00000000 00000000 00000000 00000000     ................
e0009268:	00000000 00000000 00000000 00000000     ................
e0009278:	00000000 00000000 00000000 00000000     ................
e0009288:	00000000 00000000 00000000 00000000     ................
e0009298:	00000000 00000000 00000000 00000000     ................
e00092a8:	00000000 00000000 00000000 00000000     ................
e00092b8:	00000000 00000000 00000000 00000000     ................
e00092c8:	00000000 00000000 00000000 00000000     ................
e00092d8:	00000000 00000000 00000000 00000000     ................
e00092e8:	00000000 00000000 00000000 00000000     ................
e00092f8:	00000000 00000000 00000000 00000000     ................
e0009308:	00000000 00000000 00000000 00000000     ................
e0009318:	00000000 00000000 00000000 00000000     ................
e0009328:	00000000 00000000 00000000 00000000     ................
e0009338:	00000000 00000000 00000000 00000000     ................
e0009348:	00000000 00000000 00000000 00000000     ................
e0009358:	00000000 00000000 00000000 00000000     ................
e0009368:	00000000 00000000 00000000 00000000     ................
e0009378:	00000000 00000000 00000000 00000000     ................
e0009388:	00000000 00000000 00000000 00000000     ................
e0009398:	00000000 00000000 00000000 00000000     ................
e00093a8:	00000000 00000000 00000000 00000000     ................
e00093b8:	00000000 00000000 00000000 00000000     ................
e00093c8:	00000000 00000000 00000000 00000000     ................
e00093d8:	00000000 00000000 00000000 00000000     ................
e00093e8:	00000000 00000000 00000000 00000000     ................
e00093f8:	00000000 00000000 00000000 00000000     ................
e0009408:	00000000 00000000 00000000 00000000     ................
e0009418:	00000000 00000000 00000000 00000000     ................
e0009428:	00000000 00000000 00000000 00000000     ................
e0009438:	00000000 00000000 00000000 00000000     ................
e0009448:	00000000 00000000 00000000 00000000     ................
e0009458:	00000000 00000000 00000000 00000000     ................
e0009468:	00000000 00000000 00000000 00000000     ................
e0009478:	00000000 00000000 00000000 00000000     ................
e0009488:	00000000 00000000 00000000 00000000     ................
e0009498:	00000000 00000000 00000000 00000000     ................
e00094a8:	00000000 00000000 00000000 00000000     ................
e00094b8:	00000000 00000000 00000000 00000000     ................
e00094c8:	00000000 00000000 00000000 00000000     ................
e00094d8:	00000000 00000000 00000000 00000000     ................
e00094e8:	00000000 00000000 00000000 00000000     ................
e00094f8:	00000000 00000000 00000000 00000000     ................
e0009508:	00000000 00000000 00000000 00000000     ................
e0009518:	00000000 00000000 00000000 00000000     ................
e0009528:	00000000 00000000 00000000 00000000     ................
e0009538:	00000000 00000000 00000000 00000000     ................
e0009548:	00000000 00000000 00000000 00000000     ................
e0009558:	00000000 00000000 00000000 00000000     ................
e0009568:	00000000 00000000 00000000 00000000     ................
e0009578:	00000000 00000000 00000000 00000000     ................
e0009588:	00000000 00000000 00000000 00000000     ................
e0009598:	00000000 00000000 00000000 00000000     ................
e00095a8:	00000000 00000000 00000000 00000000     ................
e00095b8:	00000000 00000000 00000000 00000000     ................
e00095c8:	00000000 00000000 00000000 00000000     ................
e00095d8:	00000000 00000000 00000000 00000000     ................
e00095e8:	00000000 00000000 00000000 00000000     ................
e00095f8:	00000000 00000000 00000000 00000000     ................
e0009608:	00000000 00000000 00000000 00000000     ................
e0009618:	00000000 00000000 00000000 00000000     ................
e0009628:	00000000 00000000 00000000 00000000     ................
e0009638:	00000000 00000000 00000000 00000000     ................
e0009648:	00000000 00000000 00000000 00000000     ................
e0009658:	00000000 00000000 00000000 00000000     ................
e0009668:	00000000 00000000 00000000 00000000     ................
e0009678:	00000000 00000000 00000000 00000000     ................
e0009688:	00000000 00000000 00000000 00000000     ................
e0009698:	00000000 00000000 00000000 00000000     ................
e00096a8:	00000000 00000000 00000000 00000000     ................
e00096b8:	00000000 00000000 00000000 00000000     ................
e00096c8:	00000000 00000000 00000000 00000000     ................
e00096d8:	00000000 00000000 00000000 00000000     ................
e00096e8:	00000000 00000000 00000000 00000000     ................
e00096f8:	00000000 00000000 00000000 00000000     ................
e0009708:	00000000 00000000 00000000 00000000     ................
e0009718:	00000000 00000000 00000000 00000000     ................
e0009728:	00000000 00000000 00000000 00000000     ................
e0009738:	00000000 00000000 00000000 00000000     ................
e0009748:	00000000 00000000 00000000 00000000     ................
e0009758:	00000000 00000000 00000000 00000000     ................
e0009768:	00000000 00000000 00000000 00000000     ................
e0009778:	00000000 00000000 00000000 00000000     ................
e0009788:	00000000 00000000 00000000 00000000     ................
e0009798:	00000000 00000000 00000000 00000000     ................
e00097a8:	00000000 00000000 00000000 00000000     ................
e00097b8:	00000000 00000000 00000000 00000000     ................
e00097c8:	00000000 00000000 00000000 00000000     ................
e00097d8:	00000000 00000000 00000000 00000000     ................
e00097e8:	00000000 00000000 00000000 00000000     ................
e00097f8:	00000000 00000000 00000000 00000000     ................
e0009808:	00000000 00000000 00000000 00000000     ................
e0009818:	00000000 00000000 00000000 00000000     ................
e0009828:	00000000 00000000 00000000 00000000     ................
e0009838:	00000000 00000000 00000000 00000000     ................
e0009848:	00000000 00000000 00000000 00000000     ................
e0009858:	00000000 00000000 00000000 00000000     ................
e0009868:	00000000 00000000 00000000 00000000     ................
e0009878:	00000000 00000000 00000000 00000000     ................
e0009888:	00000000 00000000 00000000 00000000     ................
e0009898:	00000000 00000000 00000000 00000000     ................
e00098a8:	00000000 00000000 00000000 00000000     ................
e00098b8:	00000000 00000000 00000000 00000000     ................
e00098c8:	00000000 00000000 00000000 00000000     ................
e00098d8:	00000000 00000000 00000000 00000000     ................
e00098e8:	00000000 00000000 00000000 00000000     ................
e00098f8:	00000000 00000000 00000000 00000000     ................
e0009908:	00000000 00000000 00000000 00000000     ................
e0009918:	00000000 00000000 00000000 00000000     ................
e0009928:	00000000 00000000 00000000 00000000     ................
e0009938:	00000000 00000000 00000000 00000000     ................
e0009948:	00000000 00000000 00000000 00000000     ................
e0009958:	00000000 00000000 00000000 00000000     ................
e0009968:	00000000 00000000 00000000 00000000     ................
e0009978:	00000000 00000000 00000000 00000000     ................
e0009988:	00000000 00000000 00000000 00000000     ................
e0009998:	00000000 00000000 00000000 00000000     ................
e00099a8:	00000000 00000000 00000000 00000000     ................
e00099b8:	00000000 00000000 00000000 00000000     ................
e00099c8:	00000000 00000000 00000000 00000000     ................
e00099d8:	00000000 00000000 00000000 00000000     ................
e00099e8:	00000000 00000000 00000000 00000000     ................
e00099f8:	00000000 00000000 00000000 00000000     ................
e0009a08:	00000000 00000000 00000000 00000000     ................
e0009a18:	00000000 00000000 00000000 00000000     ................
e0009a28:	00000000 00000000 00000000 00000000     ................
e0009a38:	00000000 00000000 00000000 00000000     ................
e0009a48:	00000000 00000000 00000000 00000000     ................
e0009a58:	00000000 00000000 00000000 00000000     ................
e0009a68:	00000000 00000000 00000000 00000000     ................
e0009a78:	00000000 00000000 00000000 00000000     ................
e0009a88:	00000000 00000000 00000000 00000000     ................
e0009a98:	00000000 00000000 00000000 00000000     ................
e0009aa8:	00000000 00000000 00000000 00000000     ................
e0009ab8:	00000000 00000000 00000000 00000000     ................
e0009ac8:	00000000 00000000 00000000 00000000     ................
e0009ad8:	00000000 00000000 00000000 00000000     ................
e0009ae8:	00000000 00000000 00000000 00000000     ................
e0009af8:	00000000 00000000 00000000 00000000     ................
e0009b08:	00000000 00000000 00000000 00000000     ................
e0009b18:	00000000 00000000 00000000 00000000     ................
e0009b28:	00000000 00000000 00000000 00000000     ................
e0009b38:	00000000 00000000 00000000 00000000     ................
e0009b48:	00000000 00000000 00000000 00000000     ................
e0009b58:	00000000 00000000 00000000 00000000     ................
e0009b68:	00000000 00000000 00000000 00000000     ................
e0009b78:	00000000 00000000 00000000 00000000     ................
e0009b88:	00000000 00000000 00000000 00000000     ................
e0009b98:	00000000 00000000 00000000 00000000     ................
e0009ba8:	00000000 00000000 00000000 00000000     ................
e0009bb8:	00000000 00000000 00000000 00000000     ................
e0009bc8:	00000000 00000000 00000000 00000000     ................
e0009bd8:	00000000 00000000 00000000 00000000     ................
e0009be8:	00000000 00000000 00000000 00000000     ................
e0009bf8:	00000000 00000000 00000000 00000000     ................
e0009c08:	00000000 00000000 00000000 00000000     ................
e0009c18:	00000000 00000000 00000000 00000000     ................
e0009c28:	00000000 00000000 00000000 00000000     ................
e0009c38:	00000000 00000000 00000000 00000000     ................
e0009c48:	00000000 00000000 00000000 00000000     ................
e0009c58:	00000000 00000000 00000000 00000000     ................
e0009c68:	00000000 00000000 00000000 00000000     ................
e0009c78:	00000000 00000000 00000000 00000000     ................
e0009c88:	00000000 00000000 00000000 00000000     ................
e0009c98:	00000000 00000000 00000000 00000000     ................
e0009ca8:	00000000 00000000 00000000 00000000     ................
e0009cb8:	00000000 00000000 00000000 00000000     ................
e0009cc8:	00000000 00000000 00000000 00000000     ................
e0009cd8:	00000000 00000000 00000000 00000000     ................
e0009ce8:	00000000 00000000 00000000 00000000     ................
e0009cf8:	00000000 00000000 00000000 00000000     ................
e0009d08:	00000000 00000000 00000000 00000000     ................
e0009d18:	00000000 00000000 00000000 00000000     ................
e0009d28:	00000000 00000000 00000000 00000000     ................
e0009d38:	00000000 00000000 00000000 00000000     ................
e0009d48:	00000000 00000000 00000000 00000000     ................
e0009d58:	00000000 00000000 00000000 00000000     ................
e0009d68:	00000000 00000000 00000000 00000000     ................
e0009d78:	00000000 00000000 00000000 00000000     ................
e0009d88:	00000000 00000000 00000000 00000000     ................
e0009d98:	00000000 00000000 00000000 00000000     ................
e0009da8:	00000000 00000000 00000000 00000000     ................
e0009db8:	00000000 00000000 00000000 00000000     ................
e0009dc8:	00000000 00000000 00000000 00000000     ................
e0009dd8:	00000000 00000000 00000000 00000000     ................
e0009de8:	00000000 00000000 00000000 00000000     ................
e0009df8:	00000000 00000000 00000000 00000000     ................
e0009e08:	00000000 00000000 00000000 00000000     ................
e0009e18:	00000000 00000000 00000000 00000000     ................
e0009e28:	00000000 00000000 00000000 00000000     ................
e0009e38:	00000000 00000000 00000000 00000000     ................
e0009e48:	00000000 00000000 00000000 00000000     ................
e0009e58:	00000000 00000000 00000000 00000000     ................
e0009e68:	00000000 00000000 00000000 00000000     ................
e0009e78:	00000000 00000000 00000000 00000000     ................
e0009e88:	00000000 00000000 00000000 00000000     ................
e0009e98:	00000000 00000000 00000000 00000000     ................
e0009ea8:	00000000 00000000 00000000 00000000     ................
e0009eb8:	00000000 00000000 00000000 00000000     ................
e0009ec8:	00000000 00000000 00000000 00000000     ................
e0009ed8:	00000000 00000000 00000000 00000000     ................
e0009ee8:	00000000 00000000 00000000 00000000     ................
e0009ef8:	00000000 00000000 00000000 00000000     ................
e0009f08:	00000000 00000000 00000000 00000000     ................
e0009f18:	00000000 00000000 00000000 00000000     ................
e0009f28:	00000000 00000000 00000000 00000000     ................
e0009f38:	00000000 00000000 00000000 00000000     ................
e0009f48:	00000000 00000000 00000000 00000000     ................
e0009f58:	00000000 00000000 00000000 00000000     ................
e0009f68:	00000000 00000000 00000000 00000000     ................
e0009f78:	00000000 00000000 00000000 00000000     ................
e0009f88:	00000000 00000000 00000000 00000000     ................
e0009f98:	00000000 00000000 00000000 00000000     ................
e0009fa8:	00000000 00000000 00000000 00000000     ................
e0009fb8:	00000000 00000000 00000000 00000000     ................
e0009fc8:	00000000 00000000 00000000 00000000     ................
e0009fd8:	00000000 00000000 00000000 00000000     ................
e0009fe8:	00000000 00000000 00000000 00000000     ................
e0009ff8:	00000000 00000000 00000000 00000000     ................
e000a008:	00000000 00000000 00000000 00000000     ................
e000a018:	00000000 00000000 00000000 00000000     ................
e000a028:	00000000 00000000 00000000 00000000     ................
e000a038:	00000000 00000000 00000000 00000000     ................
e000a048:	00000000 00000000 00000000 00000000     ................
e000a058:	00000000 00000000 00000000 00000000     ................
e000a068:	00000000 00000000 00000000 00000000     ................
e000a078:	00000000 00000000 00000000 00000000     ................
e000a088:	00000000 00000000 00000000 00000000     ................
e000a098:	00000000 00000000 00000000 00000000     ................
e000a0a8:	00000000 00000000 00000000 00000000     ................
e000a0b8:	00000000 00000000 00000000 00000000     ................
e000a0c8:	00000000 00000000 00000000 00000000     ................
e000a0d8:	00000000 00000000 00000000 00000000     ................
e000a0e8:	00000000 00000000 00000000 00000000     ................
e000a0f8:	00000000 00000000 00000000 00000000     ................
e000a108:	00000000 00000000 00000000 00000000     ................
e000a118:	00000000 00000000 00000000 00000000     ................
e000a128:	00000000 00000000 00000000 00000000     ................
e000a138:	00000000 00000000 00000000 00000000     ................
e000a148:	00000000 00000000 00000000 00000000     ................
e000a158:	00000000 00000000 00000000 00000000     ................
e000a168:	00000000 00000000 00000000 00000000     ................
e000a178:	00000000 00000000 00000000 00000000     ................
e000a188:	00000000 00000000 00000000 00000000     ................
e000a198:	00000000 00000000 00000000 00000000     ................
e000a1a8:	00000000 00000000 00000000 00000000     ................
e000a1b8:	00000000 00000000 00000000 00000000     ................
e000a1c8:	00000000 00000000 00000000 00000000     ................
e000a1d8:	00000000 00000000 00000000 00000000     ................
e000a1e8:	00000000 00000000 00000000 00000000     ................
e000a1f8:	00000000 00000000 00000000 00000000     ................
e000a208:	00000000 00000000 00000000 00000000     ................
e000a218:	00000000 00000000 00000000 00000000     ................
e000a228:	00000000 00000000 00000000 00000000     ................
e000a238:	00000000 00000000 00000000 00000000     ................
e000a248:	00000000 00000000 00000000 00000000     ................
e000a258:	00000000 00000000 00000000 00000000     ................
e000a268:	00000000 00000000 00000000 00000000     ................
e000a278:	00000000 00000000 00000000 00000000     ................
e000a288:	00000000 00000000 00000000 00000000     ................
e000a298:	00000000 00000000 00000000 00000000     ................
e000a2a8:	00000000 00000000 00000000 00000000     ................
e000a2b8:	00000000 00000000 00000000 00000000     ................
e000a2c8:	00000000 00000000 00000000 00000000     ................
e000a2d8:	00000000 00000000 00000000 00000000     ................
e000a2e8:	00000000 00000000 00000000 00000000     ................
e000a2f8:	00000000 00000000 00000000 00000000     ................
e000a308:	00000000 00000000 00000000 00000000     ................
e000a318:	00000000 00000000 00000000 00000000     ................
e000a328:	00000000 00000000 00000000 00000000     ................
e000a338:	00000000 00000000 00000000 00000000     ................
e000a348:	00000000 00000000 00000000 00000000     ................
e000a358:	00000000 00000000 00000000 00000000     ................
e000a368:	00000000 00000000 00000000 00000000     ................
e000a378:	00000000 00000000 00000000 00000000     ................
e000a388:	00000000 00000000 00000000 00000000     ................
e000a398:	00000000 00000000 00000000 00000000     ................
e000a3a8:	00000000 00000000 00000000 00000000     ................
e000a3b8:	00000000 00000000 00000000 00000000     ................
e000a3c8:	00000000 00000000 00000000 00000000     ................
e000a3d8:	00000000 00000000 00000000 00000000     ................
e000a3e8:	00000000 00000000 00000000 00000000     ................
e000a3f8:	00000000 00000000 00000000 00000000     ................
e000a408:	00000000 00000000 00000000 00000000     ................
e000a418:	00000000 00000000 00000000 00000000     ................
e000a428:	00000000 00000000 00000000 00000000     ................
e000a438:	00000000 00000000 00000000 00000000     ................
e000a448:	00000000 00000000 00000000 00000000     ................
e000a458:	00000000 00000000 00000000 00000000     ................
e000a468:	00000000 00000000 00000000 00000000     ................
e000a478:	00000000 00000000 00000000 00000000     ................
e000a488:	00000000 00000000 00000000 00000000     ................
e000a498:	00000000 00000000 00000000 00000000     ................
e000a4a8:	00000000 00000000 00000000 00000000     ................
e000a4b8:	00000000 00000000 00000000 00000000     ................
e000a4c8:	00000000 00000000 00000000 00000000     ................
e000a4d8:	00000000 00000000 00000000 00000000     ................
e000a4e8:	00000000 00000000 00000000 00000000     ................
e000a4f8:	00000000 00000000 00000000 00000000     ................
e000a508:	00000000 00000000 00000000 00000000     ................
e000a518:	00000000 00000000 00000000 00000000     ................
e000a528:	00000000 00000000 00000000 00000000     ................
e000a538:	00000000 00000000 00000000 00000000     ................
e000a548:	00000000 00000000 00000000 00000000     ................
e000a558:	00000000 00000000 00000000 00000000     ................
e000a568:	00000000 00000000 00000000 00000000     ................
e000a578:	00000000 00000000 00000000 00000000     ................
e000a588:	00000000 00000000 00000000 00000000     ................
e000a598:	00000000 00000000 00000000 00000000     ................
e000a5a8:	00000000 00000000 00000000 00000000     ................
e000a5b8:	00000000 00000000 00000000 00000000     ................
e000a5c8:	00000000 00000000 00000000 00000000     ................
e000a5d8:	00000000 00000000 00000000 00000000     ................
e000a5e8:	00000000 00000000 00000000 00000000     ................
e000a5f8:	00000000 00000000 00000000 00000000     ................
e000a608:	00000000 00000000 00000000 00000000     ................
e000a618:	00000000 00000000 00000000 00000000     ................
e000a628:	00000000 00000000 00000000 00000000     ................
e000a638:	00000000 00000000 00000000 00000000     ................
e000a648:	00000000 00000000 00000000 00000000     ................
e000a658:	00000000 00000000 00000000 00000000     ................
e000a668:	00000000 00000000 00000000 00000000     ................
e000a678:	00000000 00000000 00000000 00000000     ................
e000a688:	00000000 00000000 00000000 00000000     ................
e000a698:	00000000 00000000 00000000 00000000     ................
e000a6a8:	00000000 00000000 00000000 00000000     ................
e000a6b8:	00000000 00000000 00000000 00000000     ................
e000a6c8:	00000000 00000000 00000000 00000000     ................
e000a6d8:	00000000 00000000 00000000 00000000     ................
e000a6e8:	00000000 00000000 00000000 00000000     ................
e000a6f8:	00000000 00000000 00000000 00000000     ................
e000a708:	00000000 00000000 00000000 00000000     ................
e000a718:	00000000 00000000 00000000 00000000     ................
e000a728:	00000000 00000000 00000000 00000000     ................
e000a738:	00000000 00000000 00000000 00000000     ................
e000a748:	00000000 00000000 00000000 00000000     ................
e000a758:	00000000 00000000 00000000 00000000     ................
e000a768:	00000000 00000000 00000000 00000000     ................
e000a778:	00000000 00000000 00000000 00000000     ................
e000a788:	00000000 00000000 00000000 00000000     ................
e000a798:	00000000 00000000 00000000 00000000     ................
e000a7a8:	00000000 00000000 00000000 00000000     ................
e000a7b8:	00000000 00000000 00000000 00000000     ................
e000a7c8:	00000000 00000000 00000000 00000000     ................
e000a7d8:	00000000 00000000 00000000 00000000     ................
e000a7e8:	00000000 00000000 00000000 00000000     ................
e000a7f8:	00000000 00000000 00000000 00000000     ................
e000a808:	00000000 00000000 00000000 00000000     ................
e000a818:	00000000 00000000 00000000 00000000     ................
e000a828:	00000000 00000000 00000000 00000000     ................
e000a838:	00000000 00000000 00000000 00000000     ................
e000a848:	00000000 00000000 00000000 00000000     ................
e000a858:	00000000 00000000 00000000 00000000     ................
e000a868:	00000000 00000000 00000000 00000000     ................
e000a878:	00000000 00000000 00000000 00000000     ................
e000a888:	00000000 00000000 00000000 00000000     ................
e000a898:	00000000 00000000 00000000 00000000     ................
e000a8a8:	00000000 00000000 00000000 00000000     ................
e000a8b8:	00000000 00000000 00000000 00000000     ................
e000a8c8:	00000000 00000000 00000000 00000000     ................
e000a8d8:	00000000 00000000 00000000 00000000     ................
e000a8e8:	00000000 00000000 00000000 00000000     ................
e000a8f8:	00000000 00000000 00000000 00000000     ................
e000a908:	00000000 00000000 00000000 00000000     ................
e000a918:	00000000 00000000 00000000 00000000     ................
e000a928:	00000000 00000000 00000000 00000000     ................
e000a938:	00000000 00000000 00000000 00000000     ................
e000a948:	00000000 00000000 00000000 00000000     ................
e000a958:	00000000 00000000 00000000 00000000     ................
e000a968:	00000000 00000000 00000000 00000000     ................
e000a978:	00000000 00000000 00000000 00000000     ................
e000a988:	00000000 00000000 00000000 00000000     ................
e000a998:	00000000 00000000 00000000 00000000     ................
e000a9a8:	00000000 00000000 00000000 00000000     ................
e000a9b8:	00000000 00000000 00000000 00000000     ................
e000a9c8:	00000000 00000000 00000000 00000000     ................
e000a9d8:	00000000 00000000 00000000 00000000     ................
e000a9e8:	00000000 00000000 00000000 00000000     ................
e000a9f8:	00000000 00000000 00000000 00000000     ................
e000aa08:	00000000 00000000 00000000 00000000     ................
e000aa18:	00000000 00000000 00000000 00000000     ................
e000aa28:	00000000 00000000 00000000 00000000     ................
e000aa38:	00000000 00000000 00000000 00000000     ................
e000aa48:	00000000 00000000 00000000 00000000     ................
e000aa58:	00000000 00000000 00000000 00000000     ................
e000aa68:	00000000 00000000 00000000 00000000     ................
e000aa78:	00000000 00000000 00000000 00000000     ................
e000aa88:	00000000 00000000 00000000 00000000     ................
e000aa98:	00000000 00000000 00000000 00000000     ................
e000aaa8:	00000000 00000000 00000000 00000000     ................
e000aab8:	00000000 00000000 00000000 00000000     ................
e000aac8:	00000000 00000000 00000000 00000000     ................
e000aad8:	00000000 00000000 00000000 00000000     ................
e000aae8:	00000000 00000000 00000000 00000000     ................
e000aaf8:	00000000 00000000 00000000 00000000     ................
e000ab08:	00000000 00000000 00000000 00000000     ................
e000ab18:	00000000 00000000 00000000 00000000     ................
e000ab28:	00000000 00000000 00000000 00000000     ................
e000ab38:	00000000 00000000 00000000 00000000     ................
e000ab48:	00000000 00000000 00000000 00000000     ................
e000ab58:	00000000 00000000 00000000 00000000     ................
e000ab68:	00000000 00000000 00000000 00000000     ................
e000ab78:	00000000 00000000 00000000 00000000     ................
e000ab88:	00000000 00000000 00000000 00000000     ................
e000ab98:	00000000 00000000 00000000 00000000     ................
e000aba8:	00000000 00000000 00000000 00000000     ................
e000abb8:	00000000 00000000 00000000 00000000     ................
e000abc8:	00000000 00000000 00000000 00000000     ................
e000abd8:	00000000 00000000 00000000 00000000     ................
e000abe8:	00000000 00000000 00000000 00000000     ................
e000abf8:	00000000 00000000 00000000 00000000     ................
e000ac08:	00000000 00000000 00000000 00000000     ................
e000ac18:	00000000 00000000 00000000 00000000     ................
e000ac28:	00000000 00000000 00000000 00000000     ................
e000ac38:	00000000 00000000 00000000 00000000     ................
e000ac48:	00000000 00000000 00000000 00000000     ................
e000ac58:	00000000 00000000 00000000 00000000     ................
e000ac68:	00000000 00000000 00000000 00000000     ................
e000ac78:	00000000 00000000 00000000 00000000     ................
e000ac88:	00000000 00000000 00000000 00000000     ................
e000ac98:	00000000 00000000 00000000 00000000     ................
e000aca8:	00000000 00000000 00000000 00000000     ................
e000acb8:	00000000 00000000 00000000 00000000     ................
e000acc8:	00000000 00000000 00000000 00000000     ................
e000acd8:	00000000 00000000 00000000 00000000     ................
e000ace8:	00000000 00000000 00000000 00000000     ................
e000acf8:	00000000 00000000 00000000 00000000     ................
e000ad08:	00000000 00000000 00000000 00000000     ................
e000ad18:	00000000 00000000 00000000 00000000     ................
e000ad28:	00000000 00000000 00000000 00000000     ................
e000ad38:	00000000 00000000 00000000 00000000     ................
e000ad48:	00000000 00000000 00000000 00000000     ................
e000ad58:	00000000 00000000 00000000 00000000     ................
e000ad68:	00000000 00000000 00000000 00000000     ................
e000ad78:	00000000 00000000 00000000 00000000     ................
e000ad88:	00000000 00000000 00000000 00000000     ................
e000ad98:	00000000 00000000 00000000 00000000     ................
e000ada8:	00000000 00000000 00000000 00000000     ................
e000adb8:	00000000 00000000 00000000 00000000     ................
e000adc8:	00000000 00000000 00000000 00000000     ................
e000add8:	00000000 00000000 00000000 00000000     ................
e000ade8:	00000000 00000000 00000000 00000000     ................
e000adf8:	00000000 00000000 00000000 00000000     ................
e000ae08:	00000000 00000000 00000000 00000000     ................
e000ae18:	00000000 00000000 00000000 00000000     ................
e000ae28:	00000000 00000000 00000000 00000000     ................
e000ae38:	00000000 00000000 00000000 00000000     ................
e000ae48:	00000000 00000000 00000000 00000000     ................
e000ae58:	00000000 00000000 00000000 00000000     ................
e000ae68:	00000000 00000000 00000000 00000000     ................
e000ae78:	00000000 00000000 00000000 00000000     ................
e000ae88:	00000000 00000000 00000000 00000000     ................
e000ae98:	00000000 00000000 00000000 00000000     ................
e000aea8:	00000000 00000000 00000000 00000000     ................
e000aeb8:	00000000 00000000 00000000 00000000     ................
e000aec8:	00000000 00000000 00000000 00000000     ................
e000aed8:	00000000 00000000 00000000 00000000     ................
e000aee8:	00000000 00000000 00000000 00000000     ................
e000aef8:	00000000 00000000 00000000 00000000     ................
e000af08:	00000000 00000000 00000000 00000000     ................
e000af18:	00000000 00000000 00000000 00000000     ................
e000af28:	00000000 00000000 00000000 00000000     ................
e000af38:	00000000 00000000 00000000 00000000     ................
e000af48:	00000000 00000000 00000000 00000000     ................
e000af58:	00000000 00000000 00000000 00000000     ................
e000af68:	00000000 00000000 00000000 00000000     ................
e000af78:	00000000 00000000 00000000 00000000     ................
e000af88:	00000000 00000000 00000000 00000000     ................
e000af98:	00000000 00000000 00000000 00000000     ................
e000afa8:	00000000 00000000 00000000 00000000     ................
e000afb8:	00000000 00000000 00000000 00000000     ................
e000afc8:	00000000 00000000 00000000 00000000     ................
e000afd8:	00000000 00000000 00000000 00000000     ................
e000afe8:	00000000 00000000 00000000 00000000     ................
e000aff8:	00000000 00000000 00000000 00000000     ................
e000b008:	00000000 00000000 00000000 00000000     ................
e000b018:	00000000 00000000 00000000 00000000     ................
e000b028:	00000000 00000000 00000000 00000000     ................
e000b038:	00000000 00000000 00000000 00000000     ................
e000b048:	00000000 00000000 00000000 00000000     ................
e000b058:	00000000 00000000 00000000 00000000     ................
e000b068:	00000000 00000000 00000000 00000000     ................
e000b078:	00000000 00000000 00000000 00000000     ................
e000b088:	00000000 00000000 00000000 00000000     ................
e000b098:	00000000 00000000 00000000 00000000     ................
e000b0a8:	00000000 00000000 00000000 00000000     ................
e000b0b8:	00000000 00000000 00000000 00000000     ................
e000b0c8:	00000000 00000000 00000000 00000000     ................
e000b0d8:	00000000 00000000 00000000 00000000     ................
e000b0e8:	00000000 00000000 00000000 00000000     ................
e000b0f8:	00000000 00000000 00000000 00000000     ................
e000b108:	00000000 00000000 00000000 00000000     ................
e000b118:	00000000 00000000 00000000 00000000     ................
e000b128:	00000000 00000000 00000000 00000000     ................
e000b138:	00000000 00000000 00000000 00000000     ................
e000b148:	00000000 00000000 00000000 00000000     ................
e000b158:	00000000 00000000 00000000 00000000     ................
e000b168:	00000000 00000000 00000000 00000000     ................
e000b178:	00000000 00000000 00000000 00000000     ................
e000b188:	00000000 00000000 00000000 00000000     ................
e000b198:	00000000 00000000 00000000 00000000     ................
e000b1a8:	00000000 00000000 00000000 00000000     ................
e000b1b8:	00000000 00000000 00000000 00000000     ................
e000b1c8:	00000000 00000000 00000000 00000000     ................
e000b1d8:	00000000 00000000 00000000 00000000     ................
e000b1e8:	00000000 00000000 00000000 00000000     ................
e000b1f8:	00000000 00000000 00000000 00000000     ................
e000b208:	00000000 00000000 00000000 00000000     ................
e000b218:	00000000 00000000 00000000 00000000     ................
e000b228:	00000000 00000000 00000000 00000000     ................
e000b238:	00000000 00000000 00000000 00000000     ................
e000b248:	00000000 00000000 00000000 00000000     ................
e000b258:	00000000 00000000 00000000 00000000     ................
e000b268:	00000000 00000000 00000000 00000000     ................
e000b278:	00000000 00000000 00000000 00000000     ................
e000b288:	00000000 00000000 00000000 00000000     ................
e000b298:	00000000 00000000 00000000 00000000     ................
e000b2a8:	00000000 00000000 00000000 00000000     ................
e000b2b8:	00000000 00000000 00000000 00000000     ................
e000b2c8:	00000000 00000000 00000000 00000000     ................
e000b2d8:	00000000 00000000 00000000 00000000     ................
e000b2e8:	00000000 00000000 00000000 00000000     ................
e000b2f8:	00000000 00000000 00000000 00000000     ................
e000b308:	00000000 00000000 00000000 00000000     ................
e000b318:	00000000 00000000 00000000 00000000     ................
e000b328:	00000000 00000000 00000000 00000000     ................
e000b338:	00000000 00000000 00000000 00000000     ................
e000b348:	00000000 00000000 00000000 00000000     ................
e000b358:	00000000 00000000 00000000 00000000     ................
e000b368:	00000000 00000000 00000000 00000000     ................
e000b378:	00000000 00000000 00000000 00000000     ................
e000b388:	00000000 00000000 00000000 00000000     ................
e000b398:	00000000 00000000 00000000 00000000     ................
e000b3a8:	00000000 00000000 00000000 00000000     ................
e000b3b8:	00000000 00000000 00000000 00000000     ................
e000b3c8:	00000000 00000000 00000000 00000000     ................
e000b3d8:	00000000 00000000 00000000 00000000     ................
e000b3e8:	00000000 00000000 00000000 00000000     ................
e000b3f8:	00000000 00000000 00000000 00000000     ................
e000b408:	00000000 00000000 00000000 00000000     ................
e000b418:	00000000 00000000 00000000 00000000     ................
e000b428:	00000000 00000000 00000000 00000000     ................
e000b438:	00000000 00000000 00000000 00000000     ................
e000b448:	00000000 00000000 00000000 00000000     ................
e000b458:	00000000 00000000 00000000 00000000     ................
e000b468:	00000000 00000000 00000000 00000000     ................
e000b478:	00000000 00000000 00000000 00000000     ................
e000b488:	00000000 00000000 00000000 00000000     ................
e000b498:	00000000 00000000 00000000 00000000     ................
e000b4a8:	00000000 00000000 00000000 00000000     ................
e000b4b8:	00000000 00000000 00000000 00000000     ................
e000b4c8:	00000000 00000000 00000000 00000000     ................
e000b4d8:	00000000 00000000 00000000 00000000     ................
e000b4e8:	00000000 00000000 00000000 00000000     ................
e000b4f8:	00000000 00000000 00000000 00000000     ................
e000b508:	00000000 00000000 00000000 00000000     ................
e000b518:	00000000 00000000 00000000 00000000     ................
e000b528:	00000000 00000000 00000000 00000000     ................
e000b538:	00000000 00000000 00000000 00000000     ................
e000b548:	00000000 00000000 00000000 00000000     ................
e000b558:	00000000 00000000 00000000 00000000     ................
e000b568:	00000000 00000000 00000000 00000000     ................
e000b578:	00000000 00000000 00000000 00000000     ................
e000b588:	00000000 00000000 00000000 00000000     ................
e000b598:	00000000 00000000 00000000 00000000     ................
e000b5a8:	00000000 00000000 00000000 00000000     ................
e000b5b8:	00000000 00000000 00000000 00000000     ................
e000b5c8:	00000000 00000000 00000000 00000000     ................
e000b5d8:	00000000 00000000 00000000 00000000     ................
e000b5e8:	00000000 00000000 00000000 00000000     ................
e000b5f8:	00000000 00000000 00000000 00000000     ................
e000b608:	00000000 00000000 00000000 00000000     ................
e000b618:	00000000 00000000 00000000 00000000     ................
e000b628:	00000000 00000000 00000000 00000000     ................
e000b638:	00000000 00000000 00000000 00000000     ................
e000b648:	00000000 00000000 00000000 00000000     ................
e000b658:	00000000 00000000 00000000 00000000     ................
e000b668:	00000000 00000000 00000000 00000000     ................
e000b678:	00000000 00000000 00000000 00000000     ................
e000b688:	00000000 00000000 00000000 00000000     ................
e000b698:	00000000 00000000 00000000 00000000     ................
e000b6a8:	00000000 00000000 00000000 00000000     ................
e000b6b8:	00000000 00000000 00000000 00000000     ................
e000b6c8:	00000000 00000000 00000000 00000000     ................
e000b6d8:	00000000 00000000 00000000 00000000     ................
e000b6e8:	00000000 00000000 00000000 00000000     ................
e000b6f8:	00000000 00000000 00000000 00000000     ................
e000b708:	00000000 00000000 00000000 00000000     ................
e000b718:	00000000 00000000 00000000 00000000     ................
e000b728:	00000000 00000000 00000000 00000000     ................
e000b738:	00000000 00000000 00000000 00000000     ................
e000b748:	00000000 00000000 00000000 00000000     ................
e000b758:	00000000 00000000 00000000 00000000     ................
e000b768:	00000000 00000000 00000000 00000000     ................
e000b778:	00000000 00000000 00000000 00000000     ................
e000b788:	00000000 00000000 00000000 00000000     ................
e000b798:	00000000 00000000 00000000 00000000     ................
e000b7a8:	00000000 00000000 00000000 00000000     ................
e000b7b8:	00000000 00000000 00000000 00000000     ................
e000b7c8:	00000000 00000000 00000000 00000000     ................
e000b7d8:	00000000 00000000 00000000 00000000     ................
e000b7e8:	00000000 00000000 00000000 00000000     ................
e000b7f8:	00000000 00000000 00000000 00000000     ................
e000b808:	00000000 00000000 00000000 00000000     ................
e000b818:	00000000 00000000 00000000 00000000     ................
e000b828:	00000000 00000000 00000000 00000000     ................
e000b838:	00000000 00000000 00000000 00000000     ................
e000b848:	00000000 00000000 00000000 00000000     ................
e000b858:	00000000 00000000 00000000 00000000     ................
e000b868:	00000000 00000000 00000000 00000000     ................
e000b878:	00000000 00000000 00000000 00000000     ................
e000b888:	00000000 00000000 00000000 00000000     ................
e000b898:	00000000 00000000 00000000 00000000     ................
e000b8a8:	00000000 00000000 00000000 00000000     ................
e000b8b8:	00000000 00000000 00000000 00000000     ................
e000b8c8:	00000000 00000000 00000000 00000000     ................
e000b8d8:	00000000 00000000 00000000 00000000     ................
e000b8e8:	00000000 00000000 00000000 00000000     ................
e000b8f8:	00000000 00000000 00000000 00000000     ................
e000b908:	00000000 00000000 00000000 00000000     ................
e000b918:	00000000 00000000 00000000 00000000     ................
e000b928:	00000000 00000000 00000000 00000000     ................
e000b938:	00000000 00000000 00000000 00000000     ................
e000b948:	00000000 00000000 00000000 00000000     ................
e000b958:	00000000 00000000 00000000 00000000     ................
e000b968:	00000000 00000000 00000000 00000000     ................
e000b978:	00000000 00000000 00000000 00000000     ................
e000b988:	00000000 00000000 00000000 00000000     ................
e000b998:	00000000 00000000 00000000 00000000     ................
e000b9a8:	00000000 00000000 00000000 00000000     ................
e000b9b8:	00000000 00000000 00000000 00000000     ................
e000b9c8:	00000000 00000000 00000000 00000000     ................
e000b9d8:	00000000 00000000 00000000 00000000     ................
e000b9e8:	00000000 00000000 00000000 00000000     ................
e000b9f8:	00000000 00000000 00000000 00000000     ................
e000ba08:	00000000 00000000 00000000 00000000     ................
e000ba18:	00000000 00000000 00000000 00000000     ................
e000ba28:	00000000 00000000 00000000 00000000     ................
e000ba38:	00000000 00000000 00000000 00000000     ................
e000ba48:	00000000 00000000 00000000 00000000     ................
e000ba58:	00000000 00000000 00000000 00000000     ................
e000ba68:	00000000 00000000 00000000 00000000     ................
e000ba78:	00000000 00000000 00000000 00000000     ................
e000ba88:	00000000 00000000 00000000 00000000     ................
e000ba98:	00000000 00000000 00000000 00000000     ................
e000baa8:	00000000 00000000 00000000 00000000     ................
e000bab8:	00000000 00000000 00000000 00000000     ................
e000bac8:	00000000 00000000 00000000 00000000     ................
e000bad8:	00000000 00000000 00000000 00000000     ................
e000bae8:	00000000 00000000 00000000 00000000     ................
e000baf8:	00000000 00000000 00000000 00000000     ................
e000bb08:	00000000 00000000 00000000 00000000     ................
e000bb18:	00000000 00000000 00000000 00000000     ................
e000bb28:	00000000 00000000 00000000 00000000     ................
e000bb38:	00000000 00000000 00000000 00000000     ................
e000bb48:	00000000 00000000 00000000 00000000     ................
e000bb58:	00000000 00000000 00000000 00000000     ................
e000bb68:	00000000 00000000 00000000 00000000     ................
e000bb78:	00000000 00000000 00000000 00000000     ................
e000bb88:	00000000 00000000 00000000 00000000     ................
e000bb98:	00000000 00000000 00000000 00000000     ................
e000bba8:	00000000 00000000 00000000 00000000     ................
e000bbb8:	00000000 00000000 00000000 00000000     ................
e000bbc8:	00000000 00000000 00000000 00000000     ................
e000bbd8:	00000000 00000000 00000000 00000000     ................
e000bbe8:	00000000 00000000 00000000 00000000     ................
e000bbf8:	00000000 00000000 00000000 00000000     ................
e000bc08:	00000000 00000000 00000000 00000000     ................
e000bc18:	00000000 00000000 00000000 00000000     ................
e000bc28:	00000000 00000000 00000000 00000000     ................
e000bc38:	00000000 00000000 00000000 00000000     ................
e000bc48:	00000000 00000000 00000000 00000000     ................
e000bc58:	00000000 00000000 00000000 00000000     ................
e000bc68:	00000000 00000000 00000000 00000000     ................
e000bc78:	00000000 00000000 00000000 00000000     ................
e000bc88:	00000000 00000000 00000000 00000000     ................
e000bc98:	00000000 00000000 00000000 00000000     ................
e000bca8:	00000000 00000000 00000000 00000000     ................
e000bcb8:	00000000 00000000 00000000 00000000     ................
e000bcc8:	00000000 00000000 00000000 00000000     ................
e000bcd8:	00000000 00000000 00000000 00000000     ................
e000bce8:	00000000 00000000 00000000 00000000     ................
e000bcf8:	00000000 00000000 00000000 00000000     ................
e000bd08:	00000000 00000000 00000000 00000000     ................
e000bd18:	00000000 00000000 00000000 00000000     ................
e000bd28:	00000000 00000000 00000000 00000000     ................
e000bd38:	00000000 00000000 00000000 00000000     ................
e000bd48:	00000000 00000000 00000000 00000000     ................
e000bd58:	00000000 00000000 00000000 00000000     ................
e000bd68:	00000000 00000000 00000000 00000000     ................
e000bd78:	00000000 00000000 00000000 00000000     ................
e000bd88:	00000000 00000000 00000000 00000000     ................
e000bd98:	00000000 00000000 00000000 00000000     ................
e000bda8:	00000000 00000000 00000000 00000000     ................
e000bdb8:	00000000 00000000 00000000 00000000     ................
e000bdc8:	00000000 00000000 00000000 00000000     ................
e000bdd8:	00000000 00000000 00000000 00000000     ................
e000bde8:	00000000 00000000 00000000 00000000     ................
e000bdf8:	00000000 00000000 00000000 00000000     ................
e000be08:	00000000 00000000 00000000 00000000     ................
e000be18:	00000000 00000000 00000000 00000000     ................
e000be28:	00000000 00000000 00000000 00000000     ................
e000be38:	00000000 00000000 00000000 00000000     ................
e000be48:	00000000 00000000 00000000 00000000     ................
e000be58:	00000000 00000000 00000000 00000000     ................
e000be68:	00000000 00000000 00000000 00000000     ................
e000be78:	00000000 00000000 00000000 00000000     ................
e000be88:	00000000 00000000 00000000 00000000     ................
e000be98:	00000000 00000000 00000000 00000000     ................
e000bea8:	00000000 00000000 00000000 00000000     ................
e000beb8:	00000000 00000000 00000000 00000000     ................
e000bec8:	00000000 00000000 00000000 00000000     ................
e000bed8:	00000000 00000000 00000000 00000000     ................
e000bee8:	00000000 00000000 00000000 00000000     ................
e000bef8:	00000000 00000000 00000000 00000000     ................
e000bf08:	00000000 00000000 00000000 00000000     ................
e000bf18:	00000000 00000000 00000000 00000000     ................
e000bf28:	00000000 00000000 00000000 00000000     ................
e000bf38:	00000000 00000000 00000000 00000000     ................
e000bf48:	00000000 00000000 00000000 00000000     ................
e000bf58:	00000000 00000000 00000000 00000000     ................
e000bf68:	00000000 00000000 00000000 00000000     ................
e000bf78:	00000000 00000000 00000000 00000000     ................
e000bf88:	00000000 00000000 00000000 00000000     ................
e000bf98:	00000000 00000000 00000000 00000000     ................
e000bfa8:	00000000 00000000 00000000 00000000     ................
e000bfb8:	00000000 00000000 00000000 00000000     ................
e000bfc8:	00000000 00000000 00000000 00000000     ................
e000bfd8:	00000000 00000000 00000000 00000000     ................
e000bfe8:	00000000 00000000 00000000 00000000     ................
e000bff8:	00000000 00000000 00000000 00000000     ................
e000c008:	00000000 00000000 00000000 00000000     ................
e000c018:	00000000 00000000 00000000 00000000     ................
e000c028:	00000000 00000000 00000000 00000000     ................
e000c038:	00000000 00000000 00000000 00000000     ................
e000c048:	00000000 00000000 00000000 00000000     ................
e000c058:	00000000 00000000 00000000 00000000     ................
e000c068:	00000000 00000000 00000000 00000000     ................
e000c078:	00000000 00000000 00000000 00000000     ................
e000c088:	00000000 00000000 00000000 00000000     ................
e000c098:	00000000 00000000 00000000 00000000     ................
e000c0a8:	00000000 00000000 00000000 00000000     ................
e000c0b8:	00000000 00000000 00000000 00000000     ................
e000c0c8:	00000000 00000000 00000000 00000000     ................
e000c0d8:	00000000 00000000 00000000 00000000     ................
e000c0e8:	00000000 00000000 00000000 00000000     ................
e000c0f8:	00000000 00000000 00000000 00000000     ................
e000c108:	00000000 00000000 00000000 00000000     ................
e000c118:	00000000 00000000 00000000 00000000     ................
e000c128:	00000000 00000000 00000000 00000000     ................
e000c138:	00000000 00000000 00000000 00000000     ................
e000c148:	00000000 00000000 00000000 00000000     ................
e000c158:	00000000 00000000 00000000 00000000     ................
e000c168:	00000000 00000000 00000000 00000000     ................
e000c178:	00000000 00000000 00000000 00000000     ................
e000c188:	00000000 00000000 00000000 00000000     ................
e000c198:	00000000 00000000 00000000 00000000     ................
e000c1a8:	00000000 00000000 00000000 00000000     ................
e000c1b8:	00000000 00000000 00000000 00000000     ................
e000c1c8:	00000000 00000000 00000000 00000000     ................
e000c1d8:	00000000 00000000 00000000 00000000     ................
e000c1e8:	00000000 00000000 00000000 00000000     ................
e000c1f8:	00000000 00000000 00000000 00000000     ................
e000c208:	00000000 00000000 00000000 00000000     ................
e000c218:	00000000 00000000 00000000 00000000     ................
e000c228:	00000000 00000000 00000000 00000000     ................
e000c238:	00000000 00000000 00000000 00000000     ................
e000c248:	00000000 00000000 00000000 00000000     ................
e000c258:	00000000 00000000 00000000 00000000     ................
e000c268:	00000000 00000000 00000000 00000000     ................
e000c278:	00000000 00000000 00000000 00000000     ................
e000c288:	00000000 00000000 00000000 00000000     ................
e000c298:	00000000 00000000 00000000 00000000     ................
e000c2a8:	00000000 00000000 00000000 00000000     ................
e000c2b8:	00000000 00000000 00000000 00000000     ................
e000c2c8:	00000000 00000000 00000000 00000000     ................
e000c2d8:	00000000 00000000 00000000 00000000     ................
e000c2e8:	00000000 00000000 00000000 00000000     ................
e000c2f8:	00000000 00000000 00000000 00000000     ................
e000c308:	00000000 00000000 00000000 00000000     ................
e000c318:	00000000 00000000 00000000 00000000     ................
e000c328:	00000000 00000000 00000000 00000000     ................
e000c338:	00000000 00000000 00000000 00000000     ................
e000c348:	00000000 00000000 00000000 00000000     ................
e000c358:	00000000 00000000 00000000 00000000     ................
e000c368:	00000000 00000000 00000000 00000000     ................
e000c378:	00000000 00000000 00000000 00000000     ................
e000c388:	00000000 00000000 00000000 00000000     ................
e000c398:	00000000 00000000 00000000 00000000     ................
e000c3a8:	00000000 00000000 00000000 00000000     ................
e000c3b8:	00000000 00000000 00000000 00000000     ................
e000c3c8:	00000000 00000000 00000000 00000000     ................
e000c3d8:	00000000 00000000 00000000 00000000     ................
e000c3e8:	00000000 00000000 00000000 00000000     ................
e000c3f8:	00000000 00000000 00000000 00000000     ................
e000c408:	00000000 00000000 00000000 00000000     ................
e000c418:	00000000 00000000 00000000 00000000     ................
e000c428:	00000000 00000000 00000000 00000000     ................
e000c438:	00000000 00000000 00000000 00000000     ................
e000c448:	00000000 00000000 00000000 00000000     ................
e000c458:	00000000 00000000 00000000 00000000     ................
e000c468:	00000000 00000000 00000000 00000000     ................
e000c478:	00000000 00000000 00000000 00000000     ................
e000c488:	00000000 00000000 00000000 00000000     ................
e000c498:	00000000 00000000 00000000 00000000     ................
e000c4a8:	00000000 00000000 00000000 00000000     ................
e000c4b8:	00000000 00000000 00000000 00000000     ................
e000c4c8:	00000000 00000000 00000000 00000000     ................
e000c4d8:	00000000 00000000 00000000 00000000     ................
e000c4e8:	00000000 00000000 00000000 00000000     ................
e000c4f8:	00000000 00000000 00000000 00000000     ................
e000c508:	00000000 00000000 00000000 00000000     ................
e000c518:	00000000 00000000 00000000 00000000     ................
e000c528:	00000000 00000000 00000000 00000000     ................
e000c538:	00000000 00000000 00000000 00000000     ................
e000c548:	00000000 00000000 00000000 00000000     ................
e000c558:	00000000 00000000 00000000 00000000     ................
e000c568:	00000000 00000000 00000000 00000000     ................
e000c578:	00000000 00000000 00000000 00000000     ................
e000c588:	00000000 00000000 00000000 00000000     ................
e000c598:	00000000 00000000 00000000 00000000     ................
e000c5a8:	00000000 00000000 00000000 00000000     ................
e000c5b8:	00000000 00000000 00000000 00000000     ................
e000c5c8:	00000000 00000000 00000000 00000000     ................
e000c5d8:	00000000 00000000 00000000 00000000     ................
e000c5e8:	00000000 00000000 00000000 00000000     ................
e000c5f8:	00000000 00000000 00000000 00000000     ................
e000c608:	00000000 00000000 00000000 00000000     ................
e000c618:	00000000 00000000 00000000 00000000     ................
e000c628:	00000000 00000000 00000000 00000000     ................
e000c638:	00000000 00000000 00000000 00000000     ................
e000c648:	00000000 00000000 00000000 00000000     ................
e000c658:	00000000 00000000 00000000 00000000     ................
e000c668:	00000000 00000000 00000000 00000000     ................
e000c678:	00000000 00000000 00000000 00000000     ................
e000c688:	00000000 00000000 00000000 00000000     ................
e000c698:	00000000 00000000 00000000 00000000     ................
e000c6a8:	00000000 00000000 00000000 00000000     ................
e000c6b8:	00000000 00000000 00000000 00000000     ................
e000c6c8:	00000000 00000000 00000000 00000000     ................
e000c6d8:	00000000 00000000 00000000 00000000     ................
e000c6e8:	00000000 00000000 00000000 00000000     ................
e000c6f8:	00000000 00000000 00000000 00000000     ................
e000c708:	00000000 00000000 00000000 00000000     ................
e000c718:	00000000 00000000 00000000 00000000     ................
e000c728:	00000000 00000000 00000000 00000000     ................
e000c738:	00000000 00000000 00000000 00000000     ................
e000c748:	00000000 00000000 00000000 00000000     ................
e000c758:	00000000 00000000 00000000 00000000     ................
e000c768:	00000000 00000000 00000000 00000000     ................
e000c778:	00000000 00000000 00000000 00000000     ................
e000c788:	00000000 00000000 00000000 00000000     ................
e000c798:	00000000 00000000 00000000 00000000     ................
e000c7a8:	00000000 00000000 00000000 00000000     ................
e000c7b8:	00000000 00000000 00000000 00000000     ................
e000c7c8:	00000000 00000000 00000000 00000000     ................
e000c7d8:	00000000 00000000 00000000 00000000     ................
e000c7e8:	00000000 00000000 00000000 00000000     ................
e000c7f8:	00000000 00000000 00000000 00000000     ................
e000c808:	00000000 00000000 00000000 00000000     ................
e000c818:	00000000 00000000 00000000 00000000     ................
e000c828:	00000000 00000000 00000000 00000000     ................
e000c838:	00000000 00000000 00000000 00000000     ................
e000c848:	00000000 00000000 00000000 00000000     ................
e000c858:	00000000 00000000 00000000 00000000     ................
e000c868:	00000000 00000000 00000000 00000000     ................
e000c878:	00000000 00000000 00000000 00000000     ................
e000c888:	00000000 00000000 00000000 00000000     ................
e000c898:	00000000 00000000 00000000 00000000     ................
e000c8a8:	00000000 00000000 00000000 00000000     ................
e000c8b8:	00000000 00000000 00000000 00000000     ................
e000c8c8:	00000000 00000000 00000000 00000000     ................
e000c8d8:	00000000 00000000 00000000 00000000     ................
e000c8e8:	00000000 00000000 00000000 00000000     ................
e000c8f8:	00000000 00000000 00000000 00000000     ................
e000c908:	00000000 00000000 00000000 00000000     ................
e000c918:	00000000 00000000 00000000 00000000     ................
e000c928:	00000000 00000000 00000000 00000000     ................
e000c938:	00000000 00000000 00000000 00000000     ................
e000c948:	00000000 00000000 00000000 00000000     ................
e000c958:	00000000 00000000 00000000 00000000     ................
e000c968:	00000000 00000000 00000000 00000000     ................
e000c978:	00000000 00000000 00000000 00000000     ................
e000c988:	00000000 00000000 00000000 00000000     ................
e000c998:	00000000 00000000 00000000 00000000     ................
e000c9a8:	00000000 00000000 00000000 00000000     ................
e000c9b8:	00000000 00000000 00000000 00000000     ................
e000c9c8:	00000000 00000000 00000000 00000000     ................
e000c9d8:	00000000 00000000 00000000 00000000     ................
e000c9e8:	00000000 00000000 00000000 00000000     ................
e000c9f8:	00000000 00000000 00000000 00000000     ................
e000ca08:	00000000 00000000 00000000 00000000     ................
e000ca18:	00000000 00000000 00000000 00000000     ................
e000ca28:	00000000 00000000 00000000 00000000     ................
e000ca38:	00000000 00000000 00000000 00000000     ................
e000ca48:	00000000 00000000 00000000 00000000     ................
e000ca58:	00000000 00000000 00000000 00000000     ................
e000ca68:	00000000 00000000 00000000 00000000     ................
e000ca78:	00000000 00000000 00000000 00000000     ................
e000ca88:	00000000 00000000 00000000 00000000     ................
e000ca98:	00000000 00000000 00000000 00000000     ................
e000caa8:	00000000 00000000 00000000 00000000     ................
e000cab8:	00000000 00000000 00000000 00000000     ................
e000cac8:	00000000 00000000 00000000 00000000     ................
e000cad8:	00000000 00000000 00000000 00000000     ................
e000cae8:	00000000 00000000 00000000 00000000     ................
e000caf8:	00000000 00000000 00000000 00000000     ................
e000cb08:	00000000 00000000 00000000 00000000     ................
e000cb18:	00000000 00000000 00000000 00000000     ................
e000cb28:	00000000 00000000 00000000 00000000     ................
e000cb38:	00000000 00000000 00000000 00000000     ................
e000cb48:	00000000 00000000 00000000 00000000     ................
e000cb58:	00000000 00000000 00000000 00000000     ................
e000cb68:	00000000 00000000 00000000 00000000     ................
e000cb78:	00000000 00000000 00000000 00000000     ................
e000cb88:	00000000 00000000 00000000 00000000     ................
e000cb98:	00000000 00000000 00000000 00000000     ................
e000cba8:	00000000 00000000 00000000 00000000     ................
e000cbb8:	00000000 00000000 00000000 00000000     ................
e000cbc8:	00000000 00000000 00000000 00000000     ................
e000cbd8:	00000000 00000000 00000000 00000000     ................
e000cbe8:	00000000 00000000 00000000 00000000     ................
e000cbf8:	00000000 00000000 00000000 00000000     ................
e000cc08:	00000000 00000000 00000000 00000000     ................
e000cc18:	00000000 00000000 00000000 00000000     ................
e000cc28:	00000000 00000000 00000000 00000000     ................
e000cc38:	00000000 00000000 00000000 00000000     ................
e000cc48:	00000000 00000000 00000000 00000000     ................
e000cc58:	00000000 00000000 00000000 00000000     ................
e000cc68:	00000000 00000000 00000000 00000000     ................
e000cc78:	00000000 00000000 00000000 00000000     ................
e000cc88:	00000000 00000000 00000000 00000000     ................
e000cc98:	00000000 00000000 00000000 00000000     ................
e000cca8:	00000000 00000000 00000000 00000000     ................
e000ccb8:	00000000 00000000 00000000 00000000     ................
e000ccc8:	00000000 00000000 00000000 00000000     ................
e000ccd8:	00000000 00000000 00000000 00000000     ................
e000cce8:	00000000 00000000 00000000 00000000     ................
e000ccf8:	00000000 00000000 00000000 00000000     ................
e000cd08:	00000000 00000000 00000000 00000000     ................
e000cd18:	00000000 00000000 00000000 00000000     ................
e000cd28:	00000000 00000000 00000000 00000000     ................
e000cd38:	00000000 00000000 00000000 00000000     ................
e000cd48:	00000000 00000000 00000000 00000000     ................
e000cd58:	00000000 00000000 00000000 00000000     ................
e000cd68:	00000000 00000000 00000000 00000000     ................
e000cd78:	00000000 00000000 00000000 00000000     ................
e000cd88:	00000000 00000000 00000000 00000000     ................
e000cd98:	00000000 00000000 00000000 00000000     ................
e000cda8:	00000000 00000000 00000000 00000000     ................
e000cdb8:	00000000 00000000 00000000 00000000     ................
e000cdc8:	00000000 00000000 00000000 00000000     ................
e000cdd8:	00000000 00000000 00000000 00000000     ................
e000cde8:	00000000 00000000 00000000 00000000     ................
e000cdf8:	00000000 00000000 00000000 00000000     ................
e000ce08:	00000000 00000000 00000000 00000000     ................
e000ce18:	00000000 00000000 00000000 00000000     ................
e000ce28:	00000000 00000000 00000000 00000000     ................
e000ce38:	00000000 00000000 00000000 00000000     ................
e000ce48:	00000000 00000000 00000000 00000000     ................
e000ce58:	00000000 00000000 00000000 00000000     ................
e000ce68:	00000000 00000000 00000000 00000000     ................
e000ce78:	00000000 00000000 00000000 00000000     ................
e000ce88:	00000000 00000000 00000000 00000000     ................
e000ce98:	00000000 00000000 00000000 00000000     ................
e000cea8:	00000000 00000000 00000000 00000000     ................
e000ceb8:	00000000 00000000 00000000 00000000     ................
e000cec8:	00000000 00000000 00000000 00000000     ................
e000ced8:	00000000 00000000 00000000 00000000     ................
e000cee8:	00000000 00000000 00000000 00000000     ................
e000cef8:	00000000 00000000 00000000 00000000     ................
e000cf08:	00000000 00000000 00000000 00000000     ................
e000cf18:	00000000 00000000 00000000 00000000     ................
e000cf28:	00000000 00000000 00000000 00000000     ................
e000cf38:	00000000 00000000 00000000 00000000     ................
e000cf48:	00000000 00000000 00000000 00000000     ................
e000cf58:	00000000 00000000 00000000 00000000     ................
e000cf68:	00000000 00000000 00000000 00000000     ................
e000cf78:	00000000 00000000 00000000 00000000     ................
e000cf88:	00000000 00000000 00000000 00000000     ................
e000cf98:	00000000 00000000 00000000 00000000     ................
e000cfa8:	00000000 00000000 00000000 00000000     ................
e000cfb8:	00000000 00000000 00000000 00000000     ................
e000cfc8:	00000000 00000000 00000000 00000000     ................
e000cfd8:	00000000 00000000 00000000 00000000     ................
e000cfe8:	00000000 00000000 00000000 00000000     ................
e000cff8:	00000000 00000000 00000000 00000000     ................
e000d008:	00000000 00000000 00000000 00000000     ................
e000d018:	00000000 00000000 00000000 00000000     ................
e000d028:	00000000 00000000 00000000 00000000     ................
e000d038:	00000000 00000000 00000000 00000000     ................
e000d048:	00000000 00000000 00000000 00000000     ................
e000d058:	00000000 00000000 00000000 00000000     ................
e000d068:	00000000 00000000 00000000 00000000     ................
e000d078:	00000000 00000000 00000000 00000000     ................
e000d088:	00000000 00000000 00000000 00000000     ................
e000d098:	00000000 00000000 00000000 00000000     ................
e000d0a8:	00000000 00000000 00000000 00000000     ................
e000d0b8:	00000000 00000000 00000000 00000000     ................
e000d0c8:	00000000 00000000 00000000 00000000     ................
e000d0d8:	00000000 00000000 00000000 00000000     ................
e000d0e8:	00000000 00000000 00000000 00000000     ................
e000d0f8:	00000000 00000000 00000000 00000000     ................
e000d108:	00000000 00000000 00000000 00000000     ................
e000d118:	00000000 00000000 00000000 00000000     ................
e000d128:	00000000 00000000 00000000 00000000     ................
e000d138:	00000000 00000000 00000000 00000000     ................
e000d148:	00000000 00000000 00000000 00000000     ................
e000d158:	00000000 00000000 00000000 00000000     ................
e000d168:	00000000 00000000 00000000 00000000     ................
e000d178:	00000000 00000000 00000000 00000000     ................
e000d188:	00000000 00000000 00000000 00000000     ................
e000d198:	00000000 00000000 00000000 00000000     ................
e000d1a8:	00000000 00000000 00000000 00000000     ................
e000d1b8:	00000000 00000000 00000000 00000000     ................
e000d1c8:	00000000 00000000 00000000 00000000     ................
e000d1d8:	00000000 00000000 00000000 00000000     ................
e000d1e8:	00000000 00000000 00000000 00000000     ................
e000d1f8:	00000000 00000000 00000000 00000000     ................
e000d208:	00000000 00000000 00000000 00000000     ................
e000d218:	00000000 00000000 00000000 00000000     ................
e000d228:	00000000 00000000 00000000 00000000     ................
e000d238:	00000000 00000000 00000000 00000000     ................
e000d248:	00000000 00000000 00000000 00000000     ................
e000d258:	00000000 00000000 00000000 00000000     ................
e000d268:	00000000 00000000 00000000 00000000     ................
e000d278:	00000000 00000000 00000000 00000000     ................
e000d288:	00000000 00000000 00000000 00000000     ................
e000d298:	00000000 00000000 00000000 00000000     ................
e000d2a8:	00000000 00000000 00000000 00000000     ................
e000d2b8:	00000000 00000000 00000000 00000000     ................
e000d2c8:	00000000 00000000 00000000 00000000     ................
e000d2d8:	00000000 00000000 00000000 00000000     ................
e000d2e8:	00000000 00000000 00000000 00000000     ................
e000d2f8:	00000000 00000000 00000000 00000000     ................
e000d308:	00000000 00000000 00000000 00000000     ................
e000d318:	00000000 00000000 00000000 00000000     ................
e000d328:	00000000 00000000 00000000 00000000     ................
e000d338:	00000000 00000000 00000000 00000000     ................
e000d348:	00000000 00000000 00000000 00000000     ................
e000d358:	00000000 00000000 00000000 00000000     ................
e000d368:	00000000 00000000 00000000 00000000     ................
e000d378:	00000000 00000000 00000000 00000000     ................
e000d388:	00000000 00000000 00000000 00000000     ................
e000d398:	00000000 00000000 00000000 00000000     ................
e000d3a8:	00000000 00000000 00000000 00000000     ................
e000d3b8:	00000000 00000000 00000000 00000000     ................
e000d3c8:	00000000 00000000 00000000 00000000     ................
e000d3d8:	00000000 00000000 00000000 00000000     ................
e000d3e8:	00000000 00000000 00000000 00000000     ................
e000d3f8:	00000000 00000000 00000000 00000000     ................
e000d408:	00000000 00000000 00000000 00000000     ................
e000d418:	00000000 00000000 00000000 00000000     ................
e000d428:	00000000 00000000 00000000 00000000     ................
e000d438:	00000000 00000000 00000000 00000000     ................
e000d448:	00000000 00000000 00000000 00000000     ................
e000d458:	00000000 00000000 00000000 00000000     ................
e000d468:	00000000 00000000 00000000 00000000     ................
e000d478:	00000000 00000000 00000000 00000000     ................
e000d488:	00000000 00000000 00000000 00000000     ................
e000d498:	00000000 00000000 00000000 00000000     ................
e000d4a8:	00000000 00000000 00000000 00000000     ................
e000d4b8:	00000000 00000000 00000000 00000000     ................
e000d4c8:	00000000 00000000 00000000 00000000     ................
e000d4d8:	00000000 00000000 00000000 00000000     ................
e000d4e8:	00000000 00000000 00000000 00000000     ................
e000d4f8:	00000000 00000000 00000000 00000000     ................
e000d508:	00000000 00000000 00000000 00000000     ................
e000d518:	00000000 00000000 00000000 00000000     ................
e000d528:	00000000 00000000 00000000 00000000     ................
e000d538:	00000000 00000000 00000000 00000000     ................
e000d548:	00000000 00000000 00000000 00000000     ................
e000d558:	00000000 00000000 00000000 00000000     ................
e000d568:	00000000 00000000 00000000 00000000     ................
e000d578:	00000000 00000000 00000000 00000000     ................
e000d588:	00000000 00000000 00000000 00000000     ................
e000d598:	00000000 00000000 00000000 00000000     ................
e000d5a8:	00000000 00000000 00000000 00000000     ................
e000d5b8:	00000000 00000000 00000000 00000000     ................
e000d5c8:	00000000 00000000 00000000 00000000     ................
e000d5d8:	00000000 00000000 00000000 00000000     ................
e000d5e8:	00000000 00000000 00000000 00000000     ................
e000d5f8:	00000000 00000000 00000000 00000000     ................
e000d608:	00000000 00000000 00000000 00000000     ................
e000d618:	00000000 00000000 00000000 00000000     ................
e000d628:	00000000 00000000 00000000 00000000     ................
e000d638:	00000000 00000000 00000000 00000000     ................
e000d648:	00000000 00000000 00000000 00000000     ................
e000d658:	00000000 00000000 00000000 00000000     ................
e000d668:	00000000 00000000 00000000 00000000     ................
e000d678:	00000000 00000000 00000000 00000000     ................
e000d688:	00000000 00000000 00000000 00000000     ................
e000d698:	00000000 00000000 00000000 00000000     ................
e000d6a8:	00000000 00000000 00000000 00000000     ................
e000d6b8:	00000000 00000000 00000000 00000000     ................
e000d6c8:	00000000 00000000 00000000 00000000     ................
e000d6d8:	00000000 00000000 00000000 00000000     ................
e000d6e8:	00000000 00000000 00000000 00000000     ................
e000d6f8:	00000000 00000000 00000000 00000000     ................
e000d708:	00000000 00000000 00000000 00000000     ................
e000d718:	00000000 00000000 00000000 00000000     ................
e000d728:	00000000 00000000 00000000 00000000     ................
e000d738:	00000000 00000000 00000000 00000000     ................
e000d748:	00000000 00000000 00000000 00000000     ................
e000d758:	00000000 00000000 00000000 00000000     ................
e000d768:	00000000 00000000 00000000 00000000     ................
e000d778:	00000000 00000000 00000000 00000000     ................
e000d788:	00000000 00000000 00000000 00000000     ................
e000d798:	00000000 00000000 00000000 00000000     ................
e000d7a8:	00000000 00000000 00000000 00000000     ................
e000d7b8:	00000000 00000000 00000000 00000000     ................
e000d7c8:	00000000 00000000 00000000 00000000     ................
e000d7d8:	00000000 00000000 00000000 00000000     ................
e000d7e8:	00000000 00000000 00000000 00000000     ................
e000d7f8:	00000000 00000000 00000000 00000000     ................
e000d808:	00000000 00000000 00000000 00000000     ................
e000d818:	00000000 00000000 00000000 00000000     ................
e000d828:	00000000 00000000 00000000 00000000     ................
e000d838:	00000000 00000000 00000000 00000000     ................
e000d848:	00000000 00000000 00000000 00000000     ................
e000d858:	00000000 00000000 00000000 00000000     ................
e000d868:	00000000 00000000 00000000 00000000     ................
e000d878:	00000000 00000000 00000000 00000000     ................
e000d888:	00000000 00000000 00000000 00000000     ................
e000d898:	00000000 00000000 00000000 00000000     ................
e000d8a8:	00000000 00000000 00000000 00000000     ................
e000d8b8:	00000000 00000000 00000000 00000000     ................
e000d8c8:	00000000 00000000 00000000 00000000     ................
e000d8d8:	00000000 00000000 00000000 00000000     ................
e000d8e8:	00000000 00000000 00000000 00000000     ................
e000d8f8:	00000000 00000000 00000000 00000000     ................
e000d908:	00000000 00000000 00000000 00000000     ................
e000d918:	00000000 00000000 00000000 00000000     ................
e000d928:	00000000 00000000 00000000 00000000     ................
e000d938:	00000000 00000000 00000000 00000000     ................
e000d948:	00000000 00000000 00000000 00000000     ................
e000d958:	00000000 00000000 00000000 00000000     ................
e000d968:	00000000 00000000 00000000 00000000     ................
e000d978:	00000000 00000000 00000000 00000000     ................
e000d988:	00000000 00000000 00000000 00000000     ................
e000d998:	00000000 00000000 00000000 00000000     ................
e000d9a8:	00000000 00000000 00000000 00000000     ................
e000d9b8:	00000000 00000000 00000000 00000000     ................
e000d9c8:	00000000 00000000 00000000 00000000     ................
e000d9d8:	00000000 00000000 00000000 00000000     ................
e000d9e8:	00000000 00000000 00000000 00000000     ................
e000d9f8:	00000000 00000000 00000000 00000000     ................
e000da08:	00000000 00000000 00000000 00000000     ................
e000da18:	00000000 00000000 00000000 00000000     ................
e000da28:	00000000 00000000 00000000 00000000     ................
e000da38:	00000000 00000000 00000000 00000000     ................
e000da48:	00000000 00000000 00000000 00000000     ................
e000da58:	00000000 00000000 00000000 00000000     ................
e000da68:	00000000 00000000 00000000 00000000     ................
e000da78:	00000000 00000000 00000000 00000000     ................
e000da88:	00000000 00000000 00000000 00000000     ................
e000da98:	00000000 00000000 00000000 00000000     ................
e000daa8:	00000000 00000000 00000000 00000000     ................
e000dab8:	00000000 00000000 00000000 00000000     ................
e000dac8:	00000000 00000000 00000000 00000000     ................
e000dad8:	00000000 00000000 00000000 00000000     ................
e000dae8:	00000000 00000000 00000000 00000000     ................
e000daf8:	00000000 00000000 00000000 00000000     ................
e000db08:	00000000 00000000 00000000 00000000     ................
e000db18:	00000000 00000000 00000000 00000000     ................
e000db28:	00000000 00000000 00000000 00000000     ................
e000db38:	00000000 00000000 00000000 00000000     ................
e000db48:	00000000 00000000 00000000 00000000     ................
e000db58:	00000000 00000000 00000000 00000000     ................
e000db68:	00000000 00000000 00000000 00000000     ................
e000db78:	00000000 00000000 00000000 00000000     ................
e000db88:	00000000 00000000 00000000 00000000     ................
e000db98:	00000000 00000000 00000000 00000000     ................
e000dba8:	00000000 00000000 00000000 00000000     ................
e000dbb8:	00000000 00000000 00000000 00000000     ................
e000dbc8:	00000000 00000000 00000000 00000000     ................
e000dbd8:	00000000 00000000 00000000 00000000     ................
e000dbe8:	00000000 00000000 00000000 00000000     ................
e000dbf8:	00000000 00000000 00000000 00000000     ................
e000dc08:	00000000 00000000 00000000 00000000     ................
e000dc18:	00000000 00000000 00000000 00000000     ................
e000dc28:	00000000 00000000 00000000 00000000     ................
e000dc38:	00000000 00000000 00000000 00000000     ................
e000dc48:	00000000 00000000 00000000 00000000     ................
e000dc58:	00000000 00000000 00000000 00000000     ................
e000dc68:	00000000 00000000 00000000 00000000     ................
e000dc78:	00000000 00000000 00000000 00000000     ................
e000dc88:	00000000 00000000 00000000 00000000     ................
e000dc98:	00000000 00000000 00000000 00000000     ................
e000dca8:	00000000 00000000 00000000 00000000     ................
e000dcb8:	00000000 00000000 00000000 00000000     ................
e000dcc8:	00000000 00000000 00000000 00000000     ................
e000dcd8:	00000000 00000000 00000000 00000000     ................
e000dce8:	00000000 00000000 00000000 00000000     ................
e000dcf8:	00000000 00000000 00000000 00000000     ................
e000dd08:	00000000 00000000 00000000 00000000     ................
e000dd18:	00000000 00000000 00000000 00000000     ................
e000dd28:	00000000 00000000 00000000 00000000     ................
e000dd38:	00000000 00000000 00000000 00000000     ................
e000dd48:	00000000 00000000 00000000 00000000     ................
e000dd58:	00000000 00000000 00000000 00000000     ................
e000dd68:	00000000 00000000 00000000 00000000     ................
e000dd78:	00000000 00000000 00000000 00000000     ................
e000dd88:	00000000 00000000 00000000 00000000     ................
e000dd98:	00000000 00000000 00000000 00000000     ................
e000dda8:	00000000 00000000 00000000 00000000     ................
e000ddb8:	00000000 00000000 00000000 00000000     ................
e000ddc8:	00000000 00000000 00000000 00000000     ................
e000ddd8:	00000000 00000000 00000000 00000000     ................
e000dde8:	00000000 00000000 00000000 00000000     ................
e000ddf8:	00000000 00000000 00000000 00000000     ................
e000de08:	00000000 00000000 00000000 00000000     ................
e000de18:	00000000 00000000 00000000 00000000     ................
e000de28:	00000000 00000000 00000000 00000000     ................
e000de38:	00000000 00000000 00000000 00000000     ................
e000de48:	00000000 00000000 00000000 00000000     ................
e000de58:	00000000 00000000 00000000 00000000     ................
e000de68:	00000000 00000000 00000000 00000000     ................
e000de78:	00000000 00000000 00000000 00000000     ................
e000de88:	00000000 00000000 00000000 00000000     ................
e000de98:	00000000 00000000 00000000 00000000     ................
e000dea8:	00000000 00000000 00000000 00000000     ................
e000deb8:	00000000 00000000 00000000 00000000     ................
e000dec8:	00000000 00000000 00000000 00000000     ................
e000ded8:	00000000 00000000 00000000 00000000     ................
e000dee8:	00000000 00000000 00000000 00000000     ................
e000def8:	00000000 00000000 00000000 00000000     ................
e000df08:	00000000 00000000 00000000 00000000     ................
e000df18:	00000000 00000000 00000000 00000000     ................
e000df28:	00000000 00000000 00000000 00000000     ................
e000df38:	00000000 00000000 00000000 00000000     ................
e000df48:	00000000 00000000 00000000 00000000     ................
e000df58:	00000000 00000000 00000000 00000000     ................
e000df68:	00000000 00000000 00000000 00000000     ................
e000df78:	00000000 00000000 00000000 00000000     ................
e000df88:	00000000 00000000 00000000 00000000     ................
e000df98:	00000000 00000000 00000000 00000000     ................
e000dfa8:	00000000 00000000 00000000 00000000     ................
e000dfb8:	00000000 00000000 00000000 00000000     ................
e000dfc8:	00000000 00000000 00000000 00000000     ................
e000dfd8:	00000000 00000000 00000000 00000000     ................
e000dfe8:	00000000 00000000 00000000 00000000     ................
e000dff8:	00000000 00000000 00000000 00000000     ................
e000e008:	00000000 00000000 00000000 00000000     ................
e000e018:	00000000 00000000 00000000 00000000     ................
e000e028:	00000000 00000000 00000000 00000000     ................
e000e038:	00000000 00000000 00000000 00000000     ................
e000e048:	00000000 00000000 00000000 00000000     ................
e000e058:	00000000 00000000 00000000 00000000     ................
e000e068:	00000000 00000000 00000000 00000000     ................
e000e078:	00000000 00000000 00000000 00000000     ................
e000e088:	00000000 00000000 00000000 00000000     ................
e000e098:	00000000 00000000 00000000 00000000     ................
e000e0a8:	00000000 00000000 00000000 00000000     ................
e000e0b8:	00000000 00000000 00000000 00000000     ................
e000e0c8:	00000000 00000000 00000000 00000000     ................
e000e0d8:	00000000 00000000 00000000 00000000     ................
e000e0e8:	00000000 00000000 00000000 00000000     ................
e000e0f8:	00000000 00000000 00000000 00000000     ................
e000e108:	00000000 00000000 00000000 00000000     ................
e000e118:	00000000 00000000 00000000 00000000     ................
e000e128:	00000000 00000000 00000000 00000000     ................
e000e138:	00000000 00000000 00000000 00000000     ................
e000e148:	00000000 00000000 00000000 00000000     ................
e000e158:	00000000 00000000 00000000 00000000     ................
e000e168:	00000000 00000000 00000000 00000000     ................
e000e178:	00000000 00000000 00000000 00000000     ................
e000e188:	00000000 00000000 00000000 00000000     ................
e000e198:	00000000 00000000 00000000 00000000     ................
e000e1a8:	00000000 00000000 00000000 00000000     ................
e000e1b8:	00000000 00000000 00000000 00000000     ................
e000e1c8:	00000000 00000000 00000000 00000000     ................
e000e1d8:	00000000 00000000 00000000 00000000     ................
e000e1e8:	00000000 00000000 00000000 00000000     ................
e000e1f8:	00000000 00000000 00000000 00000000     ................
e000e208:	00000000 00000000 00000000 00000000     ................
e000e218:	00000000 00000000 00000000 00000000     ................
e000e228:	00000000 00000000 00000000 00000000     ................
e000e238:	00000000 00000000 00000000 00000000     ................
e000e248:	00000000 00000000 00000000 00000000     ................
e000e258:	00000000 00000000 00000000 00000000     ................
e000e268:	00000000 00000000 00000000 00000000     ................
e000e278:	00000000 00000000 00000000 00000000     ................
e000e288:	00000000 00000000 00000000 00000000     ................
e000e298:	00000000 00000000 00000000 00000000     ................
e000e2a8:	00000000 00000000 00000000 00000000     ................
e000e2b8:	00000000 00000000 00000000 00000000     ................
e000e2c8:	00000000 00000000 00000000 00000000     ................
e000e2d8:	00000000 00000000 00000000 00000000     ................
e000e2e8:	00000000 00000000 00000000 00000000     ................
e000e2f8:	00000000 00000000 00000000 00000000     ................
e000e308:	00000000 00000000 00000000 00000000     ................
e000e318:	00000000 00000000 00000000 00000000     ................
e000e328:	00000000 00000000 00000000 00000000     ................
e000e338:	00000000 00000000 00000000 00000000     ................
e000e348:	00000000 00000000 00000000 00000000     ................
e000e358:	00000000 00000000 00000000 00000000     ................
e000e368:	00000000 00000000 00000000 00000000     ................
e000e378:	00000000 00000000 00000000 00000000     ................
e000e388:	00000000 00000000 00000000 00000000     ................
e000e398:	00000000 00000000 00000000 00000000     ................
e000e3a8:	00000000 00000000 00000000 00000000     ................
e000e3b8:	00000000 00000000 00000000 00000000     ................
e000e3c8:	00000000 00000000 00000000 00000000     ................
e000e3d8:	00000000 00000000 00000000 00000000     ................
e000e3e8:	00000000 00000000 00000000 00000000     ................
e000e3f8:	00000000 00000000 00000000 00000000     ................
e000e408:	00000000 00000000 00000000 00000000     ................
e000e418:	00000000 00000000 00000000 00000000     ................
e000e428:	00000000 00000000 00000000 00000000     ................
e000e438:	00000000 00000000 00000000 00000000     ................
e000e448:	00000000 00000000 00000000 00000000     ................
e000e458:	00000000 00000000 00000000 00000000     ................
e000e468:	00000000 00000000 00000000 00000000     ................
e000e478:	00000000 00000000 00000000 00000000     ................
e000e488:	00000000 00000000 00000000 00000000     ................
e000e498:	00000000 00000000 00000000 00000000     ................
e000e4a8:	00000000 00000000 00000000 00000000     ................
e000e4b8:	00000000 00000000 00000000 00000000     ................
e000e4c8:	00000000 00000000 00000000 00000000     ................
e000e4d8:	00000000 00000000 00000000 00000000     ................
e000e4e8:	00000000 00000000 00000000 00000000     ................
e000e4f8:	00000000 00000000 00000000 00000000     ................
e000e508:	00000000 00000000 00000000 00000000     ................
e000e518:	00000000 00000000 00000000 00000000     ................
e000e528:	00000000 00000000 00000000 00000000     ................
e000e538:	00000000 00000000 00000000 00000000     ................
e000e548:	00000000 00000000 00000000 00000000     ................
e000e558:	00000000 00000000 00000000 00000000     ................
e000e568:	00000000 00000000 00000000 00000000     ................
e000e578:	00000000 00000000 00000000 00000000     ................
e000e588:	00000000 00000000 00000000 00000000     ................
e000e598:	00000000 00000000 00000000 00000000     ................
e000e5a8:	00000000 00000000 00000000 00000000     ................
e000e5b8:	00000000 00000000 00000000 00000000     ................
e000e5c8:	00000000 00000000 00000000 00000000     ................
e000e5d8:	00000000 00000000 00000000 00000000     ................
e000e5e8:	00000000 00000000 00000000 00000000     ................
e000e5f8:	00000000 00000000 00000000 00000000     ................
e000e608:	00000000 00000000 00000000 00000000     ................
e000e618:	00000000 00000000 00000000 00000000     ................
e000e628:	00000000 00000000 00000000 00000000     ................
e000e638:	00000000 00000000 00000000 00000000     ................
e000e648:	00000000 00000000 00000000 00000000     ................
e000e658:	00000000 00000000 00000000 00000000     ................
e000e668:	00000000 00000000 00000000 00000000     ................
e000e678:	00000000 00000000 00000000 00000000     ................
e000e688:	00000000 00000000 00000000 00000000     ................
e000e698:	00000000 00000000 00000000 00000000     ................
e000e6a8:	00000000 00000000 00000000 00000000     ................
e000e6b8:	00000000 00000000 00000000 00000000     ................
e000e6c8:	00000000 00000000 00000000 00000000     ................
e000e6d8:	00000000 00000000 00000000 00000000     ................
e000e6e8:	00000000 00000000 00000000 00000000     ................
e000e6f8:	00000000 00000000 00000000 00000000     ................
e000e708:	00000000 00000000 00000000 00000000     ................
e000e718:	00000000 00000000 00000000 00000000     ................
e000e728:	00000000 00000000 00000000 00000000     ................
e000e738:	00000000 00000000 00000000 00000000     ................
e000e748:	00000000 00000000 00000000 00000000     ................
e000e758:	00000000 00000000 00000000 00000000     ................
e000e768:	00000000 00000000 00000000 00000000     ................
e000e778:	00000000 00000000 00000000 00000000     ................
e000e788:	00000000 00000000 00000000 00000000     ................
e000e798:	00000000 00000000 00000000 00000000     ................
e000e7a8:	00000000 00000000 00000000 00000000     ................
e000e7b8:	00000000 00000000 00000000 00000000     ................
e000e7c8:	00000000 00000000 00000000 00000000     ................
e000e7d8:	00000000 00000000 00000000 00000000     ................
e000e7e8:	00000000 00000000 00000000 00000000     ................
e000e7f8:	00000000 00000000 00000000 00000000     ................
e000e808:	00000000 00000000 00000000 00000000     ................
e000e818:	00000000 00000000 00000000 00000000     ................
e000e828:	00000000 00000000 00000000 00000000     ................
e000e838:	00000000 00000000 00000000 00000000     ................
e000e848:	00000000 00000000 00000000 00000000     ................
e000e858:	00000000 00000000 00000000 00000000     ................
e000e868:	00000000 00000000 00000000 00000000     ................
e000e878:	00000000 00000000 00000000 00000000     ................
e000e888:	00000000 00000000 00000000 00000000     ................
e000e898:	00000000 00000000 00000000 00000000     ................
e000e8a8:	00000000 00000000 00000000 00000000     ................
e000e8b8:	00000000 00000000 00000000 00000000     ................
e000e8c8:	00000000 00000000 00000000 00000000     ................
e000e8d8:	00000000 00000000 00000000 00000000     ................
e000e8e8:	00000000 00000000 00000000 00000000     ................
e000e8f8:	00000000 00000000 00000000 00000000     ................
e000e908:	00000000 00000000 00000000 00000000     ................
e000e918:	00000000 00000000 00000000 00000000     ................
e000e928:	00000000 00000000 00000000 00000000     ................
e000e938:	00000000 00000000 00000000 00000000     ................
e000e948:	00000000 00000000 00000000 00000000     ................
e000e958:	00000000 00000000 00000000 00000000     ................
e000e968:	00000000 00000000 00000000 00000000     ................
e000e978:	00000000 00000000 00000000 00000000     ................
e000e988:	00000000 00000000 00000000 00000000     ................
e000e998:	00000000 00000000 00000000 00000000     ................
e000e9a8:	00000000 00000000 00000000 00000000     ................
e000e9b8:	00000000 00000000 00000000 00000000     ................
e000e9c8:	00000000 00000000 00000000 00000000     ................
e000e9d8:	00000000 00000000 00000000 00000000     ................
e000e9e8:	00000000 00000000 00000000 00000000     ................
e000e9f8:	00000000 00000000 00000000 00000000     ................
e000ea08:	00000000 00000000 00000000 00000000     ................
e000ea18:	00000000 00000000 00000000 00000000     ................
e000ea28:	00000000 00000000 00000000 00000000     ................
e000ea38:	00000000 00000000 00000000 00000000     ................
e000ea48:	00000000 00000000 00000000 00000000     ................
e000ea58:	00000000 00000000 00000000 00000000     ................
e000ea68:	00000000 00000000 00000000 00000000     ................
e000ea78:	00000000 00000000 00000000 00000000     ................
e000ea88:	00000000 00000000 00000000 00000000     ................
e000ea98:	00000000 00000000 00000000 00000000     ................
e000eaa8:	00000000 00000000 00000000 00000000     ................
e000eab8:	00000000 00000000 00000000 00000000     ................
e000eac8:	00000000 00000000 00000000 00000000     ................
e000ead8:	00000000 00000000 00000000 00000000     ................
e000eae8:	00000000 00000000 00000000 00000000     ................
e000eaf8:	00000000 00000000 00000000 00000000     ................
e000eb08:	00000000 00000000 00000000 00000000     ................
e000eb18:	00000000 00000000 00000000 00000000     ................
e000eb28:	00000000 00000000 00000000 00000000     ................
e000eb38:	00000000 00000000 00000000 00000000     ................
e000eb48:	00000000 00000000 00000000 00000000     ................
e000eb58:	00000000 00000000 00000000 00000000     ................
e000eb68:	00000000 00000000 00000000 00000000     ................
e000eb78:	00000000 00000000 00000000 00000000     ................
e000eb88:	00000000 00000000 00000000 00000000     ................
e000eb98:	00000000 00000000 00000000 00000000     ................
e000eba8:	00000000 00000000 00000000 00000000     ................
e000ebb8:	00000000 00000000 00000000 00000000     ................
e000ebc8:	00000000 00000000 00000000 00000000     ................
e000ebd8:	00000000 00000000 00000000 00000000     ................
e000ebe8:	00000000 00000000 00000000 00000000     ................
e000ebf8:	00000000 00000000 00000000 00000000     ................
e000ec08:	00000000 00000000 00000000 00000000     ................
e000ec18:	00000000 00000000 00000000 00000000     ................
e000ec28:	00000000 00000000 00000000 00000000     ................
e000ec38:	00000000 00000000 00000000 00000000     ................
e000ec48:	00000000 00000000 00000000 00000000     ................
e000ec58:	00000000 00000000 00000000 00000000     ................
e000ec68:	00000000 00000000 00000000 00000000     ................
e000ec78:	00000000 00000000 00000000 00000000     ................
e000ec88:	00000000 00000000 00000000 00000000     ................
e000ec98:	00000000 00000000 00000000 00000000     ................
e000eca8:	00000000 00000000 00000000 00000000     ................
e000ecb8:	00000000 00000000 00000000 00000000     ................
e000ecc8:	00000000 00000000 00000000 00000000     ................
e000ecd8:	00000000 00000000 00000000 00000000     ................
e000ece8:	00000000 00000000 00000000 00000000     ................
e000ecf8:	00000000 00000000 00000000 00000000     ................
e000ed08:	00000000 00000000 00000000 00000000     ................
e000ed18:	00000000 00000000 00000000 00000000     ................
e000ed28:	00000000 00000000 00000000 00000000     ................
e000ed38:	00000000 00000000 00000000 00000000     ................
e000ed48:	00000000 00000000 00000000 00000000     ................
e000ed58:	00000000 00000000 00000000 00000000     ................
e000ed68:	00000000 00000000 00000000 00000000     ................
e000ed78:	00000000 00000000 00000000 00000000     ................
e000ed88:	00000000 00000000 00000000 00000000     ................
e000ed98:	00000000 00000000 00000000 00000000     ................
e000eda8:	00000000 00000000 00000000 00000000     ................
e000edb8:	00000000 00000000 00000000 00000000     ................
e000edc8:	00000000 00000000 00000000 00000000     ................
e000edd8:	00000000 00000000 00000000 00000000     ................
e000ede8:	00000000 00000000 00000000 00000000     ................
e000edf8:	00000000 00000000 00000000 00000000     ................
e000ee08:	00000000 00000000 00000000 00000000     ................
e000ee18:	00000000 00000000 00000000 00000000     ................
e000ee28:	00000000 00000000 00000000 00000000     ................
e000ee38:	00000000 00000000 00000000 00000000     ................
e000ee48:	00000000 00000000 00000000 00000000     ................
e000ee58:	00000000 00000000 00000000 00000000     ................
e000ee68:	00000000 00000000 00000000 00000000     ................
e000ee78:	00000000 00000000 00000000 00000000     ................
e000ee88:	00000000 00000000 00000000 00000000     ................
e000ee98:	00000000 00000000 00000000 00000000     ................
e000eea8:	00000000 00000000 00000000 00000000     ................
e000eeb8:	00000000 00000000 00000000 00000000     ................
e000eec8:	00000000 00000000 00000000 00000000     ................
e000eed8:	00000000 00000000 00000000 00000000     ................
e000eee8:	00000000 00000000 00000000 00000000     ................
e000eef8:	00000000 00000000 00000000 00000000     ................
e000ef08:	00000000 00000000 00000000 00000000     ................
e000ef18:	00000000 00000000 00000000 00000000     ................
e000ef28:	00000000 00000000 00000000 00000000     ................
e000ef38:	00000000 00000000 00000000 00000000     ................
e000ef48:	00000000 00000000 00000000 00000000     ................
e000ef58:	00000000 00000000 00000000 00000000     ................
e000ef68:	00000000 00000000 00000000 00000000     ................
e000ef78:	00000000 00000000 00000000 00000000     ................
e000ef88:	00000000 00000000 00000000 00000000     ................
e000ef98:	00000000 00000000 00000000 00000000     ................
e000efa8:	00000000 00000000 00000000 00000000     ................
e000efb8:	00000000 00000000 00000000 00000000     ................
e000efc8:	00000000 00000000 00000000 00000000     ................
e000efd8:	00000000 00000000 00000000 00000000     ................
e000efe8:	00000000 00000000 00000000 00000000     ................
e000eff8:	00000000 00000000 00000000 00000000     ................
e000f008:	00000000 00000000 00000000 00000000     ................
e000f018:	00000000 00000000 00000000 00000000     ................
e000f028:	00000000 00000000 00000000 00000000     ................
e000f038:	00000000 00000000 00000000 00000000     ................
e000f048:	00000000 00000000 00000000 00000000     ................
e000f058:	00000000 00000000 00000000 00000000     ................
e000f068:	00000000 00000000 00000000 00000000     ................
e000f078:	00000000 00000000 00000000 00000000     ................
e000f088:	00000000 00000000 00000000 00000000     ................
e000f098:	00000000 00000000 00000000 00000000     ................
e000f0a8:	00000000 00000000 00000000 00000000     ................
e000f0b8:	00000000 00000000 00000000 00000000     ................
e000f0c8:	00000000 00000000 00000000 00000000     ................
e000f0d8:	00000000 00000000 00000000 00000000     ................
e000f0e8:	00000000 00000000 00000000 00000000     ................
e000f0f8:	00000000 00000000 00000000 00000000     ................
e000f108:	00000000 00000000 00000000 00000000     ................
e000f118:	00000000 00000000 00000000 00000000     ................
e000f128:	00000000 00000000 00000000 00000000     ................
e000f138:	00000000 00000000 00000000 00000000     ................
e000f148:	00000000 00000000 00000000 00000000     ................
e000f158:	00000000 00000000 00000000 00000000     ................
e000f168:	00000000 00000000 00000000 00000000     ................
e000f178:	00000000 00000000 00000000 00000000     ................
e000f188:	00000000 00000000 00000000 00000000     ................
e000f198:	00000000 00000000 00000000 00000000     ................
e000f1a8:	00000000 00000000 00000000 00000000     ................
e000f1b8:	00000000 00000000 00000000 00000000     ................
e000f1c8:	00000000 00000000 00000000 00000000     ................
e000f1d8:	00000000 00000000 00000000 00000000     ................
e000f1e8:	00000000 00000000 00000000 00000000     ................
e000f1f8:	00000000 00000000 00000000 00000000     ................
e000f208:	00000000 00000000 00000000 00000000     ................
e000f218:	00000000 00000000 00000000 00000000     ................
e000f228:	00000000 00000000 00000000 00000000     ................
e000f238:	00000000 00000000 00000000 00000000     ................
e000f248:	00000000 00000000 00000000 00000000     ................
e000f258:	00000000 00000000 00000000 00000000     ................
e000f268:	00000000 00000000 00000000 00000000     ................
e000f278:	00000000 00000000 00000000 00000000     ................
e000f288:	00000000 00000000 00000000 00000000     ................
e000f298:	00000000 00000000 00000000 00000000     ................
e000f2a8:	00000000 00000000 00000000 00000000     ................
e000f2b8:	00000000 00000000 00000000 00000000     ................
e000f2c8:	00000000 00000000 00000000 00000000     ................
e000f2d8:	00000000 00000000 00000000 00000000     ................
e000f2e8:	00000000 00000000 00000000 00000000     ................
e000f2f8:	00000000 00000000 00000000 00000000     ................
e000f308:	00000000 00000000 00000000 00000000     ................
e000f318:	00000000 00000000 00000000 00000000     ................
e000f328:	00000000 00000000 00000000 00000000     ................
e000f338:	00000000 00000000 00000000 00000000     ................
e000f348:	00000000 00000000 00000000 00000000     ................
e000f358:	00000000 00000000 00000000 00000000     ................
e000f368:	00000000 00000000 00000000 00000000     ................
e000f378:	00000000 00000000 00000000 00000000     ................
e000f388:	00000000 00000000 00000000 00000000     ................
e000f398:	00000000 00000000 00000000 00000000     ................
e000f3a8:	00000000 00000000 00000000 00000000     ................
e000f3b8:	00000000 00000000 00000000 00000000     ................
e000f3c8:	00000000 00000000 00000000 00000000     ................
e000f3d8:	00000000 00000000 00000000 00000000     ................
e000f3e8:	00000000 00000000 00000000 00000000     ................
e000f3f8:	00000000 00000000 00000000 00000000     ................
e000f408:	00000000 00000000 00000000 00000000     ................
e000f418:	00000000 00000000 00000000 00000000     ................
e000f428:	00000000 00000000 00000000 00000000     ................
e000f438:	00000000 00000000 00000000 00000000     ................
e000f448:	00000000 00000000 00000000 00000000     ................
e000f458:	00000000 00000000 00000000 00000000     ................
e000f468:	00000000 00000000 00000000 00000000     ................
e000f478:	00000000 00000000 00000000 00000000     ................
e000f488:	00000000 00000000 00000000 00000000     ................
e000f498:	00000000 00000000 00000000 00000000     ................
e000f4a8:	00000000 00000000 00000000 00000000     ................
e000f4b8:	00000000 00000000 00000000 00000000     ................
e000f4c8:	00000000 00000000 00000000 00000000     ................
e000f4d8:	00000000 00000000 00000000 00000000     ................
e000f4e8:	00000000 00000000 00000000 00000000     ................
e000f4f8:	00000000 00000000 00000000 00000000     ................
e000f508:	00000000 00000000 00000000 00000000     ................
e000f518:	00000000 00000000 00000000 00000000     ................
e000f528:	00000000 00000000 00000000 00000000     ................
e000f538:	00000000 00000000 00000000 00000000     ................
e000f548:	00000000 00000000 00000000 00000000     ................
e000f558:	00000000 00000000 00000000 00000000     ................
e000f568:	00000000 00000000 00000000 00000000     ................
e000f578:	00000000 00000000 00000000 00000000     ................
e000f588:	00000000 00000000 00000000 00000000     ................
e000f598:	00000000 00000000 00000000 00000000     ................
e000f5a8:	00000000 00000000 00000000 00000000     ................
e000f5b8:	00000000 00000000 00000000 00000000     ................
e000f5c8:	00000000 00000000 00000000 00000000     ................
e000f5d8:	00000000 00000000 00000000 00000000     ................
e000f5e8:	00000000 00000000 00000000 00000000     ................
e000f5f8:	00000000 00000000 00000000 00000000     ................
e000f608:	00000000 00000000 00000000 00000000     ................
e000f618:	00000000 00000000 00000000 00000000     ................
e000f628:	00000000 00000000 00000000 00000000     ................
e000f638:	00000000 00000000 00000000 00000000     ................
e000f648:	00000000 00000000 00000000 00000000     ................
e000f658:	00000000 00000000 00000000 00000000     ................
e000f668:	00000000 00000000 00000000 00000000     ................
e000f678:	00000000 00000000 00000000 00000000     ................
e000f688:	00000000 00000000 00000000 00000000     ................
e000f698:	00000000 00000000 00000000 00000000     ................
e000f6a8:	00000000 00000000 00000000 00000000     ................
e000f6b8:	00000000 00000000 00000000 00000000     ................
e000f6c8:	00000000 00000000 00000000 00000000     ................
e000f6d8:	00000000 00000000 00000000 00000000     ................
e000f6e8:	00000000 00000000 00000000 00000000     ................
e000f6f8:	00000000 00000000 00000000 00000000     ................
e000f708:	00000000 00000000 00000000 00000000     ................
e000f718:	00000000 00000000 00000000 00000000     ................
e000f728:	00000000 00000000 00000000 00000000     ................
e000f738:	00000000 00000000 00000000 00000000     ................
e000f748:	00000000 00000000 00000000 00000000     ................
e000f758:	00000000 00000000 00000000 00000000     ................
e000f768:	00000000 00000000 00000000 00000000     ................
e000f778:	00000000 00000000 00000000 00000000     ................
e000f788:	00000000 00000000 00000000 00000000     ................
e000f798:	00000000 00000000 00000000 00000000     ................
e000f7a8:	00000000 00000000 00000000 00000000     ................
e000f7b8:	00000000 00000000 00000000 00000000     ................
e000f7c8:	00000000 00000000 00000000 00000000     ................
e000f7d8:	00000000 00000000 00000000 00000000     ................
e000f7e8:	00000000 00000000 00000000 00000000     ................
e000f7f8:	00000000 00000000 00000000 00000000     ................
e000f808:	00000000 00000000 00000000 00000000     ................
e000f818:	00000000 00000000 00000000 00000000     ................
e000f828:	00000000 00000000 00000000 00000000     ................
e000f838:	00000000 00000000 00000000 00000000     ................
e000f848:	00000000 00000000 00000000 00000000     ................
e000f858:	00000000 00000000 00000000 00000000     ................
e000f868:	00000000 00000000 00000000 00000000     ................
e000f878:	00000000 00000000 00000000 00000000     ................
e000f888:	00000000 00000000 00000000 00000000     ................
e000f898:	00000000 00000000 00000000 00000000     ................
e000f8a8:	00000000 00000000 00000000 00000000     ................
e000f8b8:	00000000 00000000 00000000 00000000     ................
e000f8c8:	00000000 00000000 00000000 00000000     ................
e000f8d8:	00000000 00000000 00000000 00000000     ................
e000f8e8:	00000000 00000000 00000000 00000000     ................
e000f8f8:	00000000 00000000 00000000 00000000     ................
e000f908:	00000000 00000000 00000000 00000000     ................
e000f918:	00000000 00000000 00000000 00000000     ................
e000f928:	00000000 00000000 00000000 00000000     ................
e000f938:	00000000 00000000 00000000 00000000     ................
e000f948:	00000000 00000000 00000000 00000000     ................
e000f958:	00000000 00000000 00000000 00000000     ................
e000f968:	00000000 00000000 00000000 00000000     ................
e000f978:	00000000 00000000 00000000 00000000     ................
e000f988:	00000000 00000000 00000000 00000000     ................
e000f998:	00000000 00000000 00000000 00000000     ................
e000f9a8:	00000000 00000000 00000000 00000000     ................
e000f9b8:	00000000 00000000 00000000 00000000     ................
e000f9c8:	00000000 00000000 00000000 00000000     ................
e000f9d8:	00000000 00000000 00000000 00000000     ................
e000f9e8:	00000000 00000000 00000000 00000000     ................
e000f9f8:	00000000 00000000 00000000 00000000     ................
e000fa08:	00000000 00000000 00000000 00000000     ................
e000fa18:	00000000 00000000 00000000 00000000     ................
e000fa28:	00000000 00000000 00000000 00000000     ................
e000fa38:	00000000 00000000 00000000 00000000     ................
e000fa48:	00000000 00000000 00000000 00000000     ................
e000fa58:	00000000 00000000 00000000 00000000     ................
e000fa68:	00000000 00000000 00000000 00000000     ................
e000fa78:	00000000 00000000 00000000 00000000     ................
e000fa88:	00000000 00000000 00000000 00000000     ................
e000fa98:	00000000 00000000 00000000 00000000     ................
e000faa8:	00000000 00000000 00000000 00000000     ................
e000fab8:	00000000 00000000 00000000 00000000     ................
e000fac8:	00000000 00000000 00000000 00000000     ................
e000fad8:	00000000 00000000 00000000 00000000     ................
e000fae8:	00000000 00000000 00000000 00000000     ................
e000faf8:	00000000 00000000 00000000 00000000     ................
e000fb08:	00000000 00000000 00000000 00000000     ................
e000fb18:	00000000 00000000 00000000 00000000     ................
e000fb28:	00000000 00000000 00000000 00000000     ................
e000fb38:	00000000 00000000 00000000 00000000     ................
e000fb48:	00000000 00000000 00000000 00000000     ................
e000fb58:	00000000 00000000 00000000 00000000     ................
e000fb68:	00000000 00000000 00000000 00000000     ................
e000fb78:	00000000 00000000 00000000 00000000     ................
e000fb88:	00000000 00000000 00000000 00000000     ................
e000fb98:	00000000 00000000 00000000 00000000     ................
e000fba8:	00000000 00000000 00000000 00000000     ................
e000fbb8:	00000000 00000000 00000000 00000000     ................
e000fbc8:	00000000 00000000 00000000 00000000     ................
e000fbd8:	00000000 00000000 00000000 00000000     ................
e000fbe8:	00000000 00000000 00000000 00000000     ................
e000fbf8:	00000000 00000000 00000000 00000000     ................
e000fc08:	00000000 00000000 00000000 00000000     ................
e000fc18:	00000000 00000000 00000000 00000000     ................
e000fc28:	00000000 00000000 00000000 00000000     ................
e000fc38:	00000000 00000000 00000000 00000000     ................
e000fc48:	00000000 00000000 00000000 00000000     ................
e000fc58:	00000000 00000000 00000000 00000000     ................
e000fc68:	00000000 00000000 00000000 00000000     ................
e000fc78:	00000000 00000000 00000000 00000000     ................
e000fc88:	00000000 00000000 00000000 00000000     ................
e000fc98:	00000000 00000000 00000000 00000000     ................
e000fca8:	00000000 00000000 00000000 00000000     ................
e000fcb8:	00000000 00000000 00000000 00000000     ................
e000fcc8:	00000000 00000000 00000000 00000000     ................
e000fcd8:	00000000 00000000 00000000 00000000     ................
e000fce8:	00000000 00000000 00000000 00000000     ................
e000fcf8:	00000000 00000000 00000000 00000000     ................
e000fd08:	00000000 00000000 00000000 00000000     ................
e000fd18:	00000000 00000000 00000000 00000000     ................
e000fd28:	00000000 00000000 00000000 00000000     ................
e000fd38:	00000000 00000000 00000000 00000000     ................
e000fd48:	00000000 00000000 00000000 00000000     ................
e000fd58:	00000000 00000000 00000000 00000000     ................
e000fd68:	00000000 00000000 00000000 00000000     ................
e000fd78:	00000000 00000000 00000000 00000000     ................
e000fd88:	00000000 00000000 00000000 00000000     ................
e000fd98:	00000000 00000000 00000000 00000000     ................
e000fda8:	00000000 00000000 00000000 00000000     ................
e000fdb8:	00000000 00000000 00000000 00000000     ................
e000fdc8:	00000000 00000000 00000000 00000000     ................
e000fdd8:	00000000 00000000 00000000 00000000     ................
e000fde8:	00000000 00000000 00000000 00000000     ................
e000fdf8:	00000000 00000000 00000000 00000000     ................
e000fe08:	00000000 00000000 00000000 00000000     ................
e000fe18:	00000000 00000000 00000000 00000000     ................
e000fe28:	00000000 00000000 00000000 00000000     ................
e000fe38:	00000000 00000000 00000000 00000000     ................
e000fe48:	00000000 00000000 00000000 00000000     ................
e000fe58:	00000000 00000000 00000000 00000000     ................
e000fe68:	00000000 00000000 00000000 00000000     ................
e000fe78:	00000000 00000000 00000000 00000000     ................
e000fe88:	00000000 00000000 00000000 00000000     ................
e000fe98:	00000000 00000000 00000000 00000000     ................
e000fea8:	00000000 00000000 00000000 00000000     ................
e000feb8:	00000000 00000000 00000000 00000000     ................
e000fec8:	00000000 00000000 00000000 00000000     ................
e000fed8:	00000000 00000000 00000000 00000000     ................
e000fee8:	00000000 00000000 00000000 00000000     ................
e000fef8:	00000000 00000000 00000000 00000000     ................
e000ff08:	00000000 00000000 00000000 00000000     ................
e000ff18:	00000000 00000000 00000000 00000000     ................
e000ff28:	00000000 00000000 00000000 00000000     ................
e000ff38:	00000000 00000000 00000000 00000000     ................
e000ff48:	00000000 00000000 00000000 00000000     ................
e000ff58:	00000000 00000000 00000000 00000000     ................
e000ff68:	00000000 00000000 00000000 00000000     ................
e000ff78:	00000000 00000000 00000000 00000000     ................
e000ff88:	00000000 00000000 00000000 00000000     ................
e000ff98:	00000000 00000000 00000000 00000000     ................
e000ffa8:	00000000 00000000 00000000 00000000     ................
e000ffb8:	00000000 00000000 00000000 00000000     ................
e000ffc8:	00000000 00000000 00000000 00000000     ................
e000ffd8:	00000000 00000000 00000000 00000000     ................
e000ffe8:	00000000 00000000 00000000 00000000     ................
e000fff8:	00000000 00000000                       ........

Disassembly of section .text:

e0010000 <arm_vector_table>:
e0010000:	e59ff018 	ldr	pc, [pc, #24]	; e0010020 <ki_boot_end+0x20>
e0010004:	e59ff018 	ldr	pc, [pc, #24]	; e0010024 <ki_boot_end+0x24>
e0010008:	e59ff018 	ldr	pc, [pc, #24]	; e0010028 <ki_boot_end+0x28>
e001000c:	e59ff018 	ldr	pc, [pc, #24]	; e001002c <ki_boot_end+0x2c>
e0010010:	e59ff018 	ldr	pc, [pc, #24]	; e0010030 <ki_boot_end+0x30>
e0010014:	e59ff004 	ldr	pc, [pc, #4]	; e0010020 <ki_boot_end+0x20>
e0010018:	e59ff014 	ldr	pc, [pc, #20]	; e0010034 <ki_boot_end+0x34>
e001001c:	e59ff014 	ldr	pc, [pc, #20]	; e0010038 <ki_boot_end+0x38>
e0010020:	e00106c8 	.word	0xe00106c8
e0010024:	e0010604 	.word	0xe0010604
e0010028:	e0010624 	.word	0xe0010624
e001002c:	e0010640 	.word	0xe0010640
e0010030:	e0010670 	.word	0xe0010670
e0010034:	e00106a4 	.word	0xe00106a4
e0010038:	e00106cc 	.word	0xe00106cc

e001003c <fastpath_call>:
e001003c:	e92d4080 	push	{r7, lr}
e0010040:	e24dd008 	sub	sp, sp, #8
e0010044:	e3013b34 	movw	r3, #6964	; 0x1b34
e0010048:	e34e3003 	movt	r3, #57347	; 0xe003
e001004c:	e5935000 	ldr	r5, [r3]
e0010050:	e5953060 	ldr	r3, [r5, #96]	; 0x60
e0010054:	e7e82051 	ubfx	r2, r1, #0, #9
e0010058:	e2822003 	add	r2, r2, #3
e001005c:	e3d22007 	bics	r2, r2, #7
e0010060:	1a00004b 	bne	e0010194 <fastpath_call+0x158>
e0010064:	e2033007 	and	r3, r3, #7
e0010068:	e3530000 	cmp	r3, #0
e001006c:	1a000048 	bne	e0010194 <fastpath_call+0x158>
e0010070:	e3c52f7f 	bic	r2, r5, #508	; 0x1fc
e0010074:	e3c22003 	bic	r2, r2, #3
e0010078:	e592e000 	ldr	lr, [r2]
e001007c:	e592c004 	ldr	ip, [r2, #4]
e0010080:	e20e200f 	and	r2, lr, #15
e0010084:	e352000a 	cmp	r2, #10
e0010088:	1a000047 	bne	e00101ac <fastpath_call+0x170>
e001008c:	e7e44bdc 	ubfx	r4, ip, #23, #5
e0010090:	e7e4695c 	ubfx	r6, ip, #18, #5
e0010094:	e1a02310 	lsl	r2, r0, r3
e0010098:	e7f1c05c 	ubfx	ip, ip, #0, #18
e001009c:	e3540000 	cmp	r4, #0
e00100a0:	0a000002 	beq	e00100b0 <fastpath_call+0x74>
e00100a4:	e2647020 	rsb	r7, r4, #32
e00100a8:	e15c0732 	cmp	ip, r2, lsr r7
e00100ac:	1a00003e 	bne	e00101ac <fastpath_call+0x170>
e00100b0:	e1a02412 	lsl	r2, r2, r4
e00100b4:	e266c020 	rsb	ip, r6, #32
e00100b8:	e1a02c32 	lsr	r2, r2, ip
e00100bc:	e3cee01f 	bic	lr, lr, #31
e00100c0:	e08ec202 	add	ip, lr, r2, lsl #4
e00100c4:	e79ee202 	ldr	lr, [lr, r2, lsl #4]
e00100c8:	e59cc004 	ldr	ip, [ip, #4]
e00100cc:	e0864004 	add	r4, r6, r4
e00100d0:	e0833004 	add	r3, r3, r4
e00100d4:	e353001f 	cmp	r3, #31
e00100d8:	9a00002f 	bls	e001019c <fastpath_call+0x160>
e00100dc:	e3530020 	cmp	r3, #32
e00100e0:	8a000031 	bhi	e00101ac <fastpath_call+0x170>
e00100e4:	e20e300f 	and	r3, lr, #15
e00100e8:	e3530004 	cmp	r3, #4
e00100ec:	1a00002e 	bne	e00101ac <fastpath_call+0x170>
e00100f0:	e31c0001 	tst	ip, #1
e00100f4:	0a00002c 	beq	e00101ac <fastpath_call+0x170>
e00100f8:	e3cc400f 	bic	r4, ip, #15
e00100fc:	e5943004 	ldr	r3, [r4, #4]
e0010100:	e3c3200f 	bic	r2, r3, #15
e0010104:	e5940000 	ldr	r0, [r4]
e0010108:	e2000003 	and	r0, r0, #3
e001010c:	e3500002 	cmp	r0, #2
e0010110:	1a000027 	bne	e00101b4 <fastpath_call+0x178>
e0010114:	e3c33f7f 	bic	r3, r3, #508	; 0x1fc
e0010118:	e3c33003 	bic	r3, r3, #3
e001011c:	e5937010 	ldr	r7, [r3, #16]
e0010120:	e207001f 	and	r0, r7, #31
e0010124:	e3500019 	cmp	r0, #25
e0010128:	1a000023 	bne	e00101bc <fastpath_call+0x180>
e001012c:	e30104e4 	movw	r0, #5348	; 0x14e4
e0010130:	e34e0003 	movt	r0, #57347	; 0xe003
e0010134:	e5906000 	ldr	r6, [r0]
e0010138:	e5928078 	ldr	r8, [r2, #120]	; 0x78
e001013c:	e5950078 	ldr	r0, [r5, #120]	; 0x78
e0010140:	e1580000 	cmp	r8, r0
e0010144:	2a00001e 	bcs	e00101c4 <fastpath_call+0x188>
e0010148:	e30106f0 	movw	r0, #5872	; 0x16f0
e001014c:	e34e0003 	movt	r0, #57347	; 0xe003
e0010150:	e7900106 	ldr	r0, [r0, r6, lsl #2]
e0010154:	e3500000 	cmp	r0, #0
e0010158:	0a000019 	beq	e00101c4 <fastpath_call+0x188>
e001015c:	e16f0f10 	clz	r0, r0
e0010160:	e260501f 	rsb	r5, r0, #31
e0010164:	e30104ec 	movw	r0, #5356	; 0x14ec
e0010168:	e34e0003 	movt	r0, #57347	; 0xe003
e001016c:	e2659007 	rsb	r9, r5, #7
e0010170:	e0899186 	add	r9, r9, r6, lsl #3
e0010174:	e7900109 	ldr	r0, [r0, r9, lsl #2]
e0010178:	e16f0f10 	clz	r0, r0
e001017c:	e260001f 	rsb	r0, r0, #31
e0010180:	e1800285 	orr	r0, r0, r5, lsl #5
e0010184:	e1580000 	cmp	r8, r0
e0010188:	2a00000d 	bcs	e00101c4 <fastpath_call+0x188>
e001018c:	e3e00000 	mvn	r0, #0
e0010190:	eb002d02 	bl	e001b5a0 <slowpath>
e0010194:	e3e00000 	mvn	r0, #0
e0010198:	eb002d00 	bl	e001b5a0 <slowpath>
e001019c:	e20e200f 	and	r2, lr, #15
e00101a0:	e352000a 	cmp	r2, #10
e00101a4:	1affffcc 	bne	e00100dc <fastpath_call+0xa0>
e00101a8:	eaffffb7 	b	e001008c <fastpath_call+0x50>
e00101ac:	e3e00000 	mvn	r0, #0
e00101b0:	eb002cfa 	bl	e001b5a0 <slowpath>
e00101b4:	e3e00000 	mvn	r0, #0
e00101b8:	eb002cf8 	bl	e001b5a0 <slowpath>
e00101bc:	e3e00000 	mvn	r0, #0
e00101c0:	eb002cf6 	bl	e001b5a0 <slowpath>
e00101c4:	e1a001ac 	lsr	r0, ip, #3
e00101c8:	e180c12c 	orr	ip, r0, ip, lsr #2
e00101cc:	e31c0001 	tst	ip, #1
e00101d0:	0a000043 	beq	e00102e4 <fastpath_call+0x2a8>
e00101d4:	e3c7cdff 	bic	ip, r7, #16320	; 0x3fc0
e00101d8:	e3ccc03f 	bic	ip, ip, #63	; 0x3f
e00101dc:	e28c0a03 	add	r0, ip, #12288	; 0x3000
e00101e0:	e5907fc0 	ldr	r7, [r0, #4032]	; 0xfc0
e00101e4:	e3170502 	tst	r7, #8388608	; 0x800000
e00101e8:	0a00003f 	beq	e00102ec <fastpath_call+0x2b0>
e00101ec:	e5920070 	ldr	r0, [r2, #112]	; 0x70
e00101f0:	e1500006 	cmp	r0, r6
e00101f4:	1a00003e 	bne	e00102f4 <fastpath_call+0x2b8>
e00101f8:	e5920090 	ldr	r0, [r2, #144]	; 0x90
e00101fc:	e5840004 	str	r0, [r4, #4]
e0010200:	e5920090 	ldr	r0, [r2, #144]	; 0x90
e0010204:	e3500000 	cmp	r0, #0
e0010208:	13a04000 	movne	r4, #0
e001020c:	15804094 	strne	r4, [r0, #148]	; 0x94
e0010210:	03a00000 	moveq	r0, #0
e0010214:	05840000 	streq	r0, [r4]
e0010218:	e1a0022e 	lsr	r0, lr, #4
e001021c:	e3016b34 	movw	r6, #6964	; 0x1b34
e0010220:	e34e6003 	movt	r6, #57347	; 0xe003
e0010224:	e5965000 	ldr	r5, [r6]
e0010228:	e3a0e005 	mov	lr, #5
e001022c:	e585e050 	str	lr, [r5, #80]	; 0x50
e0010230:	e3c54f7f 	bic	r4, r5, #508	; 0x1fc
e0010234:	e3c44003 	bic	r4, r4, #3
e0010238:	e2844020 	add	r4, r4, #32
e001023c:	e2838030 	add	r8, r3, #48	; 0x30
e0010240:	e592e058 	ldr	lr, [r2, #88]	; 0x58
e0010244:	e1a0e10e 	lsl	lr, lr, #2
e0010248:	e20ee020 	and	lr, lr, #32
e001024c:	e3855008 	orr	r5, r5, #8
e0010250:	e18ee005 	orr	lr, lr, r5
e0010254:	e583e030 	str	lr, [r3, #48]	; 0x30
e0010258:	e5834038 	str	r4, [r3, #56]	; 0x38
e001025c:	e3888003 	orr	r8, r8, #3
e0010260:	e584800c 	str	r8, [r4, #12]
e0010264:	e5963000 	ldr	r3, [r6]
e0010268:	e211607f 	ands	r6, r1, #127	; 0x7f
e001026c:	0a000006 	beq	e001028c <fastpath_call+0x250>
e0010270:	e2833004 	add	r3, r3, #4
e0010274:	e2824004 	add	r4, r2, #4
e0010278:	e0836106 	add	r6, r3, r6, lsl #2
e001027c:	e5b35004 	ldr	r5, [r3, #4]!
e0010280:	e5a45004 	str	r5, [r4, #4]!
e0010284:	e1560003 	cmp	r6, r3
e0010288:	1afffffb 	bne	e001027c <fastpath_call+0x240>
e001028c:	e3a03001 	mov	r3, #1
e0010290:	e5823050 	str	r3, [r2, #80]	; 0x50
e0010294:	f57ff04f 	dsb	sy
e0010298:	e59f305c 	ldr	r3, [pc, #92]	; e00102fc <fastpath_call+0x2c0>
e001029c:	e3833018 	orr	r3, r3, #24
e00102a0:	ee023f10 	mcr	15, 0, r3, cr2, cr0, {0}
e00102a4:	f57ff06f 	isb	sy
e00102a8:	e1a07c27 	lsr	r7, r7, #24
e00102ac:	ee0d7f30 	mcr	15, 0, r7, cr13, cr0, {1}
e00102b0:	f57ff06f 	isb	sy
e00102b4:	e28cc203 	add	ip, ip, #805306368	; 0x30000000
e00102b8:	e38cc018 	orr	ip, ip, #24
e00102bc:	ee02cf10 	mcr	15, 0, ip, cr2, cr0, {0}
e00102c0:	f57ff06f 	isb	sy
e00102c4:	e3013b34 	movw	r3, #6964	; 0x1b34
e00102c8:	e34e3003 	movt	r3, #57347	; 0xe003
e00102cc:	e5832000 	str	r2, [r3]
e00102d0:	e3a03000 	mov	r3, #0
e00102d4:	e28dc004 	add	ip, sp, #4
e00102d8:	e18c3f9c 	strex	r3, ip, [ip]
e00102dc:	e3c11c0e 	bic	r1, r1, #3584	; 0xe00
e00102e0:	eb00014c 	bl	e0010818 <fastpath_restore>
e00102e4:	e3e00000 	mvn	r0, #0
e00102e8:	eb002cac 	bl	e001b5a0 <slowpath>
e00102ec:	e3e00000 	mvn	r0, #0
e00102f0:	eb002caa 	bl	e001b5a0 <slowpath>
e00102f4:	e3e00000 	mvn	r0, #0
e00102f8:	eb002ca8 	bl	e001b5a0 <slowpath>
e00102fc:	10024000 	.word	0x10024000

e0010300 <fastpath_reply_recv>:
e0010300:	e92d4080 	push	{r7, lr}
e0010304:	e24dd008 	sub	sp, sp, #8
e0010308:	e3013b34 	movw	r3, #6964	; 0x1b34
e001030c:	e34e3003 	movt	r3, #57347	; 0xe003
e0010310:	e5934000 	ldr	r4, [r3]
e0010314:	e5942060 	ldr	r2, [r4, #96]	; 0x60
e0010318:	e7e83051 	ubfx	r3, r1, #0, #9
e001031c:	e2833003 	add	r3, r3, #3
e0010320:	e3d33007 	bics	r3, r3, #7
e0010324:	1a00009d 	bne	e00105a0 <fastpath_reply_recv+0x2a0>
e0010328:	e2022007 	and	r2, r2, #7
e001032c:	e3520000 	cmp	r2, #0
e0010330:	1a00009a 	bne	e00105a0 <fastpath_reply_recv+0x2a0>
e0010334:	e3c45f7f 	bic	r5, r4, #508	; 0x1fc
e0010338:	e3c55003 	bic	r5, r5, #3
e001033c:	e595c000 	ldr	ip, [r5]
e0010340:	e5953004 	ldr	r3, [r5, #4]
e0010344:	e20ce00f 	and	lr, ip, #15
e0010348:	e35e000a 	cmp	lr, #10
e001034c:	1a000099 	bne	e00105b8 <fastpath_reply_recv+0x2b8>
e0010350:	e7e46bd3 	ubfx	r6, r3, #23, #5
e0010354:	e7e47953 	ubfx	r7, r3, #18, #5
e0010358:	e1a0e210 	lsl	lr, r0, r2
e001035c:	e7f13053 	ubfx	r3, r3, #0, #18
e0010360:	e3560000 	cmp	r6, #0
e0010364:	0a000002 	beq	e0010374 <fastpath_reply_recv+0x74>
e0010368:	e2668020 	rsb	r8, r6, #32
e001036c:	e153083e 	cmp	r3, lr, lsr r8
e0010370:	1a000090 	bne	e00105b8 <fastpath_reply_recv+0x2b8>
e0010374:	e1a0e61e 	lsl	lr, lr, r6
e0010378:	e2673020 	rsb	r3, r7, #32
e001037c:	e1a0e33e 	lsr	lr, lr, r3
e0010380:	e3ccc01f 	bic	ip, ip, #31
e0010384:	e08c320e 	add	r3, ip, lr, lsl #4
e0010388:	e79cc20e 	ldr	ip, [ip, lr, lsl #4]
e001038c:	e5933004 	ldr	r3, [r3, #4]
e0010390:	e0876006 	add	r6, r7, r6
e0010394:	e0822006 	add	r2, r2, r6
e0010398:	e352001f 	cmp	r2, #31
e001039c:	9a000081 	bls	e00105a8 <fastpath_reply_recv+0x2a8>
e00103a0:	e3520020 	cmp	r2, #32
e00103a4:	8a000083 	bhi	e00105b8 <fastpath_reply_recv+0x2b8>
e00103a8:	e20cc00f 	and	ip, ip, #15
e00103ac:	e35c0004 	cmp	ip, #4
e00103b0:	1a000080 	bne	e00105b8 <fastpath_reply_recv+0x2b8>
e00103b4:	e3130002 	tst	r3, #2
e00103b8:	0a00007e 	beq	e00105b8 <fastpath_reply_recv+0x2b8>
e00103bc:	e594205c 	ldr	r2, [r4, #92]	; 0x5c
e00103c0:	e3520000 	cmp	r2, #0
e00103c4:	0a000003 	beq	e00103d8 <fastpath_reply_recv+0xd8>
e00103c8:	e5922000 	ldr	r2, [r2]
e00103cc:	e2022003 	and	r2, r2, #3
e00103d0:	e3520002 	cmp	r2, #2
e00103d4:	0a000079 	beq	e00105c0 <fastpath_reply_recv+0x2c0>
e00103d8:	e3c3c00f 	bic	ip, r3, #15
e00103dc:	e59c2000 	ldr	r2, [ip]
e00103e0:	e2022003 	and	r2, r2, #3
e00103e4:	e3520001 	cmp	r2, #1
e00103e8:	0a000076 	beq	e00105c8 <fastpath_reply_recv+0x2c8>
e00103ec:	e2856030 	add	r6, r5, #48	; 0x30
e00103f0:	e5950030 	ldr	r0, [r5, #48]	; 0x30
e00103f4:	e200201f 	and	r2, r0, #31
e00103f8:	e3520008 	cmp	r2, #8
e00103fc:	1a000073 	bne	e00105d0 <fastpath_reply_recv+0x2d0>
e0010400:	e3c0203f 	bic	r2, r0, #63	; 0x3f
e0010404:	e592e060 	ldr	lr, [r2, #96]	; 0x60
e0010408:	e31e0007 	tst	lr, #7
e001040c:	1a000071 	bne	e00105d8 <fastpath_reply_recv+0x2d8>
e0010410:	e3c00f7f 	bic	r0, r0, #508	; 0x1fc
e0010414:	e3c00003 	bic	r0, r0, #3
e0010418:	e590e010 	ldr	lr, [r0, #16]
e001041c:	e3ce0dff 	bic	r0, lr, #16320	; 0x3fc0
e0010420:	e3c0003f 	bic	r0, r0, #63	; 0x3f
e0010424:	e20ee01f 	and	lr, lr, #31
e0010428:	e35e0019 	cmp	lr, #25
e001042c:	1a00006b 	bne	e00105e0 <fastpath_reply_recv+0x2e0>
e0010430:	e280ea03 	add	lr, r0, #12288	; 0x3000
e0010434:	e59eefc0 	ldr	lr, [lr, #4032]	; 0xfc0
e0010438:	e30174e4 	movw	r7, #5348	; 0x14e4
e001043c:	e34e7003 	movt	r7, #57347	; 0xe003
e0010440:	e5978000 	ldr	r8, [r7]
e0010444:	e30176f0 	movw	r7, #5872	; 0x16f0
e0010448:	e34e7003 	movt	r7, #57347	; 0xe003
e001044c:	e7977108 	ldr	r7, [r7, r8, lsl #2]
e0010450:	e3570000 	cmp	r7, #0
e0010454:	0a00000c 	beq	e001048c <fastpath_reply_recv+0x18c>
e0010458:	e16f7f17 	clz	r7, r7
e001045c:	e267901f 	rsb	r9, r7, #31
e0010460:	e30174ec 	movw	r7, #5356	; 0x14ec
e0010464:	e34e7003 	movt	r7, #57347	; 0xe003
e0010468:	e269a007 	rsb	sl, r9, #7
e001046c:	e08aa188 	add	sl, sl, r8, lsl #3
e0010470:	e797710a 	ldr	r7, [r7, sl, lsl #2]
e0010474:	e16f7f17 	clz	r7, r7
e0010478:	e267701f 	rsb	r7, r7, #31
e001047c:	e1877289 	orr	r7, r7, r9, lsl #5
e0010480:	e5929078 	ldr	r9, [r2, #120]	; 0x78
e0010484:	e1590007 	cmp	r9, r7
e0010488:	3a000056 	bcc	e00105e8 <fastpath_reply_recv+0x2e8>
e001048c:	e31e0502 	tst	lr, #8388608	; 0x800000
e0010490:	0a000056 	beq	e00105f0 <fastpath_reply_recv+0x2f0>
e0010494:	e5927070 	ldr	r7, [r2, #112]	; 0x70
e0010498:	e1570008 	cmp	r7, r8
e001049c:	1a000055 	bne	e00105f8 <fastpath_reply_recv+0x2f8>
e00104a0:	e38c7003 	orr	r7, ip, #3
e00104a4:	e5847050 	str	r7, [r4, #80]	; 0x50
e00104a8:	e1a03083 	lsl	r3, r3, #1
e00104ac:	e2033008 	and	r3, r3, #8
e00104b0:	e5947058 	ldr	r7, [r4, #88]	; 0x58
e00104b4:	e3c77008 	bic	r7, r7, #8
e00104b8:	e1833007 	orr	r3, r3, r7
e00104bc:	e5843058 	str	r3, [r4, #88]	; 0x58
e00104c0:	e59c3000 	ldr	r3, [ip]
e00104c4:	e3d3300f 	bics	r3, r3, #15
e00104c8:	03a03000 	moveq	r3, #0
e00104cc:	05843094 	streq	r3, [r4, #148]	; 0x94
e00104d0:	05843090 	streq	r3, [r4, #144]	; 0x90
e00104d4:	058c4004 	streq	r4, [ip, #4]
e00104d8:	15834090 	strne	r4, [r3, #144]	; 0x90
e00104dc:	15843094 	strne	r3, [r4, #148]	; 0x94
e00104e0:	13a03000 	movne	r3, #0
e00104e4:	15843090 	strne	r3, [r4, #144]	; 0x90
e00104e8:	e3843002 	orr	r3, r4, #2
e00104ec:	e58c3000 	str	r3, [ip]
e00104f0:	e5963008 	ldr	r3, [r6, #8]
e00104f4:	e3c33007 	bic	r3, r3, #7
e00104f8:	e3a0c003 	mov	ip, #3
e00104fc:	e583c00c 	str	ip, [r3, #12]
e0010500:	e3a03000 	mov	r3, #0
e0010504:	e5853030 	str	r3, [r5, #48]	; 0x30
e0010508:	e5863004 	str	r3, [r6, #4]
e001050c:	e5863008 	str	r3, [r6, #8]
e0010510:	e586300c 	str	r3, [r6, #12]
e0010514:	e3013b34 	movw	r3, #6964	; 0x1b34
e0010518:	e34e3003 	movt	r3, #57347	; 0xe003
e001051c:	e5933000 	ldr	r3, [r3]
e0010520:	e211507f 	ands	r5, r1, #127	; 0x7f
e0010524:	0a000006 	beq	e0010544 <fastpath_reply_recv+0x244>
e0010528:	e2833004 	add	r3, r3, #4
e001052c:	e282c004 	add	ip, r2, #4
e0010530:	e0835105 	add	r5, r3, r5, lsl #2
e0010534:	e5b34004 	ldr	r4, [r3, #4]!
e0010538:	e5ac4004 	str	r4, [ip, #4]!
e001053c:	e1530005 	cmp	r3, r5
e0010540:	1afffffb 	bne	e0010534 <fastpath_reply_recv+0x234>
e0010544:	e3a03001 	mov	r3, #1
e0010548:	e5823050 	str	r3, [r2, #80]	; 0x50
e001054c:	f57ff04f 	dsb	sy
e0010550:	e59f30a8 	ldr	r3, [pc, #168]	; e0010600 <fastpath_reply_recv+0x300>
e0010554:	e3833018 	orr	r3, r3, #24
e0010558:	ee023f10 	mcr	15, 0, r3, cr2, cr0, {0}
e001055c:	f57ff06f 	isb	sy
e0010560:	e1a0ec2e 	lsr	lr, lr, #24
e0010564:	ee0def30 	mcr	15, 0, lr, cr13, cr0, {1}
e0010568:	f57ff06f 	isb	sy
e001056c:	e2800203 	add	r0, r0, #805306368	; 0x30000000
e0010570:	e3800018 	orr	r0, r0, #24
e0010574:	ee020f10 	mcr	15, 0, r0, cr2, cr0, {0}
e0010578:	f57ff06f 	isb	sy
e001057c:	e3013b34 	movw	r3, #6964	; 0x1b34
e0010580:	e34e3003 	movt	r3, #57347	; 0xe003
e0010584:	e5832000 	str	r2, [r3]
e0010588:	e3a00000 	mov	r0, #0
e001058c:	e1a03000 	mov	r3, r0
e0010590:	e28dc004 	add	ip, sp, #4
e0010594:	e18c3f9c 	strex	r3, ip, [ip]
e0010598:	e3c11c0e 	bic	r1, r1, #3584	; 0xe00
e001059c:	eb00009d 	bl	e0010818 <fastpath_restore>
e00105a0:	e3e00001 	mvn	r0, #1
e00105a4:	eb002bfd 	bl	e001b5a0 <slowpath>
e00105a8:	e20ce00f 	and	lr, ip, #15
e00105ac:	e35e000a 	cmp	lr, #10
e00105b0:	1affff7a 	bne	e00103a0 <fastpath_reply_recv+0xa0>
e00105b4:	eaffff65 	b	e0010350 <fastpath_reply_recv+0x50>
e00105b8:	e3e00001 	mvn	r0, #1
e00105bc:	eb002bf7 	bl	e001b5a0 <slowpath>
e00105c0:	e3e00001 	mvn	r0, #1
e00105c4:	eb002bf5 	bl	e001b5a0 <slowpath>
e00105c8:	e3e00001 	mvn	r0, #1
e00105cc:	eb002bf3 	bl	e001b5a0 <slowpath>
e00105d0:	e3e00001 	mvn	r0, #1
e00105d4:	eb002bf1 	bl	e001b5a0 <slowpath>
e00105d8:	e3e00001 	mvn	r0, #1
e00105dc:	eb002bef 	bl	e001b5a0 <slowpath>
e00105e0:	e3e00001 	mvn	r0, #1
e00105e4:	eb002bed 	bl	e001b5a0 <slowpath>
e00105e8:	e3e00001 	mvn	r0, #1
e00105ec:	eb002beb 	bl	e001b5a0 <slowpath>
e00105f0:	e3e00001 	mvn	r0, #1
e00105f4:	eb002be9 	bl	e001b5a0 <slowpath>
e00105f8:	e3e00001 	mvn	r0, #1
e00105fc:	eb002be7 	bl	e001b5a0 <slowpath>
e0010600:	10024000 	.word	0x10024000

e0010604 <arm_undefined_inst_exception>:
e0010604:	f8cd0513 	srsia	sp, #19
e0010608:	f1020013 	cps	#19
e001060c:	e94d7fff 	stmdb	sp, {r0, r1, r2, r3, r4, r5, r6, r7, r8, r9, sl, fp, ip, sp, lr}^
e0010610:	e59d8000 	ldr	r8, [sp]
e0010614:	e2488004 	sub	r8, r8, #4
e0010618:	e58d8008 	str	r8, [sp, #8]
e001061c:	ee1ddf90 	mrc	15, 0, sp, cr13, cr0, {4}
e0010620:	ea00002d 	b	e00106dc <c_handle_undefined_instruction>

e0010624 <arm_swi_syscall>:
e0010624:	f8cd0513 	srsia	sp, #19
e0010628:	e24ee004 	sub	lr, lr, #4
e001062c:	e58de008 	str	lr, [sp, #8]
e0010630:	e94d7fff 	stmdb	sp, {r0, r1, r2, r3, r4, r5, r6, r7, r8, r9, sl, fp, ip, sp, lr}^
e0010634:	ee1ddf90 	mrc	15, 0, sp, cr13, cr0, {4}
e0010638:	e1a02007 	mov	r2, r7
e001063c:	ea000033 	b	e0010710 <c_handle_syscall>

e0010640 <arm_prefetch_abort_exception>:
e0010640:	f8cd0513 	srsia	sp, #19
e0010644:	f1020013 	cps	#19
e0010648:	e94d7fff 	stmdb	sp, {r0, r1, r2, r3, r4, r5, r6, r7, r8, r9, sl, fp, ip, sp, lr}^
e001064c:	e89d0300 	ldm	sp, {r8, r9}
e0010650:	e319000f 	tst	r9, #15
e0010654:	e2488004 	sub	r8, r8, #4
e0010658:	1a000002 	bne	e0010668 <kernel_prefetch_fault>
e001065c:	e58d8008 	str	r8, [sp, #8]
e0010660:	ee1ddf90 	mrc	15, 0, sp, cr13, cr0, {4}
e0010664:	ea000025 	b	e0010700 <c_handle_instruction_fault>

e0010668 <kernel_prefetch_fault>:
e0010668:	ee159f30 	mrc	15, 0, r9, cr5, cr0, {1}
e001066c:	eafffffe 	b	e001066c <kernel_prefetch_fault+0x4>

e0010670 <arm_data_abort_exception>:
e0010670:	f8cd0513 	srsia	sp, #19
e0010674:	f1020013 	cps	#19
e0010678:	e94d7fff 	stmdb	sp, {r0, r1, r2, r3, r4, r5, r6, r7, r8, r9, sl, fp, ip, sp, lr}^
e001067c:	e89d0300 	ldm	sp, {r8, r9}
e0010680:	e319000f 	tst	r9, #15
e0010684:	e2488008 	sub	r8, r8, #8
e0010688:	1a000002 	bne	e0010698 <kernel_data_fault>
e001068c:	e58d8008 	str	r8, [sp, #8]
e0010690:	ee1ddf90 	mrc	15, 0, sp, cr13, cr0, {4}
e0010694:	ea000015 	b	e00106f0 <c_handle_data_fault>

e0010698 <kernel_data_fault>:
e0010698:	ee159f10 	mrc	15, 0, r9, cr5, cr0, {0}
e001069c:	ee16af10 	mrc	15, 0, sl, cr6, cr0, {0}
e00106a0:	eafffffe 	b	e00106a0 <kernel_data_fault+0x8>

e00106a4 <arm_irq_exception>:
e00106a4:	f8cd0513 	srsia	sp, #19
e00106a8:	f1020013 	cps	#19
e00106ac:	e94d7fff 	stmdb	sp, {r0, r1, r2, r3, r4, r5, r6, r7, r8, r9, sl, fp, ip, sp, lr}^
e00106b0:	e59d8000 	ldr	r8, [sp]
e00106b4:	e2488004 	sub	r8, r8, #4
e00106b8:	e58d8000 	str	r8, [sp]
e00106bc:	e58d8008 	str	r8, [sp, #8]
e00106c0:	ee1ddf90 	mrc	15, 0, sp, cr13, cr0, {4}
e00106c4:	ea000001 	b	e00106d0 <c_handle_interrupt>

e00106c8 <arm_reset_exception>:
e00106c8:	eb000068 	bl	e0010870 <halt>

e00106cc <arm_fiq_exception>:
e00106cc:	eb000067 	bl	e0010870 <halt>

e00106d0 <c_handle_interrupt>:
e00106d0:	e92d4010 	push	{r4, lr}
e00106d4:	eb00196a 	bl	e0016c84 <handleInterruptEntry>
e00106d8:	eb000059 	bl	e0010844 <restore_user_context>

e00106dc <c_handle_undefined_instruction>:
e00106dc:	e92d4010 	push	{r4, lr}
e00106e0:	e3a01000 	mov	r1, #0
e00106e4:	e1a00001 	mov	r0, r1
e00106e8:	eb001bb1 	bl	e00175b4 <handleUserLevelFault>
e00106ec:	eb000054 	bl	e0010844 <restore_user_context>

e00106f0 <c_handle_data_fault>:
e00106f0:	e92d4010 	push	{r4, lr}
e00106f4:	e3a00000 	mov	r0, #0
e00106f8:	eb001bbc 	bl	e00175f0 <handleVMFaultEvent>
e00106fc:	eb000050 	bl	e0010844 <restore_user_context>

e0010700 <c_handle_instruction_fault>:
e0010700:	e92d4010 	push	{r4, lr}
e0010704:	e3a00001 	mov	r0, #1
e0010708:	eb001bb8 	bl	e00175f0 <handleVMFaultEvent>
e001070c:	eb00004c 	bl	e0010844 <restore_user_context>

e0010710 <c_handle_syscall>:
e0010710:	e92d4010 	push	{r4, lr}
e0010714:	e3720001 	cmn	r2, #1
e0010718:	0a000005 	beq	e0010734 <c_handle_syscall+0x24>
e001071c:	e3720002 	cmn	r2, #2
e0010720:	0a000004 	beq	e0010738 <c_handle_syscall+0x28>
e0010724:	e3720009 	cmn	r2, #9
e0010728:	9a000003 	bls	e001073c <c_handle_syscall+0x2c>
e001072c:	e1a00002 	mov	r0, r2
e0010730:	eb002b9a 	bl	e001b5a0 <slowpath>
e0010734:	ebfffe40 	bl	e001003c <fastpath_call>
e0010738:	ebfffef0 	bl	e0010300 <fastpath_reply_recv>
e001073c:	e1a00002 	mov	r0, r2
e0010740:	eb001b8d 	bl	e001757c <handleUnknownSyscall>
e0010744:	eb00003e 	bl	e0010844 <restore_user_context>
e0010748:	00000000 	andeq	r0, r0, r0
e001074c:	00000000 	andeq	r0, r0, r0
e0010750:	00000000 	andeq	r0, r0, r0
e0010754:	00000000 	andeq	r0, r0, r0
e0010758:	00000000 	andeq	r0, r0, r0
e001075c:	00000000 	andeq	r0, r0, r0
e0010760:	00000000 	andeq	r0, r0, r0
e0010764:	00000000 	andeq	r0, r0, r0
e0010768:	00000000 	andeq	r0, r0, r0
e001076c:	00000000 	andeq	r0, r0, r0
e0010770:	00000000 	andeq	r0, r0, r0
e0010774:	00000000 	andeq	r0, r0, r0
e0010778:	00000000 	andeq	r0, r0, r0
e001077c:	00000000 	andeq	r0, r0, r0

e0010780 <lockTLBEntryCritical>:
e0010780:	ee080f37 	mcr	15, 0, r0, cr8, cr7, {1}
e0010784:	ee0a1f30 	mcr	15, 0, r1, cr10, cr0, {1}
e0010788:	ee0a0f31 	mcr	15, 0, r0, cr10, cr1, {1}
e001078c:	ee0a2f30 	mcr	15, 0, r2, cr10, cr0, {1}
e0010790:	ee0a1f10 	mcr	15, 0, r1, cr10, cr0, {0}
e0010794:	ee0a0f11 	mcr	15, 0, r0, cr10, cr1, {0}
e0010798:	ee0a2f10 	mcr	15, 0, r2, cr10, cr0, {0}
e001079c:	e12fff1e 	bx	lr

e00107a0 <idle_thread>:
e00107a0:	e320f003 	wfi
e00107a4:	eafffffd 	b	e00107a0 <idle_thread>

e00107a8 <loadHWASID>:
e00107a8:	e30932d8 	movw	r3, #37592	; 0x92d8
e00107ac:	e34e3002 	movt	r3, #57346	; 0xe002
e00107b0:	e1a02520 	lsr	r2, r0, #10
e00107b4:	e7933102 	ldr	r3, [r3, r2, lsl #2]
e00107b8:	e7e90050 	ubfx	r0, r0, #0, #10
e00107bc:	e7933100 	ldr	r3, [r3, r0, lsl #2]
e00107c0:	e2833a03 	add	r3, r3, #12288	; 0x3000
e00107c4:	e5930fc0 	ldr	r0, [r3, #4032]	; 0xfc0
e00107c8:	e12fff1e 	bx	lr

e00107cc <invalidateASIDEntry>:
e00107cc:	e92d4010 	push	{r4, lr}
e00107d0:	e1a04000 	mov	r4, r0
e00107d4:	ebfffff3 	bl	e00107a8 <loadHWASID>
e00107d8:	e3100502 	tst	r0, #8388608	; 0x800000
e00107dc:	13013730 	movwne	r3, #5936	; 0x1730
e00107e0:	134e3003 	movtne	r3, #57347	; 0xe003
e00107e4:	11a00c20 	lsrne	r0, r0, #24
e00107e8:	13a02000 	movne	r2, #0
e00107ec:	17832100 	strne	r2, [r3, r0, lsl #2]
e00107f0:	e30932d8 	movw	r3, #37592	; 0x92d8
e00107f4:	e34e3002 	movt	r3, #57346	; 0xe002
e00107f8:	e1a02524 	lsr	r2, r4, #10
e00107fc:	e7933102 	ldr	r3, [r3, r2, lsl #2]
e0010800:	e7e94054 	ubfx	r4, r4, #0, #10
e0010804:	e7933104 	ldr	r3, [r3, r4, lsl #2]
e0010808:	e2833a03 	add	r3, r3, #12288	; 0x3000
e001080c:	e3a02000 	mov	r2, #0
e0010810:	e5832fc0 	str	r2, [r3, #4032]	; 0xfc0
e0010814:	e8bd8010 	pop	{r4, pc}

e0010818 <fastpath_restore>:
e0010818:	e3013b34 	movw	r3, #6964	; 0x1b34
e001081c:	e34e3003 	movt	r3, #57347	; 0xe003
e0010820:	e5933000 	ldr	r3, [r3]
e0010824:	e593c04c 	ldr	ip, [r3, #76]	; 0x4c
e0010828:	ee0dcf50 	mcr	15, 0, ip, cr13, cr0, {2}
e001082c:	e5933048 	ldr	r3, [r3, #72]	; 0x48
e0010830:	ee0d3f70 	mcr	15, 0, r3, cr13, cr0, {3}
e0010834:	e1a0d002 	mov	sp, r2
e0010838:	e28dd03c 	add	sp, sp, #60	; 0x3c
e001083c:	e95d7ffc 	ldmdb	sp, {r2, r3, r4, r5, r6, r7, r8, r9, sl, fp, ip, sp, lr}^
e0010840:	f89d0a00 	rfeia	sp

e0010844 <restore_user_context>:
e0010844:	e3013b34 	movw	r3, #6964	; 0x1b34
e0010848:	e34e3003 	movt	r3, #57347	; 0xe003
e001084c:	e5933000 	ldr	r3, [r3]
e0010850:	e593204c 	ldr	r2, [r3, #76]	; 0x4c
e0010854:	ee0d2f50 	mcr	15, 0, r2, cr13, cr0, {2}
e0010858:	e5932048 	ldr	r2, [r3, #72]	; 0x48
e001085c:	ee0d2f70 	mcr	15, 0, r2, cr13, cr0, {3}
e0010860:	e283303c 	add	r3, r3, #60	; 0x3c
e0010864:	e1a0d003 	mov	sp, r3
e0010868:	e95d7fff 	ldmdb	sp, {r0, r1, r2, r3, r4, r5, r6, r7, r8, r9, sl, fp, ip, sp, lr}^
e001086c:	f89d0a00 	rfeia	sp

e0010870 <halt>:
e0010870:	e92d4010 	push	{r4, lr}
e0010874:	f10c01c0 	cpsid	aif
e0010878:	ebffffc8 	bl	e00107a0 <idle_thread>

e001087c <APFromVMRights>:
e001087c:	e3500003 	cmp	r0, #3
e0010880:	979ff100 	ldrls	pc, [pc, r0, lsl #2]
e0010884:	ea000007 	b	e00108a8 <APFromVMRights+0x2c>
e0010888:	e00108b0 	.word	0xe00108b0
e001088c:	e0010898 	.word	0xe0010898
e0010890:	e00108b8 	.word	0xe00108b8
e0010894:	e00108a0 	.word	0xe00108a0
e0010898:	e3a00001 	mov	r0, #1
e001089c:	e12fff1e 	bx	lr
e00108a0:	e3a00003 	mov	r0, #3
e00108a4:	e12fff1e 	bx	lr
e00108a8:	e92d4010 	push	{r4, lr}
e00108ac:	ebffffef 	bl	e0010870 <halt>
e00108b0:	e3a00000 	mov	r0, #0
e00108b4:	e12fff1e 	bx	lr
e00108b8:	e3a00002 	mov	r0, #2
e00108bc:	e12fff1e 	bx	lr

e00108c0 <makeUserPDE>:
e00108c0:	e92d47f0 	push	{r4, r5, r6, r7, r8, r9, sl, lr}
e00108c4:	e1a08000 	mov	r8, r0
e00108c8:	e1a06001 	mov	r6, r1
e00108cc:	e1a05002 	mov	r5, r2
e00108d0:	e1a09003 	mov	r9, r3
e00108d4:	e59d4020 	ldr	r4, [sp, #32]
e00108d8:	e59d7024 	ldr	r7, [sp, #36]	; 0x24
e00108dc:	e59d0028 	ldr	r0, [sp, #40]	; 0x28
e00108e0:	ebffffe5 	bl	e001087c <APFromVMRights>
e00108e4:	e3580002 	cmp	r8, #2
e00108e8:	0a000017 	beq	e001094c <makeUserPDE+0x8c>
e00108ec:	e3580003 	cmp	r8, #3
e00108f0:	1a000014 	bne	e0010948 <makeUserPDE+0x88>
e00108f4:	e3a02001 	mov	r2, #1
e00108f8:	e3590000 	cmp	r9, #0
e00108fc:	1a000014 	bne	e0010954 <makeUserPDE+0x94>
e0010900:	e1a03204 	lsl	r3, r4, #4
e0010904:	e2033010 	and	r3, r3, #16
e0010908:	e3833803 	orr	r3, r3, #196608	; 0x30000
e001090c:	e3833002 	orr	r3, r3, #2
e0010910:	e1a07287 	lsl	r7, r7, #5
e0010914:	e2077e1e 	and	r7, r7, #480	; 0x1e0
e0010918:	e1833007 	orr	r3, r3, r7
e001091c:	e1a06a26 	lsr	r6, r6, #20
e0010920:	e1a06a06 	lsl	r6, r6, #20
e0010924:	e1833006 	orr	r3, r3, r6
e0010928:	e1a05485 	lsl	r5, r5, #9
e001092c:	e2055c02 	and	r5, r5, #512	; 0x200
e0010930:	e1833005 	orr	r3, r3, r5
e0010934:	e1a00500 	lsl	r0, r0, #10
e0010938:	e2000b03 	and	r0, r0, #3072	; 0xc00
e001093c:	e1833000 	orr	r3, r3, r0
e0010940:	e1830902 	orr	r0, r3, r2, lsl #18
e0010944:	e8bd87f0 	pop	{r4, r5, r6, r7, r8, r9, sl, pc}
e0010948:	ebffffc8 	bl	e0010870 <halt>
e001094c:	e3a02000 	mov	r2, #0
e0010950:	eaffffe8 	b	e00108f8 <makeUserPDE+0x38>
e0010954:	e1a04204 	lsl	r4, r4, #4
e0010958:	e2044010 	and	r4, r4, #16
e001095c:	e3844a25 	orr	r4, r4, #151552	; 0x25000
e0010960:	e3844006 	orr	r4, r4, #6
e0010964:	e1a07287 	lsl	r7, r7, #5
e0010968:	e2077e1e 	and	r7, r7, #480	; 0x1e0
e001096c:	e1844007 	orr	r4, r4, r7
e0010970:	e1a06a26 	lsr	r6, r6, #20
e0010974:	e1a06a06 	lsl	r6, r6, #20
e0010978:	e1844006 	orr	r4, r4, r6
e001097c:	e1a05485 	lsl	r5, r5, #9
e0010980:	e2055c02 	and	r5, r5, #512	; 0x200
e0010984:	e1844005 	orr	r4, r4, r5
e0010988:	e1a00500 	lsl	r0, r0, #10
e001098c:	e2000b03 	and	r0, r0, #3072	; 0xc00
e0010990:	e1844000 	orr	r4, r4, r0
e0010994:	e1840902 	orr	r0, r4, r2, lsl #18
e0010998:	e8bd87f0 	pop	{r4, r5, r6, r7, r8, r9, sl, pc}

e001099c <createSafeMappingEntries_PDE>:
e001099c:	e92d40f0 	push	{r4, r5, r6, r7, lr}
e00109a0:	e24dd014 	sub	sp, sp, #20
e00109a4:	e1a05000 	mov	r5, r0
e00109a8:	e59dc028 	ldr	ip, [sp, #40]	; 0x28
e00109ac:	e59d002c 	ldr	r0, [sp, #44]	; 0x2c
e00109b0:	e59d6030 	ldr	r6, [sp, #48]	; 0x30
e00109b4:	e3530002 	cmp	r3, #2
e00109b8:	0a000010 	beq	e0010a00 <createSafeMappingEntries_PDE+0x64>
e00109bc:	e3530003 	cmp	r3, #3
e00109c0:	1a00004c 	bne	e0010af8 <createSafeMappingEntries_PDE+0x15c>
e00109c4:	e1a04a22 	lsr	r4, r2, #20
e00109c8:	e0864104 	add	r4, r6, r4, lsl #2
e00109cc:	e58dc008 	str	ip, [sp, #8]
e00109d0:	e3a03000 	mov	r3, #0
e00109d4:	e58d3004 	str	r3, [sp, #4]
e00109d8:	e7e03150 	ubfx	r3, r0, #2, #1
e00109dc:	e58d3000 	str	r3, [sp]
e00109e0:	e2003001 	and	r3, r0, #1
e00109e4:	e7e020d0 	ubfx	r2, r0, #1, #1
e00109e8:	e3a00003 	mov	r0, #3
e00109ec:	ebffffb3 	bl	e00108c0 <makeUserPDE>
e00109f0:	e5850004 	str	r0, [r5, #4]
e00109f4:	e2442004 	sub	r2, r4, #4
e00109f8:	e284003c 	add	r0, r4, #60	; 0x3c
e00109fc:	ea000026 	b	e0010a9c <createSafeMappingEntries_PDE+0x100>
e0010a00:	e1a04a22 	lsr	r4, r2, #20
e0010a04:	e0867104 	add	r7, r6, r4, lsl #2
e0010a08:	e58dc008 	str	ip, [sp, #8]
e0010a0c:	e3a03000 	mov	r3, #0
e0010a10:	e58d3004 	str	r3, [sp, #4]
e0010a14:	e7e03150 	ubfx	r3, r0, #2, #1
e0010a18:	e58d3000 	str	r3, [sp]
e0010a1c:	e2003001 	and	r3, r0, #1
e0010a20:	e7e020d0 	ubfx	r2, r0, #1, #1
e0010a24:	e3a00002 	mov	r0, #2
e0010a28:	ebffffa4 	bl	e00108c0 <makeUserPDE>
e0010a2c:	e5850004 	str	r0, [r5, #4]
e0010a30:	e7963104 	ldr	r3, [r6, r4, lsl #2]
e0010a34:	e2132003 	ands	r2, r3, #3
e0010a38:	1a000007 	bne	e0010a5c <createSafeMappingEntries_PDE+0xc0>
e0010a3c:	e3a03000 	mov	r3, #0
e0010a40:	e5853000 	str	r3, [r5]
e0010a44:	e5857008 	str	r7, [r5, #8]
e0010a48:	e3a03001 	mov	r3, #1
e0010a4c:	e585300c 	str	r3, [r5, #12]
e0010a50:	e1a00005 	mov	r0, r5
e0010a54:	e28dd014 	add	sp, sp, #20
e0010a58:	e8bd80f0 	pop	{r4, r5, r6, r7, pc}
e0010a5c:	e3520002 	cmp	r2, #2
e0010a60:	1a000001 	bne	e0010a6c <createSafeMappingEntries_PDE+0xd0>
e0010a64:	e3130701 	tst	r3, #262144	; 0x40000
e0010a68:	0afffff3 	beq	e0010a3c <createSafeMappingEntries_PDE+0xa0>
e0010a6c:	e3093030 	movw	r3, #36912	; 0x9030
e0010a70:	e34e3002 	movt	r3, #57346	; 0xe002
e0010a74:	e3a02008 	mov	r2, #8
e0010a78:	e5832018 	str	r2, [r3, #24]
e0010a7c:	e3a03003 	mov	r3, #3
e0010a80:	e5853000 	str	r3, [r5]
e0010a84:	e5857008 	str	r7, [r5, #8]
e0010a88:	e3a03001 	mov	r3, #1
e0010a8c:	e585300c 	str	r3, [r5, #12]
e0010a90:	eaffffee 	b	e0010a50 <createSafeMappingEntries_PDE+0xb4>
e0010a94:	e1500002 	cmp	r0, r2
e0010a98:	0a000010 	beq	e0010ae0 <createSafeMappingEntries_PDE+0x144>
e0010a9c:	e5b23004 	ldr	r3, [r2, #4]!
e0010aa0:	e2131003 	ands	r1, r3, #3
e0010aa4:	0afffffa 	beq	e0010a94 <createSafeMappingEntries_PDE+0xf8>
e0010aa8:	e3510002 	cmp	r1, #2
e0010aac:	1a000001 	bne	e0010ab8 <createSafeMappingEntries_PDE+0x11c>
e0010ab0:	e3130701 	tst	r3, #262144	; 0x40000
e0010ab4:	1afffff6 	bne	e0010a94 <createSafeMappingEntries_PDE+0xf8>
e0010ab8:	e3093030 	movw	r3, #36912	; 0x9030
e0010abc:	e34e3002 	movt	r3, #57346	; 0xe002
e0010ac0:	e3a02008 	mov	r2, #8
e0010ac4:	e5832018 	str	r2, [r3, #24]
e0010ac8:	e3a03003 	mov	r3, #3
e0010acc:	e5853000 	str	r3, [r5]
e0010ad0:	e5854008 	str	r4, [r5, #8]
e0010ad4:	e3a03010 	mov	r3, #16
e0010ad8:	e585300c 	str	r3, [r5, #12]
e0010adc:	eaffffdb 	b	e0010a50 <createSafeMappingEntries_PDE+0xb4>
e0010ae0:	e3a03000 	mov	r3, #0
e0010ae4:	e5853000 	str	r3, [r5]
e0010ae8:	e5854008 	str	r4, [r5, #8]
e0010aec:	e3a03010 	mov	r3, #16
e0010af0:	e585300c 	str	r3, [r5, #12]
e0010af4:	eaffffd5 	b	e0010a50 <createSafeMappingEntries_PDE+0xb4>
e0010af8:	ebffff5c 	bl	e0010870 <halt>

e0010afc <Arch_activateIdleThread>:
e0010afc:	e12fff1e 	bx	lr

e0010b00 <maskVMRights>:
e0010b00:	e3500000 	cmp	r0, #0
e0010b04:	012fff1e 	bxeq	lr
e0010b08:	e3500002 	cmp	r0, #2
e0010b0c:	0a000003 	beq	e0010b20 <maskVMRights+0x20>
e0010b10:	e3500003 	cmp	r0, #3
e0010b14:	0a000005 	beq	e0010b30 <maskVMRights+0x30>
e0010b18:	e3a00001 	mov	r0, #1
e0010b1c:	e12fff1e 	bx	lr
e0010b20:	e7e010d1 	ubfx	r1, r1, #1, #1
e0010b24:	e3510000 	cmp	r1, #0
e0010b28:	03a00001 	moveq	r0, #1
e0010b2c:	e12fff1e 	bx	lr
e0010b30:	e3110002 	tst	r1, #2
e0010b34:	0a000003 	beq	e0010b48 <maskVMRights+0x48>
e0010b38:	e2011001 	and	r1, r1, #1
e0010b3c:	e3510000 	cmp	r1, #0
e0010b40:	03a00002 	moveq	r0, #2
e0010b44:	e12fff1e 	bx	lr
e0010b48:	e3a00001 	mov	r0, #1
e0010b4c:	e12fff1e 	bx	lr

e0010b50 <findPDForASID>:
e0010b50:	e30932d8 	movw	r3, #37592	; 0x92d8
e0010b54:	e34e3002 	movt	r3, #57346	; 0xe002
e0010b58:	e1a02521 	lsr	r2, r1, #10
e0010b5c:	e7933102 	ldr	r3, [r3, r2, lsl #2]
e0010b60:	e3530000 	cmp	r3, #0
e0010b64:	0a000007 	beq	e0010b88 <findPDForASID+0x38>
e0010b68:	e7e91051 	ubfx	r1, r1, #0, #10
e0010b6c:	e7933101 	ldr	r3, [r3, r1, lsl #2]
e0010b70:	e3530000 	cmp	r3, #0
e0010b74:	0a00000c 	beq	e0010bac <findPDForASID+0x5c>
e0010b78:	e3a02000 	mov	r2, #0
e0010b7c:	e5802000 	str	r2, [r0]
e0010b80:	e5803004 	str	r3, [r0, #4]
e0010b84:	e12fff1e 	bx	lr
e0010b88:	e3093024 	movw	r3, #36900	; 0x9024
e0010b8c:	e34e3002 	movt	r3, #57346	; 0xe002
e0010b90:	e3a02000 	mov	r2, #0
e0010b94:	e5832000 	str	r2, [r3]
e0010b98:	e5832004 	str	r2, [r3, #4]
e0010b9c:	e3a03002 	mov	r3, #2
e0010ba0:	e5803000 	str	r3, [r0]
e0010ba4:	e5802004 	str	r2, [r0, #4]
e0010ba8:	e12fff1e 	bx	lr
e0010bac:	e3093024 	movw	r3, #36900	; 0x9024
e0010bb0:	e34e3002 	movt	r3, #57346	; 0xe002
e0010bb4:	e3a02000 	mov	r2, #0
e0010bb8:	e5832000 	str	r2, [r3]
e0010bbc:	e5832004 	str	r2, [r3, #4]
e0010bc0:	e3a03002 	mov	r3, #2
e0010bc4:	e5803000 	str	r3, [r0]
e0010bc8:	e5802004 	str	r2, [r0, #4]
e0010bcc:	e12fff1e 	bx	lr

e0010bd0 <lookupIPCBuffer>:
e0010bd0:	e92d4010 	push	{r4, lr}
e0010bd4:	e3c13f7f 	bic	r3, r1, #508	; 0x1fc
e0010bd8:	e3c33003 	bic	r3, r3, #3
e0010bdc:	e283e040 	add	lr, r3, #64	; 0x40
e0010be0:	e5933040 	ldr	r3, [r3, #64]	; 0x40
e0010be4:	e203200e 	and	r2, r3, #14
e0010be8:	e352000e 	cmp	r2, #14
e0010bec:	1203200f 	andne	r2, r3, #15
e0010bf0:	06ef2073 	uxtbeq	r2, r3
e0010bf4:	e3c2c002 	bic	ip, r2, #2
e0010bf8:	e35c0001 	cmp	ip, #1
e0010bfc:	1a00002e 	bne	e0010cbc <lookupIPCBuffer+0xec>
e0010c00:	e6efc072 	uxtb	ip, r2
e0010c04:	e35c0001 	cmp	ip, #1
e0010c08:	01a0cfa3 	lsreq	ip, r3, #31
e0010c0c:	17e0ced3 	ubfxne	ip, r3, #29, #1
e0010c10:	e35c0000 	cmp	ip, #0
e0010c14:	1a00002a 	bne	e0010cc4 <lookupIPCBuffer+0xf4>
e0010c18:	e59ec004 	ldr	ip, [lr, #4]
e0010c1c:	e3520001 	cmp	r2, #1
e0010c20:	0a000003 	beq	e0010c34 <lookupIPCBuffer+0x64>
e0010c24:	e3520003 	cmp	r2, #3
e0010c28:	0a00000a 	beq	e0010c58 <lookupIPCBuffer+0x88>
e0010c2c:	e3a00000 	mov	r0, #0
e0010c30:	e8bd8010 	pop	{r4, pc}
e0010c34:	e7e1ca5c 	ubfx	ip, ip, #20, #2
e0010c38:	e35c0003 	cmp	ip, #3
e0010c3c:	1a000022 	bne	e0010ccc <lookupIPCBuffer+0xfc>
e0010c40:	e1a03403 	lsl	r3, r3, #8
e0010c44:	e3c33eff 	bic	r3, r3, #4080	; 0xff0
e0010c48:	e3c3300f 	bic	r3, r3, #15
e0010c4c:	e5910084 	ldr	r0, [r1, #132]	; 0x84
e0010c50:	e3a0100c 	mov	r1, #12
e0010c54:	ea000011 	b	e0010ca0 <lookupIPCBuffer+0xd0>
e0010c58:	e7e1295c 	ubfx	r2, ip, #18, #2
e0010c5c:	e3520003 	cmp	r2, #3
e0010c60:	1a00001e 	bne	e0010ce0 <lookupIPCBuffer+0x110>
e0010c64:	e1a03503 	lsl	r3, r3, #10
e0010c68:	e3c33dff 	bic	r3, r3, #16320	; 0x3fc0
e0010c6c:	e3c3303f 	bic	r3, r3, #63	; 0x3f
e0010c70:	e5910084 	ldr	r0, [r1, #132]	; 0x84
e0010c74:	e1a0cf2c 	lsr	ip, ip, #30
e0010c78:	e35c0003 	cmp	ip, #3
e0010c7c:	979ff10c 	ldrls	pc, [pc, ip, lsl #2]
e0010c80:	ea00000a 	b	e0010cb0 <lookupIPCBuffer+0xe0>
e0010c84:	e0010c50 	.word	0xe0010c50
e0010c88:	e0010c94 	.word	0xe0010c94
e0010c8c:	e0010cb4 	.word	0xe0010cb4
e0010c90:	e0010c9c 	.word	0xe0010c9c
e0010c94:	e3a01010 	mov	r1, #16
e0010c98:	ea000000 	b	e0010ca0 <lookupIPCBuffer+0xd0>
e0010c9c:	e3a01018 	mov	r1, #24
e0010ca0:	e3e02000 	mvn	r2, #0
e0010ca4:	e1c00112 	bic	r0, r0, r2, lsl r1
e0010ca8:	e0800003 	add	r0, r0, r3
e0010cac:	e8bd8010 	pop	{r4, pc}
e0010cb0:	ebfffeee 	bl	e0010870 <halt>
e0010cb4:	e3a01014 	mov	r1, #20
e0010cb8:	eafffff8 	b	e0010ca0 <lookupIPCBuffer+0xd0>
e0010cbc:	e3a00000 	mov	r0, #0
e0010cc0:	e8bd8010 	pop	{r4, pc}
e0010cc4:	e3a00000 	mov	r0, #0
e0010cc8:	e8bd8010 	pop	{r4, pc}
e0010ccc:	e35c0002 	cmp	ip, #2
e0010cd0:	03500000 	cmpeq	r0, #0
e0010cd4:	0affffd9 	beq	e0010c40 <lookupIPCBuffer+0x70>
e0010cd8:	e3a00000 	mov	r0, #0
e0010cdc:	e8bd8010 	pop	{r4, pc}
e0010ce0:	e3520002 	cmp	r2, #2
e0010ce4:	03500000 	cmpeq	r0, #0
e0010ce8:	0affffdd 	beq	e0010c64 <lookupIPCBuffer+0x94>
e0010cec:	e3a00000 	mov	r0, #0
e0010cf0:	e8bd8010 	pop	{r4, pc}

e0010cf4 <handleFaultReply>:
e0010cf4:	e92d41f0 	push	{r4, r5, r6, r7, r8, lr}
e0010cf8:	e1a05000 	mov	r5, r0
e0010cfc:	e5913004 	ldr	r3, [r1, #4]
e0010d00:	e203207f 	and	r2, r3, #127	; 0x7f
e0010d04:	e3520078 	cmp	r2, #120	; 0x78
e0010d08:	83c3307f 	bichi	r3, r3, #127	; 0x7f
e0010d0c:	83833078 	orrhi	r3, r3, #120	; 0x78
e0010d10:	e1a06623 	lsr	r6, r3, #12
e0010d14:	e203307f 	and	r3, r3, #127	; 0x7f
e0010d18:	e5902060 	ldr	r2, [r0, #96]	; 0x60
e0010d1c:	e2022007 	and	r2, r2, #7
e0010d20:	e3520002 	cmp	r2, #2
e0010d24:	0a000007 	beq	e0010d48 <handleFaultReply+0x54>
e0010d28:	e3520003 	cmp	r2, #3
e0010d2c:	0a000034 	beq	e0010e04 <handleFaultReply+0x110>
e0010d30:	e3520001 	cmp	r2, #1
e0010d34:	0a000062 	beq	e0010ec4 <handleFaultReply+0x1d0>
e0010d38:	e3520005 	cmp	r2, #5
e0010d3c:	1a00005f 	bne	e0010ec0 <handleFaultReply+0x1cc>
e0010d40:	e3a00001 	mov	r0, #1
e0010d44:	e8bd81f0 	pop	{r4, r5, r6, r7, r8, pc}
e0010d48:	e353000c 	cmp	r3, #12
e0010d4c:	31a07003 	movcc	r7, r3
e0010d50:	23a0700c 	movcs	r7, #12
e0010d54:	e3530004 	cmp	r3, #4
e0010d58:	31a0c003 	movcc	ip, r3
e0010d5c:	23a0c004 	movcs	ip, #4
e0010d60:	e3530000 	cmp	r3, #0
e0010d64:	0a000023 	beq	e0010df8 <handleFaultReply+0x104>
e0010d68:	e5913008 	ldr	r3, [r1, #8]
e0010d6c:	e3a04000 	mov	r4, #0
e0010d70:	e1a02004 	mov	r2, r4
e0010d74:	e30b0768 	movw	r0, #46952	; 0xb768
e0010d78:	e34e0001 	movt	r0, #57345	; 0xe001
e0010d7c:	e280e060 	add	lr, r0, #96	; 0x60
e0010d80:	ea000005 	b	e0010d9c <handleFaultReply+0xa8>
e0010d84:	e7902104 	ldr	r2, [r0, r4, lsl #2]
e0010d88:	e79e3104 	ldr	r3, [lr, r4, lsl #2]
e0010d8c:	e7913103 	ldr	r3, [r1, r3, lsl #2]
e0010d90:	e3520010 	cmp	r2, #16
e0010d94:	0203333e 	andeq	r3, r3, #-134217728	; 0xf8000000
e0010d98:	03833e15 	orreq	r3, r3, #336	; 0x150
e0010d9c:	e7853102 	str	r3, [r5, r2, lsl #2]
e0010da0:	e2844001 	add	r4, r4, #1
e0010da4:	e154000c 	cmp	r4, ip
e0010da8:	3afffff5 	bcc	e0010d84 <handleFaultReply+0x90>
e0010dac:	e1570004 	cmp	r7, r4
e0010db0:	9a000010 	bls	e0010df8 <handleFaultReply+0x104>
e0010db4:	e3a00000 	mov	r0, #0
e0010db8:	ebffff84 	bl	e0010bd0 <lookupIPCBuffer>
e0010dbc:	e3500000 	cmp	r0, #0
e0010dc0:	0a00000c 	beq	e0010df8 <handleFaultReply+0x104>
e0010dc4:	e1a04104 	lsl	r4, r4, #2
e0010dc8:	e59f10fc 	ldr	r1, [pc, #252]	; e0010ecc <handleFaultReply+0x1d8>
e0010dcc:	e0841001 	add	r1, r4, r1
e0010dd0:	e0804004 	add	r4, r0, r4
e0010dd4:	e0807107 	add	r7, r0, r7, lsl #2
e0010dd8:	e5b12004 	ldr	r2, [r1, #4]!
e0010ddc:	e5b43004 	ldr	r3, [r4, #4]!
e0010de0:	e3520010 	cmp	r2, #16
e0010de4:	0203333e 	andeq	r3, r3, #-134217728	; 0xf8000000
e0010de8:	03833e15 	orreq	r3, r3, #336	; 0x150
e0010dec:	e7853102 	str	r3, [r5, r2, lsl #2]
e0010df0:	e1570004 	cmp	r7, r4
e0010df4:	1afffff7 	bne	e0010dd8 <handleFaultReply+0xe4>
e0010df8:	e16f0f16 	clz	r0, r6
e0010dfc:	e1a002a0 	lsr	r0, r0, #5
e0010e00:	e8bd81f0 	pop	{r4, r5, r6, r7, r8, pc}
e0010e04:	e3530003 	cmp	r3, #3
e0010e08:	31a04003 	movcc	r4, r3
e0010e0c:	23a04003 	movcs	r4, #3
e0010e10:	e1a0e004 	mov	lr, r4
e0010e14:	e3530000 	cmp	r3, #0
e0010e18:	0a000025 	beq	e0010eb4 <handleFaultReply+0x1c0>
e0010e1c:	e5912008 	ldr	r2, [r1, #8]
e0010e20:	e59fc0a8 	ldr	ip, [pc, #168]	; e0010ed0 <handleFaultReply+0x1dc>
e0010e24:	e3a07000 	mov	r7, #0
e0010e28:	e3a00011 	mov	r0, #17
e0010e2c:	e28c802c 	add	r8, ip, #44	; 0x2c
e0010e30:	ea000006 	b	e0010e50 <handleFaultReply+0x15c>
e0010e34:	e49c0004 	ldr	r0, [ip], #4
e0010e38:	e7982103 	ldr	r2, [r8, r3, lsl #2]
e0010e3c:	e7912102 	ldr	r2, [r1, r2, lsl #2]
e0010e40:	e3500010 	cmp	r0, #16
e0010e44:	0202233e 	andeq	r2, r2, #-134217728	; 0xf8000000
e0010e48:	03822e15 	orreq	r2, r2, #336	; 0x150
e0010e4c:	e1a07003 	mov	r7, r3
e0010e50:	e7852100 	str	r2, [r5, r0, lsl #2]
e0010e54:	e2873001 	add	r3, r7, #1
e0010e58:	e153000e 	cmp	r3, lr
e0010e5c:	3afffff4 	bcc	e0010e34 <handleFaultReply+0x140>
e0010e60:	e1540003 	cmp	r4, r3
e0010e64:	9a000012 	bls	e0010eb4 <handleFaultReply+0x1c0>
e0010e68:	e3a00000 	mov	r0, #0
e0010e6c:	ebffff57 	bl	e0010bd0 <lookupIPCBuffer>
e0010e70:	e3500000 	cmp	r0, #0
e0010e74:	0a00000e 	beq	e0010eb4 <handleFaultReply+0x1c0>
e0010e78:	e287300d 	add	r3, r7, #13
e0010e7c:	e1a03103 	lsl	r3, r3, #2
e0010e80:	e59fc044 	ldr	ip, [pc, #68]	; e0010ecc <handleFaultReply+0x1d8>
e0010e84:	e083c00c 	add	ip, r3, ip
e0010e88:	e2433030 	sub	r3, r3, #48	; 0x30
e0010e8c:	e0803003 	add	r3, r0, r3
e0010e90:	e0804104 	add	r4, r0, r4, lsl #2
e0010e94:	e5bc1004 	ldr	r1, [ip, #4]!
e0010e98:	e5b32004 	ldr	r2, [r3, #4]!
e0010e9c:	e3510010 	cmp	r1, #16
e0010ea0:	0202233e 	andeq	r2, r2, #-134217728	; 0xf8000000
e0010ea4:	03822e15 	orreq	r2, r2, #336	; 0x150
e0010ea8:	e7852101 	str	r2, [r5, r1, lsl #2]
e0010eac:	e1530004 	cmp	r3, r4
e0010eb0:	1afffff7 	bne	e0010e94 <handleFaultReply+0x1a0>
e0010eb4:	e16f0f16 	clz	r0, r6
e0010eb8:	e1a002a0 	lsr	r0, r0, #5
e0010ebc:	e8bd81f0 	pop	{r4, r5, r6, r7, r8, pc}
e0010ec0:	ebfffe6a 	bl	e0010870 <halt>
e0010ec4:	e3a00001 	mov	r0, #1
e0010ec8:	e8bd81f0 	pop	{r4, r5, r6, r7, r8, pc}
e0010ecc:	e001b764 	.word	0xe001b764
e0010ed0:	e001b79c 	.word	0xe001b79c

e0010ed4 <checkValidIPCBuffer>:
e0010ed4:	e24dd008 	sub	sp, sp, #8
e0010ed8:	e28d3008 	add	r3, sp, #8
e0010edc:	e9030006 	stmdb	r3, {r1, r2}
e0010ee0:	e59d3000 	ldr	r3, [sp]
e0010ee4:	e203200e 	and	r2, r3, #14
e0010ee8:	e352000e 	cmp	r2, #14
e0010eec:	1203200f 	andne	r2, r3, #15
e0010ef0:	06ef2073 	uxtbeq	r2, r3
e0010ef4:	e3c21002 	bic	r1, r2, #2
e0010ef8:	e3510001 	cmp	r1, #1
e0010efc:	13093030 	movwne	r3, #36912	; 0x9030
e0010f00:	134e3002 	movtne	r3, #57346	; 0xe002
e0010f04:	13a00003 	movne	r0, #3
e0010f08:	15830018 	strne	r0, [r3, #24]
e0010f0c:	1a000011 	bne	e0010f58 <checkValidIPCBuffer+0x84>
e0010f10:	e6ef2072 	uxtb	r2, r2
e0010f14:	e3520001 	cmp	r2, #1
e0010f18:	01a03fa3 	lsreq	r3, r3, #31
e0010f1c:	17e03ed3 	ubfxne	r3, r3, #29, #1
e0010f20:	e3530000 	cmp	r3, #0
e0010f24:	13093030 	movwne	r3, #36912	; 0x9030
e0010f28:	134e3002 	movtne	r3, #57346	; 0xe002
e0010f2c:	13a00003 	movne	r0, #3
e0010f30:	15830018 	strne	r0, [r3, #24]
e0010f34:	1a000007 	bne	e0010f58 <checkValidIPCBuffer+0x84>
e0010f38:	e7e80050 	ubfx	r0, r0, #0, #9
e0010f3c:	e3500000 	cmp	r0, #0
e0010f40:	13093030 	movwne	r3, #36912	; 0x9030
e0010f44:	134e3002 	movtne	r3, #57346	; 0xe002
e0010f48:	13a02005 	movne	r2, #5
e0010f4c:	15832018 	strne	r2, [r3, #24]
e0010f50:	13a00003 	movne	r0, #3
e0010f54:	03a00000 	moveq	r0, #0
e0010f58:	e28dd008 	add	sp, sp, #8
e0010f5c:	e12fff1e 	bx	lr

e0010f60 <lookupPDSlot>:
e0010f60:	e1a01a21 	lsr	r1, r1, #20
e0010f64:	e0800101 	add	r0, r0, r1, lsl #2
e0010f68:	e12fff1e 	bx	lr

e0010f6c <lookupPTSlot>:
e0010f6c:	e1a03a22 	lsr	r3, r2, #20
e0010f70:	e7913103 	ldr	r3, [r1, r3, lsl #2]
e0010f74:	e2031003 	and	r1, r3, #3
e0010f78:	e3510001 	cmp	r1, #1
e0010f7c:	1a000008 	bne	e0010fa4 <lookupPTSlot+0x38>
e0010f80:	e3a01000 	mov	r1, #0
e0010f84:	e5801000 	str	r1, [r0]
e0010f88:	e3c33fff 	bic	r3, r3, #1020	; 0x3fc
e0010f8c:	e3c33003 	bic	r3, r3, #3
e0010f90:	e283320d 	add	r3, r3, #-805306368	; 0xd0000000
e0010f94:	e7e72652 	ubfx	r2, r2, #12, #8
e0010f98:	e0833102 	add	r3, r3, r2, lsl #2
e0010f9c:	e5803004 	str	r3, [r0, #4]
e0010fa0:	e12fff1e 	bx	lr
e0010fa4:	e3093024 	movw	r3, #36900	; 0x9024
e0010fa8:	e34e3002 	movt	r3, #57346	; 0xe002
e0010fac:	e3a02051 	mov	r2, #81	; 0x51
e0010fb0:	e5832000 	str	r2, [r3]
e0010fb4:	e3a02000 	mov	r2, #0
e0010fb8:	e5832004 	str	r2, [r3, #4]
e0010fbc:	e3a03002 	mov	r3, #2
e0010fc0:	e5803000 	str	r3, [r0]
e0010fc4:	e5802004 	str	r2, [r0, #4]
e0010fc8:	e12fff1e 	bx	lr

e0010fcc <createSafeMappingEntries_PTE>:
e0010fcc:	e92d41f0 	push	{r4, r5, r6, r7, r8, lr}
e0010fd0:	e24dd008 	sub	sp, sp, #8
e0010fd4:	e1a04000 	mov	r4, r0
e0010fd8:	e1a05001 	mov	r5, r1
e0010fdc:	e1a07002 	mov	r7, r2
e0010fe0:	e59d8024 	ldr	r8, [sp, #36]	; 0x24
e0010fe4:	e3530000 	cmp	r3, #0
e0010fe8:	0a000025 	beq	e0011084 <createSafeMappingEntries_PTE+0xb8>
e0010fec:	e3530001 	cmp	r3, #1
e0010ff0:	1a000073 	bne	e00111c4 <createSafeMappingEntries_PTE+0x1f8>
e0010ff4:	e7e06158 	ubfx	r6, r8, #2, #1
e0010ff8:	e59d0020 	ldr	r0, [sp, #32]
e0010ffc:	ebfffe1e 	bl	e001087c <APFromVMRights>
e0011000:	e3180001 	tst	r8, #1
e0011004:	13053805 	movwne	r3, #22533	; 0x5805
e0011008:	03003c01 	movweq	r3, #3073	; 0xc01
e001100c:	e1833786 	orr	r3, r3, r6, lsl #15
e0011010:	e1a05825 	lsr	r5, r5, #16
e0011014:	e1a05805 	lsl	r5, r5, #16
e0011018:	e1835005 	orr	r5, r3, r5
e001101c:	e1a00200 	lsl	r0, r0, #4
e0011020:	e2000030 	and	r0, r0, #48	; 0x30
e0011024:	e1855000 	orr	r5, r5, r0
e0011028:	e1a02007 	mov	r2, r7
e001102c:	e59d1028 	ldr	r1, [sp, #40]	; 0x28
e0011030:	e1a0000d 	mov	r0, sp
e0011034:	ebffffcc 	bl	e0010f6c <lookupPTSlot>
e0011038:	e59d1004 	ldr	r1, [sp, #4]
e001103c:	e59d3000 	ldr	r3, [sp]
e0011040:	e3530000 	cmp	r3, #0
e0011044:	02413004 	subeq	r3, r1, #4
e0011048:	0281003c 	addeq	r0, r1, #60	; 0x3c
e001104c:	0a000045 	beq	e0011168 <createSafeMappingEntries_PTE+0x19c>
e0011050:	e3093030 	movw	r3, #36912	; 0x9030
e0011054:	e34e3002 	movt	r3, #57346	; 0xe002
e0011058:	e3a02006 	mov	r2, #6
e001105c:	e5832018 	str	r2, [r3, #24]
e0011060:	e3a02000 	mov	r2, #0
e0011064:	e5832014 	str	r2, [r3, #20]
e0011068:	e3a03003 	mov	r3, #3
e001106c:	e5843000 	str	r3, [r4]
e0011070:	e5845004 	str	r5, [r4, #4]
e0011074:	e5842008 	str	r2, [r4, #8]
e0011078:	e3a03010 	mov	r3, #16
e001107c:	e584300c 	str	r3, [r4, #12]
e0011080:	ea000045 	b	e001119c <createSafeMappingEntries_PTE+0x1d0>
e0011084:	e7e06158 	ubfx	r6, r8, #2, #1
e0011088:	e59d0020 	ldr	r0, [sp, #32]
e001108c:	ebfffdfa 	bl	e001087c <APFromVMRights>
e0011090:	e3180001 	tst	r8, #1
e0011094:	0a00001b 	beq	e0011108 <createSafeMappingEntries_PTE+0x13c>
e0011098:	e3863d25 	orr	r3, r6, #2368	; 0x940
e001109c:	e3833006 	orr	r3, r3, #6
e00110a0:	e3c55eff 	bic	r5, r5, #4080	; 0xff0
e00110a4:	e3c5500f 	bic	r5, r5, #15
e00110a8:	e1833005 	orr	r3, r3, r5
e00110ac:	e1a05200 	lsl	r5, r0, #4
e00110b0:	e2055030 	and	r5, r5, #48	; 0x30
e00110b4:	e1835005 	orr	r5, r3, r5
e00110b8:	e1a02007 	mov	r2, r7
e00110bc:	e59d1028 	ldr	r1, [sp, #40]	; 0x28
e00110c0:	e1a0000d 	mov	r0, sp
e00110c4:	ebffffa8 	bl	e0010f6c <lookupPTSlot>
e00110c8:	e59d3004 	ldr	r3, [sp, #4]
e00110cc:	e59d2000 	ldr	r2, [sp]
e00110d0:	e3520000 	cmp	r2, #0
e00110d4:	1a000014 	bne	e001112c <createSafeMappingEntries_PTE+0x160>
e00110d8:	e5932000 	ldr	r2, [r3]
e00110dc:	e3120002 	tst	r2, #2
e00110e0:	1a000001 	bne	e00110ec <createSafeMappingEntries_PTE+0x120>
e00110e4:	e3120001 	tst	r2, #1
e00110e8:	1a000036 	bne	e00111c8 <createSafeMappingEntries_PTE+0x1fc>
e00110ec:	e3a02000 	mov	r2, #0
e00110f0:	e5842000 	str	r2, [r4]
e00110f4:	e5845004 	str	r5, [r4, #4]
e00110f8:	e5843008 	str	r3, [r4, #8]
e00110fc:	e3a03001 	mov	r3, #1
e0011100:	e584300c 	str	r3, [r4, #12]
e0011104:	ea000024 	b	e001119c <createSafeMappingEntries_PTE+0x1d0>
e0011108:	e3863b03 	orr	r3, r6, #3072	; 0xc00
e001110c:	e3833002 	orr	r3, r3, #2
e0011110:	e3c55eff 	bic	r5, r5, #4080	; 0xff0
e0011114:	e3c5500f 	bic	r5, r5, #15
e0011118:	e1835005 	orr	r5, r3, r5
e001111c:	e1a00200 	lsl	r0, r0, #4
e0011120:	e2000030 	and	r0, r0, #48	; 0x30
e0011124:	e1855000 	orr	r5, r5, r0
e0011128:	eaffffe2 	b	e00110b8 <createSafeMappingEntries_PTE+0xec>
e001112c:	e3093030 	movw	r3, #36912	; 0x9030
e0011130:	e34e3002 	movt	r3, #57346	; 0xe002
e0011134:	e3a02006 	mov	r2, #6
e0011138:	e5832018 	str	r2, [r3, #24]
e001113c:	e3a02000 	mov	r2, #0
e0011140:	e5832014 	str	r2, [r3, #20]
e0011144:	e3a03003 	mov	r3, #3
e0011148:	e5843000 	str	r3, [r4]
e001114c:	e5845004 	str	r5, [r4, #4]
e0011150:	e5842008 	str	r2, [r4, #8]
e0011154:	e3a03001 	mov	r3, #1
e0011158:	e584300c 	str	r3, [r4, #12]
e001115c:	ea00000e 	b	e001119c <createSafeMappingEntries_PTE+0x1d0>
e0011160:	e1530000 	cmp	r3, r0
e0011164:	0a00000f 	beq	e00111a8 <createSafeMappingEntries_PTE+0x1dc>
e0011168:	e5b32004 	ldr	r2, [r3, #4]!
e001116c:	e3120002 	tst	r2, #2
e0011170:	0afffffa 	beq	e0011160 <createSafeMappingEntries_PTE+0x194>
e0011174:	e3093030 	movw	r3, #36912	; 0x9030
e0011178:	e34e3002 	movt	r3, #57346	; 0xe002
e001117c:	e3a02008 	mov	r2, #8
e0011180:	e5832018 	str	r2, [r3, #24]
e0011184:	e3a03003 	mov	r3, #3
e0011188:	e5843000 	str	r3, [r4]
e001118c:	e5845004 	str	r5, [r4, #4]
e0011190:	e5841008 	str	r1, [r4, #8]
e0011194:	e3a03010 	mov	r3, #16
e0011198:	e584300c 	str	r3, [r4, #12]
e001119c:	e1a00004 	mov	r0, r4
e00111a0:	e28dd008 	add	sp, sp, #8
e00111a4:	e8bd81f0 	pop	{r4, r5, r6, r7, r8, pc}
e00111a8:	e3a03000 	mov	r3, #0
e00111ac:	e5843000 	str	r3, [r4]
e00111b0:	e5845004 	str	r5, [r4, #4]
e00111b4:	e5841008 	str	r1, [r4, #8]
e00111b8:	e3a03010 	mov	r3, #16
e00111bc:	e584300c 	str	r3, [r4, #12]
e00111c0:	eafffff5 	b	e001119c <createSafeMappingEntries_PTE+0x1d0>
e00111c4:	ebfffda9 	bl	e0010870 <halt>
e00111c8:	e3092030 	movw	r2, #36912	; 0x9030
e00111cc:	e34e2002 	movt	r2, #57346	; 0xe002
e00111d0:	e3a01008 	mov	r1, #8
e00111d4:	e5821018 	str	r1, [r2, #24]
e00111d8:	e3a02003 	mov	r2, #3
e00111dc:	e5842000 	str	r2, [r4]
e00111e0:	e5845004 	str	r5, [r4, #4]
e00111e4:	e5843008 	str	r3, [r4, #8]
e00111e8:	e3a03001 	mov	r3, #1
e00111ec:	e584300c 	str	r3, [r4, #12]
e00111f0:	eaffffe9 	b	e001119c <createSafeMappingEntries_PTE+0x1d0>

e00111f4 <isValidVTableRoot>:
e00111f4:	e24dd008 	sub	sp, sp, #8
e00111f8:	e28d3008 	add	r3, sp, #8
e00111fc:	e9030003 	stmdb	r3, {r0, r1}
e0011200:	e59d0000 	ldr	r0, [sp]
e0011204:	e200300e 	and	r3, r0, #14
e0011208:	e353000e 	cmp	r3, #14
e001120c:	1200300f 	andne	r3, r0, #15
e0011210:	06ef3070 	uxtbeq	r3, r0
e0011214:	e3530009 	cmp	r3, #9
e0011218:	07e00250 	ubfxeq	r0, r0, #4, #1
e001121c:	13a00000 	movne	r0, #0
e0011220:	e28dd008 	add	sp, sp, #8
e0011224:	e12fff1e 	bx	lr

e0011228 <isIOSpaceFrameCap>:
e0011228:	e24dd008 	sub	sp, sp, #8
e001122c:	e28d3008 	add	r3, sp, #8
e0011230:	e9030003 	stmdb	r3, {r0, r1}
e0011234:	e3a00000 	mov	r0, #0
e0011238:	e28dd008 	add	sp, sp, #8
e001123c:	e12fff1e 	bx	lr

e0011240 <pageTableMapped>:
e0011240:	e92d4030 	push	{r4, r5, lr}
e0011244:	e24dd00c 	sub	sp, sp, #12
e0011248:	e1a04001 	mov	r4, r1
e001124c:	e1a05002 	mov	r5, r2
e0011250:	e1a01000 	mov	r1, r0
e0011254:	e1a0000d 	mov	r0, sp
e0011258:	ebfffe3c 	bl	e0010b50 <findPDForASID>
e001125c:	e59d0004 	ldr	r0, [sp, #4]
e0011260:	e59d3000 	ldr	r3, [sp]
e0011264:	e3530000 	cmp	r3, #0
e0011268:	1a00000b 	bne	e001129c <pageTableMapped+0x5c>
e001126c:	e1a04a24 	lsr	r4, r4, #20
e0011270:	e7903104 	ldr	r3, [r0, r4, lsl #2]
e0011274:	e2032003 	and	r2, r3, #3
e0011278:	e3520001 	cmp	r2, #1
e001127c:	1a000008 	bne	e00112a4 <pageTableMapped+0x64>
e0011280:	e3c33fff 	bic	r3, r3, #1020	; 0x3fc
e0011284:	e3c33003 	bic	r3, r3, #3
e0011288:	e283320d 	add	r3, r3, #-805306368	; 0xd0000000
e001128c:	e1550003 	cmp	r5, r3
e0011290:	13a00000 	movne	r0, #0
e0011294:	e28dd00c 	add	sp, sp, #12
e0011298:	e8bd8030 	pop	{r4, r5, pc}
e001129c:	e3a00000 	mov	r0, #0
e00112a0:	eafffffb 	b	e0011294 <pageTableMapped+0x54>
e00112a4:	e3a00000 	mov	r0, #0
e00112a8:	eafffff9 	b	e0011294 <pageTableMapped+0x54>

e00112ac <findFreeHWASID>:
e00112ac:	e3013b30 	movw	r3, #6960	; 0x1b30
e00112b0:	e34e3003 	movt	r3, #57347	; 0xe003
e00112b4:	e5d3c000 	ldrb	ip, [r3]
e00112b8:	e3013730 	movw	r3, #5936	; 0x1730
e00112bc:	e34e3003 	movt	r3, #57347	; 0xe003
e00112c0:	e793110c 	ldr	r1, [r3, ip, lsl #2]
e00112c4:	e3510000 	cmp	r1, #0
e00112c8:	0a00001f 	beq	e001134c <findFreeHWASID+0xa0>
e00112cc:	e28c0001 	add	r0, ip, #1
e00112d0:	e6ef0070 	uxtb	r0, r0
e00112d4:	e1a02003 	mov	r2, r3
e00112d8:	e7923100 	ldr	r3, [r2, r0, lsl #2]
e00112dc:	e3530000 	cmp	r3, #0
e00112e0:	012fff1e 	bxeq	lr
e00112e4:	e2800001 	add	r0, r0, #1
e00112e8:	e6ef0070 	uxtb	r0, r0
e00112ec:	e150000c 	cmp	r0, ip
e00112f0:	1afffff8 	bne	e00112d8 <findFreeHWASID+0x2c>
e00112f4:	e30932d8 	movw	r3, #37592	; 0x92d8
e00112f8:	e34e3002 	movt	r3, #57346	; 0xe002
e00112fc:	e1a02521 	lsr	r2, r1, #10
e0011300:	e7933102 	ldr	r3, [r3, r2, lsl #2]
e0011304:	e7e91051 	ubfx	r1, r1, #0, #10
e0011308:	e7933101 	ldr	r3, [r3, r1, lsl #2]
e001130c:	e2833a03 	add	r3, r3, #12288	; 0x3000
e0011310:	e3a02000 	mov	r2, #0
e0011314:	e5832fc0 	str	r2, [r3, #4032]	; 0xfc0
e0011318:	f57ff04f 	dsb	sy
e001131c:	ee080f57 	mcr	15, 0, r0, cr8, cr7, {2}
e0011320:	f57ff04f 	dsb	sy
e0011324:	f57ff06f 	isb	sy
e0011328:	e3013730 	movw	r3, #5936	; 0x1730
e001132c:	e34e3003 	movt	r3, #57347	; 0xe003
e0011330:	e783210c 	str	r2, [r3, ip, lsl #2]
e0011334:	e3013b30 	movw	r3, #6960	; 0x1b30
e0011338:	e34e3003 	movt	r3, #57347	; 0xe003
e001133c:	e5d32000 	ldrb	r2, [r3]
e0011340:	e2822001 	add	r2, r2, #1
e0011344:	e5c32000 	strb	r2, [r3]
e0011348:	e12fff1e 	bx	lr
e001134c:	e1a0000c 	mov	r0, ip
e0011350:	e12fff1e 	bx	lr

e0011354 <getHWASID>:
e0011354:	e92d4010 	push	{r4, lr}
e0011358:	e1a04000 	mov	r4, r0
e001135c:	ebfffd11 	bl	e00107a8 <loadHWASID>
e0011360:	e3100502 	tst	r0, #8388608	; 0x800000
e0011364:	0a000001 	beq	e0011370 <getHWASID+0x1c>
e0011368:	e1a00c20 	lsr	r0, r0, #24
e001136c:	e8bd8010 	pop	{r4, pc}
e0011370:	ebffffcd 	bl	e00112ac <findFreeHWASID>
e0011374:	e30932d8 	movw	r3, #37592	; 0x92d8
e0011378:	e34e3002 	movt	r3, #57346	; 0xe002
e001137c:	e1a02524 	lsr	r2, r4, #10
e0011380:	e7933102 	ldr	r3, [r3, r2, lsl #2]
e0011384:	e7e92054 	ubfx	r2, r4, #0, #10
e0011388:	e7933102 	ldr	r3, [r3, r2, lsl #2]
e001138c:	e2833a03 	add	r3, r3, #12288	; 0x3000
e0011390:	e1a02c00 	lsl	r2, r0, #24
e0011394:	e3822502 	orr	r2, r2, #8388608	; 0x800000
e0011398:	e5832fc0 	str	r2, [r3, #4032]	; 0xfc0
e001139c:	e3013730 	movw	r3, #5936	; 0x1730
e00113a0:	e34e3003 	movt	r3, #57347	; 0xe003
e00113a4:	e7834100 	str	r4, [r3, r0, lsl #2]
e00113a8:	e8bd8010 	pop	{r4, pc}

e00113ac <setVMRoot>:
e00113ac:	e3c00f7f 	bic	r0, r0, #508	; 0x1fc
e00113b0:	e3c00003 	bic	r0, r0, #3
e00113b4:	e2801010 	add	r1, r0, #16
e00113b8:	e5903010 	ldr	r3, [r0, #16]
e00113bc:	e203200e 	and	r2, r3, #14
e00113c0:	e352000e 	cmp	r2, #14
e00113c4:	1203200f 	andne	r2, r3, #15
e00113c8:	06ef2073 	uxtbeq	r2, r3
e00113cc:	e3520009 	cmp	r2, #9
e00113d0:	0a000005 	beq	e00113ec <setVMRoot+0x40>
e00113d4:	f57ff04f 	dsb	sy
e00113d8:	e59f30a4 	ldr	r3, [pc, #164]	; e0011484 <setVMRoot+0xd8>
e00113dc:	e3833018 	orr	r3, r3, #24
e00113e0:	ee023f10 	mcr	15, 0, r3, cr2, cr0, {0}
e00113e4:	f57ff06f 	isb	sy
e00113e8:	e12fff1e 	bx	lr
e00113ec:	e3130010 	tst	r3, #16
e00113f0:	0afffff7 	beq	e00113d4 <setVMRoot+0x28>
e00113f4:	e92d4030 	push	{r4, r5, lr}
e00113f8:	e24dd00c 	sub	sp, sp, #12
e00113fc:	e3c34dff 	bic	r4, r3, #16320	; 0x3fc0
e0011400:	e3c4403f 	bic	r4, r4, #63	; 0x3f
e0011404:	e5915004 	ldr	r5, [r1, #4]
e0011408:	e7f05055 	ubfx	r5, r5, #0, #17
e001140c:	e1a01005 	mov	r1, r5
e0011410:	e1a0000d 	mov	r0, sp
e0011414:	ebfffdcd 	bl	e0010b50 <findPDForASID>
e0011418:	e59d3000 	ldr	r3, [sp]
e001141c:	e3530000 	cmp	r3, #0
e0011420:	1a000011 	bne	e001146c <setVMRoot+0xc0>
e0011424:	e59d3004 	ldr	r3, [sp, #4]
e0011428:	e1530004 	cmp	r3, r4
e001142c:	1a00000e 	bne	e001146c <setVMRoot+0xc0>
e0011430:	e1a00005 	mov	r0, r5
e0011434:	ebffffc6 	bl	e0011354 <getHWASID>
e0011438:	f57ff04f 	dsb	sy
e001143c:	e59f3040 	ldr	r3, [pc, #64]	; e0011484 <setVMRoot+0xd8>
e0011440:	e3833018 	orr	r3, r3, #24
e0011444:	ee023f10 	mcr	15, 0, r3, cr2, cr0, {0}
e0011448:	f57ff06f 	isb	sy
e001144c:	ee0d0f30 	mcr	15, 0, r0, cr13, cr0, {1}
e0011450:	f57ff06f 	isb	sy
e0011454:	e2843203 	add	r3, r4, #805306368	; 0x30000000
e0011458:	e3833018 	orr	r3, r3, #24
e001145c:	ee023f10 	mcr	15, 0, r3, cr2, cr0, {0}
e0011460:	f57ff06f 	isb	sy
e0011464:	e28dd00c 	add	sp, sp, #12
e0011468:	e8bd8030 	pop	{r4, r5, pc}
e001146c:	f57ff04f 	dsb	sy
e0011470:	e59f300c 	ldr	r3, [pc, #12]	; e0011484 <setVMRoot+0xd8>
e0011474:	e3833018 	orr	r3, r3, #24
e0011478:	ee023f10 	mcr	15, 0, r3, cr2, cr0, {0}
e001147c:	f57ff06f 	isb	sy
e0011480:	eafffff7 	b	e0011464 <setVMRoot+0xb8>
e0011484:	10024000 	.word	0x10024000

e0011488 <Arch_switchToThread>:
e0011488:	e52de004 	push	{lr}		; (str lr, [sp, #-4]!)
e001148c:	e24dd00c 	sub	sp, sp, #12
e0011490:	ebffffc5 	bl	e00113ac <setVMRoot>
e0011494:	e28d3004 	add	r3, sp, #4
e0011498:	e1830f91 	strex	r0, r1, [r3]
e001149c:	e28dd00c 	add	sp, sp, #12
e00114a0:	e49df004 	pop	{pc}		; (ldr pc, [sp], #4)

e00114a4 <Arch_switchToIdleThread>:
e00114a4:	e92d4010 	push	{r4, lr}
e00114a8:	e3093020 	movw	r3, #36896	; 0x9020
e00114ac:	e34e3002 	movt	r3, #57346	; 0xe002
e00114b0:	e5930000 	ldr	r0, [r3]
e00114b4:	ebffffbc 	bl	e00113ac <setVMRoot>
e00114b8:	e8bd8010 	pop	{r4, pc}

e00114bc <setVMRootForFlush>:
e00114bc:	e92d4010 	push	{r4, lr}
e00114c0:	e1a04000 	mov	r4, r0
e00114c4:	e3012b34 	movw	r2, #6964	; 0x1b34
e00114c8:	e34e2003 	movt	r2, #57347	; 0xe003
e00114cc:	e5922000 	ldr	r2, [r2]
e00114d0:	e3c22f7f 	bic	r2, r2, #508	; 0x1fc
e00114d4:	e3c22003 	bic	r2, r2, #3
e00114d8:	e5922010 	ldr	r2, [r2, #16]
e00114dc:	e202000e 	and	r0, r2, #14
e00114e0:	e350000e 	cmp	r0, #14
e00114e4:	1202000f 	andne	r0, r2, #15
e00114e8:	06ef0072 	uxtbeq	r0, r2
e00114ec:	e3500009 	cmp	r0, #9
e00114f0:	1a000005 	bne	e001150c <setVMRootForFlush+0x50>
e00114f4:	e3120010 	tst	r2, #16
e00114f8:	0a000003 	beq	e001150c <setVMRootForFlush+0x50>
e00114fc:	e3c22dff 	bic	r2, r2, #16320	; 0x3fc0
e0011500:	e3c2203f 	bic	r2, r2, #63	; 0x3f
e0011504:	e1540002 	cmp	r4, r2
e0011508:	0a000010 	beq	e0011550 <setVMRootForFlush+0x94>
e001150c:	e1a00001 	mov	r0, r1
e0011510:	ebffff8f 	bl	e0011354 <getHWASID>
e0011514:	f57ff04f 	dsb	sy
e0011518:	e59f3038 	ldr	r3, [pc, #56]	; e0011558 <setVMRootForFlush+0x9c>
e001151c:	e3833018 	orr	r3, r3, #24
e0011520:	ee023f10 	mcr	15, 0, r3, cr2, cr0, {0}
e0011524:	f57ff06f 	isb	sy
e0011528:	ee0d0f30 	mcr	15, 0, r0, cr13, cr0, {1}
e001152c:	f57ff06f 	isb	sy
e0011530:	e2840203 	add	r0, r4, #805306368	; 0x30000000
e0011534:	e3c00d7f 	bic	r0, r0, #8128	; 0x1fc0
e0011538:	e3c0003f 	bic	r0, r0, #63	; 0x3f
e001153c:	e3800018 	orr	r0, r0, #24
e0011540:	ee020f10 	mcr	15, 0, r0, cr2, cr0, {0}
e0011544:	f57ff06f 	isb	sy
e0011548:	e3a00001 	mov	r0, #1
e001154c:	e8bd8010 	pop	{r4, pc}
e0011550:	e3a00000 	mov	r0, #0
e0011554:	e8bd8010 	pop	{r4, pc}
e0011558:	10024000 	.word	0x10024000

e001155c <copyGlobalMappings>:
e001155c:	e3002e01 	movw	r2, #3585	; 0xe01
e0011560:	e3a03c0e 	mov	r3, #3584	; 0xe00
e0011564:	e304c000 	movw	ip, #16384	; 0x4000
e0011568:	e34ec002 	movt	ip, #57346	; 0xe002
e001156c:	ea000001 	b	e0011578 <copyGlobalMappings+0x1c>
e0011570:	e2833001 	add	r3, r3, #1
e0011574:	e2822001 	add	r2, r2, #1
e0011578:	e3530eff 	cmp	r3, #4080	; 0xff0
e001157c:	0afffffb 	beq	e0011570 <copyGlobalMappings+0x14>
e0011580:	e79c1103 	ldr	r1, [ip, r3, lsl #2]
e0011584:	e7801103 	str	r1, [r0, r3, lsl #2]
e0011588:	e3520a01 	cmp	r2, #4096	; 0x1000
e001158c:	3afffff7 	bcc	e0011570 <copyGlobalMappings+0x14>
e0011590:	e12fff1e 	bx	lr

e0011594 <handleVMFault>:
e0011594:	e3510000 	cmp	r1, #0
e0011598:	0a00000d 	beq	e00115d4 <handleVMFault+0x40>
e001159c:	e3510001 	cmp	r1, #1
e00115a0:	1a000009 	bne	e00115cc <handleVMFault+0x38>
e00115a4:	e5901044 	ldr	r1, [r0, #68]	; 0x44
e00115a8:	ee153f30 	mrc	15, 0, r3, cr5, cr0, {1}
e00115ac:	e3082000 	movw	r2, #32768	; 0x8000
e00115b0:	e34e2002 	movt	r2, #57346	; 0xe002
e00115b4:	e1a03903 	lsl	r3, r3, #18
e00115b8:	e3833802 	orr	r3, r3, #131072	; 0x20000
e00115bc:	e3833005 	orr	r3, r3, #5
e00115c0:	e5823000 	str	r3, [r2]
e00115c4:	e5821004 	str	r1, [r2, #4]
e00115c8:	ea000009 	b	e00115f4 <handleVMFault+0x60>
e00115cc:	e92d4010 	push	{r4, lr}
e00115d0:	ebfffca6 	bl	e0010870 <halt>
e00115d4:	ee161f10 	mrc	15, 0, r1, cr6, cr0, {0}
e00115d8:	ee153f10 	mrc	15, 0, r3, cr5, cr0, {0}
e00115dc:	e3082000 	movw	r2, #32768	; 0x8000
e00115e0:	e34e2002 	movt	r2, #57346	; 0xe002
e00115e4:	e1a03903 	lsl	r3, r3, #18
e00115e8:	e3833005 	orr	r3, r3, #5
e00115ec:	e5823000 	str	r3, [r2]
e00115f0:	e5821004 	str	r1, [r2, #4]
e00115f4:	e3a00001 	mov	r0, #1
e00115f8:	e12fff1e 	bx	lr

e00115fc <flushPage>:
e00115fc:	e92d4070 	push	{r4, r5, r6, lr}
e0011600:	e1a00001 	mov	r0, r1
e0011604:	e1a05002 	mov	r5, r2
e0011608:	e1a04003 	mov	r4, r3
e001160c:	e1a01002 	mov	r1, r2
e0011610:	ebffffa9 	bl	e00114bc <setVMRootForFlush>
e0011614:	e1a06000 	mov	r6, r0
e0011618:	e1a00005 	mov	r0, r5
e001161c:	ebfffc61 	bl	e00107a8 <loadHWASID>
e0011620:	e3100502 	tst	r0, #8388608	; 0x800000
e0011624:	08bd8070 	popeq	{r4, r5, r6, pc}
e0011628:	f57ff04f 	dsb	sy
e001162c:	e3c43eff 	bic	r3, r4, #4080	; 0xff0
e0011630:	e3c3300f 	bic	r3, r3, #15
e0011634:	e1833c20 	orr	r3, r3, r0, lsr #24
e0011638:	ee083f37 	mcr	15, 0, r3, cr8, cr7, {1}
e001163c:	f57ff04f 	dsb	sy
e0011640:	f57ff06f 	isb	sy
e0011644:	e3560000 	cmp	r6, #0
e0011648:	08bd8070 	popeq	{r4, r5, r6, pc}
e001164c:	e3013b34 	movw	r3, #6964	; 0x1b34
e0011650:	e34e3003 	movt	r3, #57347	; 0xe003
e0011654:	e5930000 	ldr	r0, [r3]
e0011658:	ebffff53 	bl	e00113ac <setVMRoot>
e001165c:	e8bd8070 	pop	{r4, r5, r6, pc}

e0011660 <flushTable>:
e0011660:	e92d4070 	push	{r4, r5, r6, lr}
e0011664:	e1a04001 	mov	r4, r1
e0011668:	ebffff93 	bl	e00114bc <setVMRootForFlush>
e001166c:	e1a05000 	mov	r5, r0
e0011670:	e1a00004 	mov	r0, r4
e0011674:	ebfffc4b 	bl	e00107a8 <loadHWASID>
e0011678:	e3100502 	tst	r0, #8388608	; 0x800000
e001167c:	08bd8070 	popeq	{r4, r5, r6, pc}
e0011680:	f57ff04f 	dsb	sy
e0011684:	e1a00c20 	lsr	r0, r0, #24
e0011688:	ee080f57 	mcr	15, 0, r0, cr8, cr7, {2}
e001168c:	f57ff04f 	dsb	sy
e0011690:	f57ff06f 	isb	sy
e0011694:	e3550000 	cmp	r5, #0
e0011698:	08bd8070 	popeq	{r4, r5, r6, pc}
e001169c:	e3013b34 	movw	r3, #6964	; 0x1b34
e00116a0:	e34e3003 	movt	r3, #57347	; 0xe003
e00116a4:	e5930000 	ldr	r0, [r3]
e00116a8:	ebffff3f 	bl	e00113ac <setVMRoot>
e00116ac:	e8bd8070 	pop	{r4, r5, r6, pc}

e00116b0 <unmapPageTable>:
e00116b0:	e92d4070 	push	{r4, r5, r6, lr}
e00116b4:	e1a05000 	mov	r5, r0
e00116b8:	e1a04001 	mov	r4, r1
e00116bc:	e1a06002 	mov	r6, r2
e00116c0:	ebfffede 	bl	e0011240 <pageTableMapped>
e00116c4:	e3500000 	cmp	r0, #0
e00116c8:	08bd8070 	popeq	{r4, r5, r6, pc}
e00116cc:	e1a03a24 	lsr	r3, r4, #20
e00116d0:	e0802103 	add	r2, r0, r3, lsl #2
e00116d4:	e3a01000 	mov	r1, #0
e00116d8:	e7801103 	str	r1, [r0, r3, lsl #2]
e00116dc:	ee072f3b 	mcr	15, 0, r2, cr7, cr11, {1}
e00116e0:	f57ff05f 	dmb	sy
e00116e4:	e1a03006 	mov	r3, r6
e00116e8:	e1a02004 	mov	r2, r4
e00116ec:	e1a01005 	mov	r1, r5
e00116f0:	ebffffda 	bl	e0011660 <flushTable>
e00116f4:	e8bd8070 	pop	{r4, r5, r6, pc}

e00116f8 <invalidateTLBByASID>:
e00116f8:	e92d4010 	push	{r4, lr}
e00116fc:	ebfffc29 	bl	e00107a8 <loadHWASID>
e0011700:	e3100502 	tst	r0, #8388608	; 0x800000
e0011704:	08bd8010 	popeq	{r4, pc}
e0011708:	f57ff04f 	dsb	sy
e001170c:	e1a00c20 	lsr	r0, r0, #24
e0011710:	ee080f57 	mcr	15, 0, r0, cr8, cr7, {2}
e0011714:	f57ff04f 	dsb	sy
e0011718:	f57ff06f 	isb	sy
e001171c:	e8bd8010 	pop	{r4, pc}

e0011720 <getRestartPC>:
e0011720:	e5900044 	ldr	r0, [r0, #68]	; 0x44
e0011724:	e12fff1e 	bx	lr

e0011728 <setNextPC>:
e0011728:	e580103c 	str	r1, [r0, #60]	; 0x3c
e001172c:	e12fff1e 	bx	lr

e0011730 <Arch_isFrameType>:
e0011730:	e2400005 	sub	r0, r0, #5
e0011734:	e3500003 	cmp	r0, #3
e0011738:	83a00000 	movhi	r0, #0
e001173c:	93a00001 	movls	r0, #1
e0011740:	e12fff1e 	bx	lr

e0011744 <Arch_deriveCap>:
e0011744:	e52de004 	push	{lr}		; (str lr, [sp, #-4]!)
e0011748:	e24dd00c 	sub	sp, sp, #12
e001174c:	e28d1008 	add	r1, sp, #8
e0011750:	e901000c 	stmdb	r1, {r2, r3}
e0011754:	e59dc004 	ldr	ip, [sp, #4]
e0011758:	e59d3000 	ldr	r3, [sp]
e001175c:	e203200e 	and	r2, r3, #14
e0011760:	e352000e 	cmp	r2, #14
e0011764:	1203200f 	andne	r2, r3, #15
e0011768:	06ef2073 	uxtbeq	r2, r3
e001176c:	e2422001 	sub	r2, r2, #1
e0011770:	e352000a 	cmp	r2, #10
e0011774:	979ff102 	ldrls	pc, [pc, r2, lsl #2]
e0011778:	ea000039 	b	e0011864 <Arch_deriveCap+0x120>
e001177c:	e0011814 	.word	0xe0011814
e0011780:	e0011864 	.word	0xe0011864
e0011784:	e0011830 	.word	0xe0011830
e0011788:	e0011864 	.word	0xe0011864
e001178c:	e0011850 	.word	0xe0011850
e0011790:	e0011864 	.word	0xe0011864
e0011794:	e00117a8 	.word	0xe00117a8
e0011798:	e0011864 	.word	0xe0011864
e001179c:	e00117e0 	.word	0xe00117e0
e00117a0:	e0011864 	.word	0xe0011864
e00117a4:	e0011850 	.word	0xe0011850
e00117a8:	e7e01edc 	ubfx	r1, ip, #29, #1
e00117ac:	e3510000 	cmp	r1, #0
e00117b0:	03093030 	movweq	r3, #36912	; 0x9030
e00117b4:	034e3002 	movteq	r3, #57346	; 0xe002
e00117b8:	03a02003 	moveq	r2, #3
e00117bc:	05832018 	streq	r2, [r3, #24]
e00117c0:	01a0c001 	moveq	ip, r1
e00117c4:	03a03000 	moveq	r3, #0
e00117c8:	13a02000 	movne	r2, #0
e00117cc:	e5802000 	str	r2, [r0]
e00117d0:	e5803004 	str	r3, [r0, #4]
e00117d4:	e580c008 	str	ip, [r0, #8]
e00117d8:	e28dd00c 	add	sp, sp, #12
e00117dc:	e49df004 	pop	{pc}		; (ldr pc, [sp], #4)
e00117e0:	e7e01253 	ubfx	r1, r3, #4, #1
e00117e4:	e3510000 	cmp	r1, #0
e00117e8:	03093030 	movweq	r3, #36912	; 0x9030
e00117ec:	034e3002 	movteq	r3, #57346	; 0xe002
e00117f0:	03a02003 	moveq	r2, #3
e00117f4:	05832018 	streq	r2, [r3, #24]
e00117f8:	01a0c001 	moveq	ip, r1
e00117fc:	03a03000 	moveq	r3, #0
e0011800:	13a02000 	movne	r2, #0
e0011804:	e5802000 	str	r2, [r0]
e0011808:	e5803004 	str	r3, [r0, #4]
e001180c:	e580c008 	str	ip, [r0, #8]
e0011810:	eafffff0 	b	e00117d8 <Arch_deriveCap+0x94>
e0011814:	e3a02000 	mov	r2, #0
e0011818:	e5802000 	str	r2, [r0]
e001181c:	e3c3347f 	bic	r3, r3, #2130706432	; 0x7f000000
e0011820:	e5803004 	str	r3, [r0, #4]
e0011824:	e7f5305c 	ubfx	r3, ip, #0, #22
e0011828:	e5803008 	str	r3, [r0, #8]
e001182c:	eaffffe9 	b	e00117d8 <Arch_deriveCap+0x94>
e0011830:	e3a02000 	mov	r2, #0
e0011834:	e5802000 	str	r2, [r0]
e0011838:	e3c3357f 	bic	r3, r3, #532676608	; 0x1fc00000
e001183c:	e5803004 	str	r3, [r0, #4]
e0011840:	e3cc35ff 	bic	r3, ip, #1069547520	; 0x3fc00000
e0011844:	e3c33603 	bic	r3, r3, #3145728	; 0x300000
e0011848:	e5803008 	str	r3, [r0, #8]
e001184c:	eaffffe1 	b	e00117d8 <Arch_deriveCap+0x94>
e0011850:	e3a02000 	mov	r2, #0
e0011854:	e5802000 	str	r2, [r0]
e0011858:	e5803004 	str	r3, [r0, #4]
e001185c:	e580c008 	str	ip, [r0, #8]
e0011860:	eaffffdc 	b	e00117d8 <Arch_deriveCap+0x94>
e0011864:	ebfffc01 	bl	e0010870 <halt>

e0011868 <Arch_updateCapData>:
e0011868:	e24dd008 	sub	sp, sp, #8
e001186c:	e1a0c000 	mov	ip, r0
e0011870:	e24d2004 	sub	r2, sp, #4
e0011874:	e5a23008 	str	r3, [r2, #8]!
e0011878:	e8920003 	ldm	r2, {r0, r1}
e001187c:	e88c0003 	stm	ip, {r0, r1}
e0011880:	e1a0000c 	mov	r0, ip
e0011884:	e28dd008 	add	sp, sp, #8
e0011888:	e12fff1e 	bx	lr

e001188c <Arch_maskCapRights>:
e001188c:	e92d4070 	push	{r4, r5, r6, lr}
e0011890:	e24dd008 	sub	sp, sp, #8
e0011894:	e1a04000 	mov	r4, r0
e0011898:	e28d0008 	add	r0, sp, #8
e001189c:	e900000c 	stmdb	r0, {r2, r3}
e00118a0:	e59d6004 	ldr	r6, [sp, #4]
e00118a4:	e59d5000 	ldr	r5, [sp]
e00118a8:	e205300e 	and	r3, r5, #14
e00118ac:	e353000e 	cmp	r3, #14
e00118b0:	1205300f 	andne	r3, r5, #15
e00118b4:	06ef3075 	uxtbeq	r3, r5
e00118b8:	e3530001 	cmp	r3, #1
e00118bc:	0a000007 	beq	e00118e0 <Arch_maskCapRights+0x54>
e00118c0:	e3530003 	cmp	r3, #3
e00118c4:	0a00000e 	beq	e0011904 <Arch_maskCapRights+0x78>
e00118c8:	e28d3008 	add	r3, sp, #8
e00118cc:	e9130003 	ldmdb	r3, {r0, r1}
e00118d0:	e8840003 	stm	r4, {r0, r1}
e00118d4:	e1a00004 	mov	r0, r4
e00118d8:	e28dd008 	add	sp, sp, #8
e00118dc:	e8bd8070 	pop	{r4, r5, r6, pc}
e00118e0:	e7e10a56 	ubfx	r0, r6, #20, #2
e00118e4:	ebfffc85 	bl	e0010b00 <maskVMRights>
e00118e8:	e5845000 	str	r5, [r4]
e00118ec:	e1a00a00 	lsl	r0, r0, #20
e00118f0:	e2000603 	and	r0, r0, #3145728	; 0x300000
e00118f4:	e3c66603 	bic	r6, r6, #3145728	; 0x300000
e00118f8:	e1806006 	orr	r6, r0, r6
e00118fc:	e5846004 	str	r6, [r4, #4]
e0011900:	eafffff3 	b	e00118d4 <Arch_maskCapRights+0x48>
e0011904:	e7e10956 	ubfx	r0, r6, #18, #2
e0011908:	ebfffc7c 	bl	e0010b00 <maskVMRights>
e001190c:	e5845000 	str	r5, [r4]
e0011910:	e1a00900 	lsl	r0, r0, #18
e0011914:	e2000703 	and	r0, r0, #786432	; 0xc0000
e0011918:	e3c66703 	bic	r6, r6, #786432	; 0xc0000
e001191c:	e1806006 	orr	r6, r0, r6
e0011920:	e5846004 	str	r6, [r4, #4]
e0011924:	eaffffea 	b	e00118d4 <Arch_maskCapRights+0x48>

e0011928 <Arch_sameRegionAs>:
e0011928:	e92d4010 	push	{r4, lr}
e001192c:	e24dd010 	sub	sp, sp, #16
e0011930:	e28dc010 	add	ip, sp, #16
e0011934:	e90c0003 	stmdb	ip, {r0, r1}
e0011938:	e1a0100d 	mov	r1, sp
e001193c:	e881000c 	stm	r1, {r2, r3}
e0011940:	e1a03002 	mov	r3, r2
e0011944:	e59d0008 	ldr	r0, [sp, #8]
e0011948:	e200200e 	and	r2, r0, #14
e001194c:	e352000e 	cmp	r2, #14
e0011950:	1200100f 	andne	r1, r0, #15
e0011954:	06ef1070 	uxtbeq	r1, r0
e0011958:	e2412001 	sub	r2, r1, #1
e001195c:	e352000a 	cmp	r2, #10
e0011960:	979ff102 	ldrls	pc, [pc, r2, lsl #2]
e0011964:	ea0000a9 	b	e0011c10 <Arch_sameRegionAs+0x2e8>
e0011968:	e0011994 	.word	0xe0011994
e001196c:	e0011c10 	.word	0xe0011c10
e0011970:	e0011994 	.word	0xe0011994
e0011974:	e0011c10 	.word	0xe0011c10
e0011978:	e0011bdc 	.word	0xe0011bdc
e001197c:	e0011c10 	.word	0xe0011c10
e0011980:	e0011b40 	.word	0xe0011b40
e0011984:	e0011c10 	.word	0xe0011c10
e0011988:	e0011b7c 	.word	0xe0011b7c
e001198c:	e0011c10 	.word	0xe0011c10
e0011990:	e0011bb8 	.word	0xe0011bb8
e0011994:	e203200e 	and	r2, r3, #14
e0011998:	e352000e 	cmp	r2, #14
e001199c:	1203c00f 	andne	ip, r3, #15
e00119a0:	06efc073 	uxtbeq	ip, r3
e00119a4:	e3cc2002 	bic	r2, ip, #2
e00119a8:	e3520001 	cmp	r2, #1
e00119ac:	1a000099 	bne	e0011c18 <Arch_sameRegionAs+0x2f0>
e00119b0:	e3510001 	cmp	r1, #1
e00119b4:	0a00000a 	beq	e00119e4 <Arch_sameRegionAs+0xbc>
e00119b8:	e3510003 	cmp	r1, #3
e00119bc:	0a000012 	beq	e0011a0c <Arch_sameRegionAs+0xe4>
e00119c0:	e35c0001 	cmp	ip, #1
e00119c4:	0a000021 	beq	e0011a50 <Arch_sameRegionAs+0x128>
e00119c8:	e35c0003 	cmp	ip, #3
e00119cc:	03a00000 	moveq	r0, #0
e00119d0:	1a000033 	bne	e0011aa4 <Arch_sameRegionAs+0x17c>
e00119d4:	e1a03503 	lsl	r3, r3, #10
e00119d8:	e3c33dff 	bic	r3, r3, #16320	; 0x3fc0
e00119dc:	e3c3303f 	bic	r3, r3, #63	; 0x3f
e00119e0:	ea00001e 	b	e0011a60 <Arch_sameRegionAs+0x138>
e00119e4:	e1a00400 	lsl	r0, r0, #8
e00119e8:	e3c00eff 	bic	r0, r0, #4080	; 0xff0
e00119ec:	e3c0000f 	bic	r0, r0, #15
e00119f0:	e35c0001 	cmp	ip, #1
e00119f4:	0a000016 	beq	e0011a54 <Arch_sameRegionAs+0x12c>
e00119f8:	e35c0003 	cmp	ip, #3
e00119fc:	13a03000 	movne	r3, #0
e0011a00:	11a02003 	movne	r2, r3
e0011a04:	1a00000a 	bne	e0011a34 <Arch_sameRegionAs+0x10c>
e0011a08:	eafffff1 	b	e00119d4 <Arch_sameRegionAs+0xac>
e0011a0c:	e1a00500 	lsl	r0, r0, #10
e0011a10:	e3c00dff 	bic	r0, r0, #16320	; 0x3fc0
e0011a14:	e3c0003f 	bic	r0, r0, #63	; 0x3f
e0011a18:	e35c0001 	cmp	ip, #1
e0011a1c:	0a00000c 	beq	e0011a54 <Arch_sameRegionAs+0x12c>
e0011a20:	e35c0003 	cmp	ip, #3
e0011a24:	159d200c 	ldrne	r2, [sp, #12]
e0011a28:	13a03000 	movne	r3, #0
e0011a2c:	0affffe8 	beq	e00119d4 <Arch_sameRegionAs+0xac>
e0011a30:	e1a02f22 	lsr	r2, r2, #30
e0011a34:	e3520003 	cmp	r2, #3
e0011a38:	979ff102 	ldrls	pc, [pc, r2, lsl #2]
e0011a3c:	ea00002a 	b	e0011aec <Arch_sameRegionAs+0x1c4>
e0011a40:	e0011a6c 	.word	0xe0011a6c
e0011a44:	e0011c20 	.word	0xe0011c20
e0011a48:	e0011ac8 	.word	0xe0011ac8
e0011a4c:	e0011c28 	.word	0xe0011c28
e0011a50:	e3a00000 	mov	r0, #0
e0011a54:	e1a03403 	lsl	r3, r3, #8
e0011a58:	e3c33eff 	bic	r3, r3, #4080	; 0xff0
e0011a5c:	e3c3300f 	bic	r3, r3, #15
e0011a60:	e59d200c 	ldr	r2, [sp, #12]
e0011a64:	e3510003 	cmp	r1, #3
e0011a68:	0afffff0 	beq	e0011a30 <Arch_sameRegionAs+0x108>
e0011a6c:	e2804eff 	add	r4, r0, #4080	; 0xff0
e0011a70:	e284400f 	add	r4, r4, #15
e0011a74:	e59d1004 	ldr	r1, [sp, #4]
e0011a78:	e35c0003 	cmp	ip, #3
e0011a7c:	13a01000 	movne	r1, #0
e0011a80:	1a000000 	bne	e0011a88 <Arch_sameRegionAs+0x160>
e0011a84:	e1a01f21 	lsr	r1, r1, #30
e0011a88:	e3510003 	cmp	r1, #3
e0011a8c:	979ff101 	ldrls	pc, [pc, r1, lsl #2]
e0011a90:	ea000025 	b	e0011b2c <Arch_sameRegionAs+0x204>
e0011a94:	e0011b30 	.word	0xe0011b30
e0011a98:	e0011af0 	.word	0xe0011af0
e0011a9c:	e0011b38 	.word	0xe0011b38
e0011aa0:	e0011b24 	.word	0xe0011b24
e0011aa4:	e59d200c 	ldr	r2, [sp, #12]
e0011aa8:	e3510003 	cmp	r1, #3
e0011aac:	03a00000 	moveq	r0, #0
e0011ab0:	01a03000 	moveq	r3, r0
e0011ab4:	0affffdd 	beq	e0011a30 <Arch_sameRegionAs+0x108>
e0011ab8:	e3a00000 	mov	r0, #0
e0011abc:	e1a03000 	mov	r3, r0
e0011ac0:	e1a02000 	mov	r2, r0
e0011ac4:	eaffffda 	b	e0011a34 <Arch_sameRegionAs+0x10c>
e0011ac8:	e3a0e014 	mov	lr, #20
e0011acc:	e2402001 	sub	r2, r0, #1
e0011ad0:	e3a01001 	mov	r1, #1
e0011ad4:	e0824e11 	add	r4, r2, r1, lsl lr
e0011ad8:	e59d1004 	ldr	r1, [sp, #4]
e0011adc:	e35c0003 	cmp	ip, #3
e0011ae0:	0affffe7 	beq	e0011a84 <Arch_sameRegionAs+0x15c>
e0011ae4:	e3a0e00c 	mov	lr, #12
e0011ae8:	ea000001 	b	e0011af4 <Arch_sameRegionAs+0x1cc>
e0011aec:	ebfffb5f 	bl	e0010870 <halt>
e0011af0:	e3a0e010 	mov	lr, #16
e0011af4:	e2431001 	sub	r1, r3, #1
e0011af8:	e3a0c001 	mov	ip, #1
e0011afc:	e0811e1c 	add	r1, r1, ip, lsl lr
e0011b00:	e1510004 	cmp	r1, r4
e0011b04:	83a02000 	movhi	r2, #0
e0011b08:	93a02001 	movls	r2, #1
e0011b0c:	e1510003 	cmp	r1, r3
e0011b10:	33a02000 	movcc	r2, #0
e0011b14:	e1530000 	cmp	r3, r0
e0011b18:	33a00000 	movcc	r0, #0
e0011b1c:	22020001 	andcs	r0, r2, #1
e0011b20:	ea00002b 	b	e0011bd4 <Arch_sameRegionAs+0x2ac>
e0011b24:	e3a0e018 	mov	lr, #24
e0011b28:	eafffff1 	b	e0011af4 <Arch_sameRegionAs+0x1cc>
e0011b2c:	ebfffb4f 	bl	e0010870 <halt>
e0011b30:	e3a0e00c 	mov	lr, #12
e0011b34:	eaffffee 	b	e0011af4 <Arch_sameRegionAs+0x1cc>
e0011b38:	e3a0e014 	mov	lr, #20
e0011b3c:	eaffffec 	b	e0011af4 <Arch_sameRegionAs+0x1cc>
e0011b40:	e203200e 	and	r2, r3, #14
e0011b44:	e352000e 	cmp	r2, #14
e0011b48:	1203200f 	andne	r2, r3, #15
e0011b4c:	06ef2073 	uxtbeq	r2, r3
e0011b50:	e3520007 	cmp	r2, #7
e0011b54:	13a00000 	movne	r0, #0
e0011b58:	1a00001d 	bne	e0011bd4 <Arch_sameRegionAs+0x2ac>
e0011b5c:	e3c33fff 	bic	r3, r3, #1020	; 0x3fc
e0011b60:	e3c33003 	bic	r3, r3, #3
e0011b64:	e3c00fff 	bic	r0, r0, #1020	; 0x3fc
e0011b68:	e3c00003 	bic	r0, r0, #3
e0011b6c:	e1530000 	cmp	r3, r0
e0011b70:	13a00000 	movne	r0, #0
e0011b74:	03a00001 	moveq	r0, #1
e0011b78:	ea000015 	b	e0011bd4 <Arch_sameRegionAs+0x2ac>
e0011b7c:	e203200e 	and	r2, r3, #14
e0011b80:	e352000e 	cmp	r2, #14
e0011b84:	1203200f 	andne	r2, r3, #15
e0011b88:	06ef2073 	uxtbeq	r2, r3
e0011b8c:	e3520009 	cmp	r2, #9
e0011b90:	13a00000 	movne	r0, #0
e0011b94:	1a00000e 	bne	e0011bd4 <Arch_sameRegionAs+0x2ac>
e0011b98:	e3c33dff 	bic	r3, r3, #16320	; 0x3fc0
e0011b9c:	e3c3303f 	bic	r3, r3, #63	; 0x3f
e0011ba0:	e3c00dff 	bic	r0, r0, #16320	; 0x3fc0
e0011ba4:	e3c0003f 	bic	r0, r0, #63	; 0x3f
e0011ba8:	e1530000 	cmp	r3, r0
e0011bac:	13a00000 	movne	r0, #0
e0011bb0:	03a00001 	moveq	r0, #1
e0011bb4:	ea000006 	b	e0011bd4 <Arch_sameRegionAs+0x2ac>
e0011bb8:	e203200e 	and	r2, r3, #14
e0011bbc:	e352000e 	cmp	r2, #14
e0011bc0:	1203300f 	andne	r3, r3, #15
e0011bc4:	06ef3073 	uxtbeq	r3, r3
e0011bc8:	e353000b 	cmp	r3, #11
e0011bcc:	13a00000 	movne	r0, #0
e0011bd0:	03a00001 	moveq	r0, #1
e0011bd4:	e28dd010 	add	sp, sp, #16
e0011bd8:	e8bd8010 	pop	{r4, pc}
e0011bdc:	e203200e 	and	r2, r3, #14
e0011be0:	e352000e 	cmp	r2, #14
e0011be4:	1203200f 	andne	r2, r3, #15
e0011be8:	06ef2073 	uxtbeq	r2, r3
e0011bec:	e3520005 	cmp	r2, #5
e0011bf0:	13a00000 	movne	r0, #0
e0011bf4:	1afffff6 	bne	e0011bd4 <Arch_sameRegionAs+0x2ac>
e0011bf8:	e3c3300f 	bic	r3, r3, #15
e0011bfc:	e3c0000f 	bic	r0, r0, #15
e0011c00:	e1530000 	cmp	r3, r0
e0011c04:	13a00000 	movne	r0, #0
e0011c08:	03a00001 	moveq	r0, #1
e0011c0c:	eafffff0 	b	e0011bd4 <Arch_sameRegionAs+0x2ac>
e0011c10:	e3a00000 	mov	r0, #0
e0011c14:	eaffffee 	b	e0011bd4 <Arch_sameRegionAs+0x2ac>
e0011c18:	e3a00000 	mov	r0, #0
e0011c1c:	eaffffec 	b	e0011bd4 <Arch_sameRegionAs+0x2ac>
e0011c20:	e3a0e010 	mov	lr, #16
e0011c24:	eaffffa8 	b	e0011acc <Arch_sameRegionAs+0x1a4>
e0011c28:	e3a0e018 	mov	lr, #24
e0011c2c:	eaffffa6 	b	e0011acc <Arch_sameRegionAs+0x1a4>

e0011c30 <Arch_sameObjectAs>:
e0011c30:	e52de004 	push	{lr}		; (str lr, [sp, #-4]!)
e0011c34:	e24dd014 	sub	sp, sp, #20
e0011c38:	e28dc010 	add	ip, sp, #16
e0011c3c:	e90c0003 	stmdb	ip, {r0, r1}
e0011c40:	e1a0100d 	mov	r1, sp
e0011c44:	e881000c 	stm	r1, {r2, r3}
e0011c48:	e1a01002 	mov	r1, r2
e0011c4c:	e59d3008 	ldr	r3, [sp, #8]
e0011c50:	e203200e 	and	r2, r3, #14
e0011c54:	e352000e 	cmp	r2, #14
e0011c58:	1203200f 	andne	r2, r3, #15
e0011c5c:	06ef2073 	uxtbeq	r2, r3
e0011c60:	e3520001 	cmp	r2, #1
e0011c64:	0a000008 	beq	e0011c8c <Arch_sameObjectAs+0x5c>
e0011c68:	e3520003 	cmp	r2, #3
e0011c6c:	0a00001f 	beq	e0011cf0 <Arch_sameObjectAs+0xc0>
e0011c70:	e1a0300d 	mov	r3, sp
e0011c74:	e893000c 	ldm	r3, {r2, r3}
e0011c78:	e28d1010 	add	r1, sp, #16
e0011c7c:	e9110003 	ldmdb	r1, {r0, r1}
e0011c80:	ebffff28 	bl	e0011928 <Arch_sameRegionAs>
e0011c84:	e28dd014 	add	sp, sp, #20
e0011c88:	e49df004 	pop	{pc}		; (ldr pc, [sp], #4)
e0011c8c:	e201200e 	and	r2, r1, #14
e0011c90:	e352000e 	cmp	r2, #14
e0011c94:	1201200f 	andne	r2, r1, #15
e0011c98:	06ef2071 	uxtbeq	r2, r1
e0011c9c:	e3520001 	cmp	r2, #1
e0011ca0:	0a000003 	beq	e0011cb4 <Arch_sameObjectAs+0x84>
e0011ca4:	e3520003 	cmp	r2, #3
e0011ca8:	1afffff0 	bne	e0011c70 <Arch_sameObjectAs+0x40>
e0011cac:	e3a00000 	mov	r0, #0
e0011cb0:	eafffff3 	b	e0011c84 <Arch_sameObjectAs+0x54>
e0011cb4:	e1a00401 	lsl	r0, r1, #8
e0011cb8:	e3c00eff 	bic	r0, r0, #4080	; 0xff0
e0011cbc:	e3c0000f 	bic	r0, r0, #15
e0011cc0:	e1a02403 	lsl	r2, r3, #8
e0011cc4:	e3c22eff 	bic	r2, r2, #4080	; 0xff0
e0011cc8:	e3c2200f 	bic	r2, r2, #15
e0011ccc:	e1500002 	cmp	r0, r2
e0011cd0:	13a00000 	movne	r0, #0
e0011cd4:	1affffea 	bne	e0011c84 <Arch_sameObjectAs+0x54>
e0011cd8:	e1e01001 	mvn	r1, r1
e0011cdc:	e1a01fa1 	lsr	r1, r1, #31
e0011ce0:	e1510fa3 	cmp	r1, r3, lsr #31
e0011ce4:	13a00001 	movne	r0, #1
e0011ce8:	03a00000 	moveq	r0, #0
e0011cec:	eaffffe4 	b	e0011c84 <Arch_sameObjectAs+0x54>
e0011cf0:	e201200e 	and	r2, r1, #14
e0011cf4:	e352000e 	cmp	r2, #14
e0011cf8:	1201200f 	andne	r2, r1, #15
e0011cfc:	06ef2071 	uxtbeq	r2, r1
e0011d00:	e3520003 	cmp	r2, #3
e0011d04:	0a000003 	beq	e0011d18 <Arch_sameObjectAs+0xe8>
e0011d08:	e3520001 	cmp	r2, #1
e0011d0c:	03a00000 	moveq	r0, #0
e0011d10:	1affffd6 	bne	e0011c70 <Arch_sameObjectAs+0x40>
e0011d14:	eaffffda 	b	e0011c84 <Arch_sameObjectAs+0x54>
e0011d18:	e1a00501 	lsl	r0, r1, #10
e0011d1c:	e3c00dff 	bic	r0, r0, #16320	; 0x3fc0
e0011d20:	e3c0003f 	bic	r0, r0, #63	; 0x3f
e0011d24:	e1a02503 	lsl	r2, r3, #10
e0011d28:	e3c22dff 	bic	r2, r2, #16320	; 0x3fc0
e0011d2c:	e3c2203f 	bic	r2, r2, #63	; 0x3f
e0011d30:	e1500002 	cmp	r0, r2
e0011d34:	13a00000 	movne	r0, #0
e0011d38:	1affffd1 	bne	e0011c84 <Arch_sameObjectAs+0x54>
e0011d3c:	e59d200c 	ldr	r2, [sp, #12]
e0011d40:	e1a02f22 	lsr	r2, r2, #30
e0011d44:	e59d0004 	ldr	r0, [sp, #4]
e0011d48:	e1520f20 	cmp	r2, r0, lsr #30
e0011d4c:	13a00000 	movne	r0, #0
e0011d50:	1affffcb 	bne	e0011c84 <Arch_sameObjectAs+0x54>
e0011d54:	e2211202 	eor	r1, r1, #536870912	; 0x20000000
e0011d58:	e7e00ed3 	ubfx	r0, r3, #29, #1
e0011d5c:	e7e03ed1 	ubfx	r3, r1, #29, #1
e0011d60:	e0500003 	subs	r0, r0, r3
e0011d64:	13a00001 	movne	r0, #1
e0011d68:	eaffffc5 	b	e0011c84 <Arch_sameObjectAs+0x54>

e0011d6c <Arch_getObjectSize>:
e0011d6c:	e2400005 	sub	r0, r0, #5
e0011d70:	e3500005 	cmp	r0, #5
e0011d74:	979ff100 	ldrls	pc, [pc, r0, lsl #2]
e0011d78:	ea00000d 	b	e0011db4 <Arch_getObjectSize+0x48>
e0011d7c:	e0011dbc 	.word	0xe0011dbc
e0011d80:	e0011d94 	.word	0xe0011d94
e0011d84:	e0011dc4 	.word	0xe0011dc4
e0011d88:	e0011d9c 	.word	0xe0011d9c
e0011d8c:	e0011da4 	.word	0xe0011da4
e0011d90:	e0011dac 	.word	0xe0011dac
e0011d94:	e3a00010 	mov	r0, #16
e0011d98:	e12fff1e 	bx	lr
e0011d9c:	e3a00018 	mov	r0, #24
e0011da0:	e12fff1e 	bx	lr
e0011da4:	e3a0000a 	mov	r0, #10
e0011da8:	e12fff1e 	bx	lr
e0011dac:	e3a0000e 	mov	r0, #14
e0011db0:	e12fff1e 	bx	lr
e0011db4:	e92d4010 	push	{r4, lr}
e0011db8:	ebfffaac 	bl	e0010870 <halt>
e0011dbc:	e3a0000c 	mov	r0, #12
e0011dc0:	e12fff1e 	bx	lr
e0011dc4:	e3a00014 	mov	r0, #20
e0011dc8:	e12fff1e 	bx	lr

e0011dcc <Arch_prepareThreadDelete>:
e0011dcc:	e12fff1e 	bx	lr

e0011dd0 <Arch_handleFaultReply>:
e0011dd0:	e3520005 	cmp	r2, #5
e0011dd4:	1a000001 	bne	e0011de0 <Arch_handleFaultReply+0x10>
e0011dd8:	e3a00001 	mov	r0, #1
e0011ddc:	e12fff1e 	bx	lr
e0011de0:	e92d4010 	push	{r4, lr}
e0011de4:	ebfffaa1 	bl	e0010870 <halt>

e0011de8 <Arch_setMRs_fault>:
e0011de8:	e3530005 	cmp	r3, #5
e0011dec:	1a00000b 	bne	e0011e20 <Arch_setMRs_fault+0x38>
e0011df0:	e5903044 	ldr	r3, [r0, #68]	; 0x44
e0011df4:	e5813008 	str	r3, [r1, #8]
e0011df8:	e5903064 	ldr	r3, [r0, #100]	; 0x64
e0011dfc:	e581300c 	str	r3, [r1, #12]
e0011e00:	e5903060 	ldr	r3, [r0, #96]	; 0x60
e0011e04:	e7e038d3 	ubfx	r3, r3, #17, #1
e0011e08:	e5813010 	str	r3, [r1, #16]
e0011e0c:	e5903060 	ldr	r3, [r0, #96]	; 0x60
e0011e10:	e1a03923 	lsr	r3, r3, #18
e0011e14:	e5813014 	str	r3, [r1, #20]
e0011e18:	e3a00004 	mov	r0, #4
e0011e1c:	e12fff1e 	bx	lr
e0011e20:	e92d4010 	push	{r4, lr}
e0011e24:	ebfffa91 	bl	e0010870 <halt>

e0011e28 <setMRs_fault>:
e0011e28:	e92d4010 	push	{r4, lr}
e0011e2c:	e5903060 	ldr	r3, [r0, #96]	; 0x60
e0011e30:	e2033007 	and	r3, r3, #7
e0011e34:	e3530002 	cmp	r3, #2
e0011e38:	0a000030 	beq	e0011f00 <setMRs_fault+0xd8>
e0011e3c:	e3530003 	cmp	r3, #3
e0011e40:	0a000044 	beq	e0011f58 <setMRs_fault+0x130>
e0011e44:	e3530001 	cmp	r3, #1
e0011e48:	0a000001 	beq	e0011e54 <setMRs_fault+0x2c>
e0011e4c:	ebffffe5 	bl	e0011de8 <Arch_setMRs_fault>
e0011e50:	e8bd8010 	pop	{r4, pc}
e0011e54:	e5903044 	ldr	r3, [r0, #68]	; 0x44
e0011e58:	e5813008 	str	r3, [r1, #8]
e0011e5c:	e5903064 	ldr	r3, [r0, #100]	; 0x64
e0011e60:	e581300c 	str	r3, [r1, #12]
e0011e64:	e5903060 	ldr	r3, [r0, #96]	; 0x60
e0011e68:	e1a03fa3 	lsr	r3, r3, #31
e0011e6c:	e5813010 	str	r3, [r1, #16]
e0011e70:	e590c068 	ldr	ip, [r0, #104]	; 0x68
e0011e74:	e590e06c 	ldr	lr, [r0, #108]	; 0x6c
e0011e78:	e20c3003 	and	r3, ip, #3
e0011e7c:	e2830001 	add	r0, r3, #1
e0011e80:	e5810014 	str	r0, [r1, #20]
e0011e84:	e3530003 	cmp	r3, #3
e0011e88:	979ff103 	ldrls	pc, [pc, r3, lsl #2]
e0011e8c:	ea00001a 	b	e0011efc <setMRs_fault+0xd4>
e0011e90:	e0011f94 	.word	0xe0011f94
e0011e94:	e0011ea0 	.word	0xe0011ea0
e0011e98:	e0011eb8 	.word	0xe0011eb8
e0011e9c:	e0011ed8 	.word	0xe0011ed8
e0011ea0:	e3520000 	cmp	r2, #0
e0011ea4:	0a00003c 	beq	e0011f9c <setMRs_fault+0x174>
e0011ea8:	e7e5c15c 	ubfx	ip, ip, #2, #6
e0011eac:	e582c014 	str	ip, [r2, #20]
e0011eb0:	e3a00005 	mov	r0, #5
e0011eb4:	e8bd8010 	pop	{r4, pc}
e0011eb8:	e3520000 	cmp	r2, #0
e0011ebc:	0a000038 	beq	e0011fa4 <setMRs_fault+0x17c>
e0011ec0:	e7e5315c 	ubfx	r3, ip, #2, #6
e0011ec4:	e5823014 	str	r3, [r2, #20]
e0011ec8:	e7e5c45c 	ubfx	ip, ip, #8, #6
e0011ecc:	e582c018 	str	ip, [r2, #24]
e0011ed0:	e3a00006 	mov	r0, #6
e0011ed4:	e8bd8010 	pop	{r4, pc}
e0011ed8:	e3520000 	cmp	r2, #0
e0011edc:	0a000032 	beq	e0011fac <setMRs_fault+0x184>
e0011ee0:	e7e5345c 	ubfx	r3, ip, #8, #6
e0011ee4:	e5823014 	str	r3, [r2, #20]
e0011ee8:	e582e018 	str	lr, [r2, #24]
e0011eec:	e7e5c15c 	ubfx	ip, ip, #2, #6
e0011ef0:	e582c01c 	str	ip, [r2, #28]
e0011ef4:	e3a00007 	mov	r0, #7
e0011ef8:	e8bd8010 	pop	{r4, pc}
e0011efc:	ebfffa5b 	bl	e0010870 <halt>
e0011f00:	e5903000 	ldr	r3, [r0]
e0011f04:	e5813008 	str	r3, [r1, #8]
e0011f08:	e5903004 	ldr	r3, [r0, #4]
e0011f0c:	e581300c 	str	r3, [r1, #12]
e0011f10:	e5903008 	ldr	r3, [r0, #8]
e0011f14:	e5813010 	str	r3, [r1, #16]
e0011f18:	e590300c 	ldr	r3, [r0, #12]
e0011f1c:	e5813014 	str	r3, [r1, #20]
e0011f20:	e3520000 	cmp	r2, #0
e0011f24:	0a000022 	beq	e0011fb4 <setMRs_fault+0x18c>
e0011f28:	e59f109c 	ldr	r1, [pc, #156]	; e0011fcc <setMRs_fault+0x1a4>
e0011f2c:	e2823010 	add	r3, r2, #16
e0011f30:	e282e030 	add	lr, r2, #48	; 0x30
e0011f34:	e491c004 	ldr	ip, [r1], #4
e0011f38:	e790c10c 	ldr	ip, [r0, ip, lsl #2]
e0011f3c:	e5a3c004 	str	ip, [r3, #4]!
e0011f40:	e153000e 	cmp	r3, lr
e0011f44:	1afffffa 	bne	e0011f34 <setMRs_fault+0x10c>
e0011f48:	e5903064 	ldr	r3, [r0, #100]	; 0x64
e0011f4c:	e5823034 	str	r3, [r2, #52]	; 0x34
e0011f50:	e3a0000d 	mov	r0, #13
e0011f54:	e8bd8010 	pop	{r4, pc}
e0011f58:	e5903044 	ldr	r3, [r0, #68]	; 0x44
e0011f5c:	e5813008 	str	r3, [r1, #8]
e0011f60:	e5903034 	ldr	r3, [r0, #52]	; 0x34
e0011f64:	e581300c 	str	r3, [r1, #12]
e0011f68:	e5903040 	ldr	r3, [r0, #64]	; 0x40
e0011f6c:	e5813010 	str	r3, [r1, #16]
e0011f70:	e3520000 	cmp	r2, #0
e0011f74:	0a000010 	beq	e0011fbc <setMRs_fault+0x194>
e0011f78:	e5903064 	ldr	r3, [r0, #100]	; 0x64
e0011f7c:	e5813014 	str	r3, [r1, #20]
e0011f80:	e5903060 	ldr	r3, [r0, #96]	; 0x60
e0011f84:	e1a031a3 	lsr	r3, r3, #3
e0011f88:	e5823014 	str	r3, [r2, #20]
e0011f8c:	e3a00005 	mov	r0, #5
e0011f90:	e8bd8010 	pop	{r4, pc}
e0011f94:	e3a00004 	mov	r0, #4
e0011f98:	e8bd8010 	pop	{r4, pc}
e0011f9c:	e3a00004 	mov	r0, #4
e0011fa0:	e8bd8010 	pop	{r4, pc}
e0011fa4:	e3a00004 	mov	r0, #4
e0011fa8:	e8bd8010 	pop	{r4, pc}
e0011fac:	e3a00004 	mov	r0, #4
e0011fb0:	e8bd8010 	pop	{r4, pc}
e0011fb4:	e3a00004 	mov	r0, #4
e0011fb8:	e8bd8010 	pop	{r4, pc}
e0011fbc:	e5903064 	ldr	r3, [r0, #100]	; 0x64
e0011fc0:	e5813014 	str	r3, [r1, #20]
e0011fc4:	e3a00004 	mov	r0, #4
e0011fc8:	e8bd8010 	pop	{r4, pc}
e0011fcc:	e001b778 	.word	0xe001b778

e0011fd0 <clean_D_PoU>:
e0011fd0:	e92d4ff0 	push	{r4, r5, r6, r7, r8, r9, sl, fp, lr}
e0011fd4:	e24dd00c 	sub	sp, sp, #12
e0011fd8:	ee30bf30 	mrc	15, 1, fp, cr0, cr0, {1}
e0011fdc:	e58db004 	str	fp, [sp, #4]
e0011fe0:	e7e2bddb 	ubfx	fp, fp, #27, #3
e0011fe4:	e35b0000 	cmp	fp, #0
e0011fe8:	da00002e 	ble	e00120a8 <clean_D_PoU+0xd8>
e0011fec:	e08bb08b 	add	fp, fp, fp, lsl #1
e0011ff0:	e3a09000 	mov	r9, #0
e0011ff4:	e1a07009 	mov	r7, r9
e0011ff8:	ea000013 	b	e001204c <clean_D_PoU+0x7c>
e0011ffc:	e183100e 	orr	r1, r3, lr
e0012000:	ee071f5a 	mcr	15, 0, r1, cr7, cr10, {2}
e0012004:	e2822001 	add	r2, r2, #1
e0012008:	e083300c 	add	r3, r3, ip
e001200c:	e1500002 	cmp	r0, r2
e0012010:	1afffff9 	bne	e0011ffc <clean_D_PoU+0x2c>
e0012014:	e2855001 	add	r5, r5, #1
e0012018:	e0844008 	add	r4, r4, r8
e001201c:	e1560005 	cmp	r6, r5
e0012020:	0a000005 	beq	e001203c <clean_D_PoU+0x6c>
e0012024:	e3500000 	cmp	r0, #0
e0012028:	c184e00a 	orrgt	lr, r4, sl
e001202c:	c3a03000 	movgt	r3, #0
e0012030:	c1a02003 	movgt	r2, r3
e0012034:	cafffff0 	bgt	e0011ffc <clean_D_PoU+0x2c>
e0012038:	eafffff5 	b	e0012014 <clean_D_PoU+0x44>
e001203c:	e2877003 	add	r7, r7, #3
e0012040:	e2899002 	add	r9, r9, #2
e0012044:	e157000b 	cmp	r7, fp
e0012048:	0a000016 	beq	e00120a8 <clean_D_PoU+0xd8>
e001204c:	e59d3004 	ldr	r3, [sp, #4]
e0012050:	e1a03753 	asr	r3, r3, r7
e0012054:	e2033007 	and	r3, r3, #7
e0012058:	e3530001 	cmp	r3, #1
e001205c:	9afffff6 	bls	e001203c <clean_D_PoU+0x6c>
e0012060:	ee503f10 	mrc	15, 2, r3, cr0, cr0, {0}
e0012064:	e1a0a009 	mov	sl, r9
e0012068:	ee409f10 	mcr	15, 2, r9, cr0, cr0, {0}
e001206c:	ee300f10 	mrc	15, 1, r0, cr0, cr0, {0}
e0012070:	ee403f10 	mcr	15, 2, r3, cr0, cr0, {0}
e0012074:	e200c007 	and	ip, r0, #7
e0012078:	e28cc004 	add	ip, ip, #4
e001207c:	e7e961d0 	ubfx	r6, r0, #3, #10
e0012080:	e16f8f16 	clz	r8, r6
e0012084:	e7ee06d0 	ubfx	r0, r0, #13, #15
e0012088:	e2800001 	add	r0, r0, #1
e001208c:	e2866001 	add	r6, r6, #1
e0012090:	e3a03001 	mov	r3, #1
e0012094:	e1a08813 	lsl	r8, r3, r8
e0012098:	e1a0cc13 	lsl	ip, r3, ip
e001209c:	e3a04000 	mov	r4, #0
e00120a0:	e1a05004 	mov	r5, r4
e00120a4:	eaffffde 	b	e0012024 <clean_D_PoU+0x54>
e00120a8:	e28dd00c 	add	sp, sp, #12
e00120ac:	e8bd8ff0 	pop	{r4, r5, r6, r7, r8, r9, sl, fp, pc}

e00120b0 <cleanInvalidate_D_PoC>:
e00120b0:	e92d4ff0 	push	{r4, r5, r6, r7, r8, r9, sl, fp, lr}
e00120b4:	e24dd00c 	sub	sp, sp, #12
e00120b8:	ee30bf30 	mrc	15, 1, fp, cr0, cr0, {1}
e00120bc:	e58db004 	str	fp, [sp, #4]
e00120c0:	e7e2bc5b 	ubfx	fp, fp, #24, #3
e00120c4:	e35b0000 	cmp	fp, #0
e00120c8:	da00002e 	ble	e0012188 <cleanInvalidate_D_PoC+0xd8>
e00120cc:	e08bb08b 	add	fp, fp, fp, lsl #1
e00120d0:	e3a09000 	mov	r9, #0
e00120d4:	e1a07009 	mov	r7, r9
e00120d8:	ea000013 	b	e001212c <cleanInvalidate_D_PoC+0x7c>
e00120dc:	e183100e 	orr	r1, r3, lr
e00120e0:	ee071f5e 	mcr	15, 0, r1, cr7, cr14, {2}
e00120e4:	e2822001 	add	r2, r2, #1
e00120e8:	e083300c 	add	r3, r3, ip
e00120ec:	e1500002 	cmp	r0, r2
e00120f0:	1afffff9 	bne	e00120dc <cleanInvalidate_D_PoC+0x2c>
e00120f4:	e2855001 	add	r5, r5, #1
e00120f8:	e0844008 	add	r4, r4, r8
e00120fc:	e1560005 	cmp	r6, r5
e0012100:	0a000005 	beq	e001211c <cleanInvalidate_D_PoC+0x6c>
e0012104:	e3500000 	cmp	r0, #0
e0012108:	c184e00a 	orrgt	lr, r4, sl
e001210c:	c3a03000 	movgt	r3, #0
e0012110:	c1a02003 	movgt	r2, r3
e0012114:	cafffff0 	bgt	e00120dc <cleanInvalidate_D_PoC+0x2c>
e0012118:	eafffff5 	b	e00120f4 <cleanInvalidate_D_PoC+0x44>
e001211c:	e2877003 	add	r7, r7, #3
e0012120:	e2899002 	add	r9, r9, #2
e0012124:	e157000b 	cmp	r7, fp
e0012128:	0a000016 	beq	e0012188 <cleanInvalidate_D_PoC+0xd8>
e001212c:	e59d3004 	ldr	r3, [sp, #4]
e0012130:	e1a03753 	asr	r3, r3, r7
e0012134:	e2033007 	and	r3, r3, #7
e0012138:	e3530001 	cmp	r3, #1
e001213c:	9afffff6 	bls	e001211c <cleanInvalidate_D_PoC+0x6c>
e0012140:	ee503f10 	mrc	15, 2, r3, cr0, cr0, {0}
e0012144:	e1a0a009 	mov	sl, r9
e0012148:	ee409f10 	mcr	15, 2, r9, cr0, cr0, {0}
e001214c:	ee300f10 	mrc	15, 1, r0, cr0, cr0, {0}
e0012150:	ee403f10 	mcr	15, 2, r3, cr0, cr0, {0}
e0012154:	e200c007 	and	ip, r0, #7
e0012158:	e28cc004 	add	ip, ip, #4
e001215c:	e7e961d0 	ubfx	r6, r0, #3, #10
e0012160:	e16f8f16 	clz	r8, r6
e0012164:	e7ee06d0 	ubfx	r0, r0, #13, #15
e0012168:	e2800001 	add	r0, r0, #1
e001216c:	e2866001 	add	r6, r6, #1
e0012170:	e3a03001 	mov	r3, #1
e0012174:	e1a08813 	lsl	r8, r3, r8
e0012178:	e1a0cc13 	lsl	ip, r3, ip
e001217c:	e3a04000 	mov	r4, #0
e0012180:	e1a05004 	mov	r5, r4
e0012184:	eaffffde 	b	e0012104 <cleanInvalidate_D_PoC+0x54>
e0012188:	e28dd00c 	add	sp, sp, #12
e001218c:	e8bd8ff0 	pop	{r4, r5, r6, r7, r8, r9, sl, fp, pc}

e0012190 <lockTLBEntry>:
e0012190:	e92d4010 	push	{r4, lr}
e0012194:	e30b385c 	movw	r3, #47196	; 0xb85c
e0012198:	e34e3001 	movt	r3, #57345	; 0xe001
e001219c:	e5931000 	ldr	r1, [r3]
e00121a0:	e2812001 	add	r2, r1, #1
e00121a4:	e5832000 	str	r2, [r3]
e00121a8:	e1a01e01 	lsl	r1, r1, #28
e00121ac:	e1a02e02 	lsl	r2, r2, #28
e00121b0:	e3811001 	orr	r1, r1, #1
e00121b4:	ebfff971 	bl	e0010780 <lockTLBEntryCritical>
e00121b8:	e8bd8010 	pop	{r4, pc}

e00121bc <armv_init_user_access>:
e00121bc:	ee103f51 	mrc	15, 0, r3, cr0, cr1, {2}
e00121c0:	ee103f31 	mrc	15, 0, r3, cr0, cr1, {1}
e00121c4:	e3130801 	tst	r3, #65536	; 0x10000
e00121c8:	012fff1e 	bxeq	lr
e00121cc:	ee1e3f11 	mrc	15, 0, r3, cr14, cr1, {0}
e00121d0:	ee0e3f11 	mcr	15, 0, r3, cr14, cr1, {0}
e00121d4:	e12fff1e 	bx	lr

e00121d8 <Arch_postModifyRegisters>:
e00121d8:	e12fff1e 	bx	lr

e00121dc <cleanInvalidateCacheRange_RAM>:
e00121dc:	e92d4010 	push	{r4, lr}
e00121e0:	e1a0c2a0 	lsr	ip, r0, #5
e00121e4:	e1a042a1 	lsr	r4, r1, #5
e00121e8:	e2844001 	add	r4, r4, #1
e00121ec:	e15c0004 	cmp	ip, r4
e00121f0:	2a000007 	bcs	e0012214 <cleanInvalidateCacheRange_RAM+0x38>
e00121f4:	e1a0e28c 	lsl	lr, ip, #5
e00121f8:	e1a0300c 	mov	r3, ip
e00121fc:	ee07ef3a 	mcr	15, 0, lr, cr7, cr10, {1}
e0012200:	f57ff05f 	dmb	sy
e0012204:	e2833001 	add	r3, r3, #1
e0012208:	e28ee020 	add	lr, lr, #32
e001220c:	e1530004 	cmp	r3, r4
e0012210:	1afffff9 	bne	e00121fc <cleanInvalidateCacheRange_RAM+0x20>
e0012214:	f57ff04f 	dsb	sy
e0012218:	e3c2301f 	bic	r3, r2, #31
e001221c:	e2822020 	add	r2, r2, #32
e0012220:	e0821001 	add	r1, r2, r1
e0012224:	e0410000 	sub	r0, r1, r0
e0012228:	e3c0001f 	bic	r0, r0, #31
e001222c:	e1530000 	cmp	r3, r0
e0012230:	0a000007 	beq	e0012254 <cleanInvalidateCacheRange_RAM+0x78>
e0012234:	e30220ff 	movw	r2, #8447	; 0x20ff
e0012238:	e34f2ff0 	movt	r2, #65520	; 0xfff0
e001223c:	e58236b1 	str	r3, [r2, #1713]	; 0x6b1
e0012240:	f57ff05f 	dmb	sy
e0012244:	e5823671 	str	r3, [r2, #1649]	; 0x671
e0012248:	e2833020 	add	r3, r3, #32
e001224c:	e1530000 	cmp	r3, r0
e0012250:	1afffff9 	bne	e001223c <cleanInvalidateCacheRange_RAM+0x60>
e0012254:	f57ff05f 	dmb	sy
e0012258:	e30230ff 	movw	r3, #8447	; 0x20ff
e001225c:	e34f3ff0 	movt	r3, #65520	; 0xfff0
e0012260:	e3a02000 	mov	r2, #0
e0012264:	e5832631 	str	r2, [r3, #1585]	; 0x631
e0012268:	e30220ff 	movw	r2, #8447	; 0x20ff
e001226c:	e34f2ff0 	movt	r2, #65520	; 0xfff0
e0012270:	e5923631 	ldr	r3, [r2, #1585]	; 0x631
e0012274:	e3130001 	tst	r3, #1
e0012278:	1afffffc 	bne	e0012270 <cleanInvalidateCacheRange_RAM+0x94>
e001227c:	e15c0004 	cmp	ip, r4
e0012280:	2a000006 	bcs	e00122a0 <cleanInvalidateCacheRange_RAM+0xc4>
e0012284:	e1a0328c 	lsl	r3, ip, #5
e0012288:	ee073f3e 	mcr	15, 0, r3, cr7, cr14, {1}
e001228c:	f57ff04f 	dsb	sy
e0012290:	e28cc001 	add	ip, ip, #1
e0012294:	e2833020 	add	r3, r3, #32
e0012298:	e15c0004 	cmp	ip, r4
e001229c:	1afffff9 	bne	e0012288 <cleanInvalidateCacheRange_RAM+0xac>
e00122a0:	f57ff04f 	dsb	sy
e00122a4:	e8bd8010 	pop	{r4, pc}

e00122a8 <cleanCacheRange_RAM>:
e00122a8:	e52de004 	push	{lr}		; (str lr, [sp, #-4]!)
e00122ac:	e1a032a0 	lsr	r3, r0, #5
e00122b0:	e1a0e2a1 	lsr	lr, r1, #5
e00122b4:	e28ee001 	add	lr, lr, #1
e00122b8:	e153000e 	cmp	r3, lr
e00122bc:	2a000006 	bcs	e00122dc <cleanCacheRange_RAM+0x34>
e00122c0:	e1a0c283 	lsl	ip, r3, #5
e00122c4:	ee07cf3a 	mcr	15, 0, ip, cr7, cr10, {1}
e00122c8:	f57ff05f 	dmb	sy
e00122cc:	e2833001 	add	r3, r3, #1
e00122d0:	e28cc020 	add	ip, ip, #32
e00122d4:	e153000e 	cmp	r3, lr
e00122d8:	1afffff9 	bne	e00122c4 <cleanCacheRange_RAM+0x1c>
e00122dc:	f57ff04f 	dsb	sy
e00122e0:	e3c2301f 	bic	r3, r2, #31
e00122e4:	e2822020 	add	r2, r2, #32
e00122e8:	e0821001 	add	r1, r2, r1
e00122ec:	e0410000 	sub	r0, r1, r0
e00122f0:	e3c0001f 	bic	r0, r0, #31
e00122f4:	e1530000 	cmp	r3, r0
e00122f8:	0a000005 	beq	e0012314 <cleanCacheRange_RAM+0x6c>
e00122fc:	e30220ff 	movw	r2, #8447	; 0x20ff
e0012300:	e34f2ff0 	movt	r2, #65520	; 0xfff0
e0012304:	e58236b1 	str	r3, [r2, #1713]	; 0x6b1
e0012308:	e2833020 	add	r3, r3, #32
e001230c:	e1530000 	cmp	r3, r0
e0012310:	1afffffb 	bne	e0012304 <cleanCacheRange_RAM+0x5c>
e0012314:	f57ff05f 	dmb	sy
e0012318:	e30230ff 	movw	r3, #8447	; 0x20ff
e001231c:	e34f3ff0 	movt	r3, #65520	; 0xfff0
e0012320:	e3a02000 	mov	r2, #0
e0012324:	e5832631 	str	r2, [r3, #1585]	; 0x631
e0012328:	e30220ff 	movw	r2, #8447	; 0x20ff
e001232c:	e34f2ff0 	movt	r2, #65520	; 0xfff0
e0012330:	e5923631 	ldr	r3, [r2, #1585]	; 0x631
e0012334:	e3130001 	tst	r3, #1
e0012338:	1afffffc 	bne	e0012330 <cleanCacheRange_RAM+0x88>
e001233c:	e49df004 	pop	{pc}		; (ldr pc, [sp], #4)

e0012340 <cleanCacheRange_PoU>:
e0012340:	e1a002a0 	lsr	r0, r0, #5
e0012344:	e1a012a1 	lsr	r1, r1, #5
e0012348:	e2811001 	add	r1, r1, #1
e001234c:	e1500001 	cmp	r0, r1
e0012350:	212fff1e 	bxcs	lr
e0012354:	e1a03280 	lsl	r3, r0, #5
e0012358:	ee073f3b 	mcr	15, 0, r3, cr7, cr11, {1}
e001235c:	f57ff05f 	dmb	sy
e0012360:	e2800001 	add	r0, r0, #1
e0012364:	e2833020 	add	r3, r3, #32
e0012368:	e1500001 	cmp	r0, r1
e001236c:	1afffff9 	bne	e0012358 <cleanCacheRange_PoU+0x18>
e0012370:	e12fff1e 	bx	lr

e0012374 <unmapPage>:
e0012374:	e92d41f0 	push	{r4, r5, r6, r7, r8, lr}
e0012378:	e24dd010 	sub	sp, sp, #16
e001237c:	e1a04000 	mov	r4, r0
e0012380:	e1a07001 	mov	r7, r1
e0012384:	e1a06002 	mov	r6, r2
e0012388:	e2838203 	add	r8, r3, #805306368	; 0x30000000
e001238c:	e28d0008 	add	r0, sp, #8
e0012390:	ebfff9ee 	bl	e0010b50 <findPDForASID>
e0012394:	e59d500c 	ldr	r5, [sp, #12]
e0012398:	e59d3008 	ldr	r3, [sp, #8]
e001239c:	e3530000 	cmp	r3, #0
e00123a0:	1a00001e 	bne	e0012420 <unmapPage+0xac>
e00123a4:	e3540003 	cmp	r4, #3
e00123a8:	979ff104 	ldrls	pc, [pc, r4, lsl #2]
e00123ac:	ea00005f 	b	e0012530 <unmapPage+0x1bc>
e00123b0:	e00123c0 	.word	0xe00123c0
e00123b4:	e0012428 	.word	0xe0012428
e00123b8:	e0012494 	.word	0xe0012494
e00123bc:	e00124d8 	.word	0xe00124d8
e00123c0:	e1a02006 	mov	r2, r6
e00123c4:	e1a01005 	mov	r1, r5
e00123c8:	e1a0000d 	mov	r0, sp
e00123cc:	ebfffae6 	bl	e0010f6c <lookupPTSlot>
e00123d0:	e59d2004 	ldr	r2, [sp, #4]
e00123d4:	e59d3000 	ldr	r3, [sp]
e00123d8:	e3530000 	cmp	r3, #0
e00123dc:	1a00000f 	bne	e0012420 <unmapPage+0xac>
e00123e0:	e5923000 	ldr	r3, [r2]
e00123e4:	e3130002 	tst	r3, #2
e00123e8:	0a00000c 	beq	e0012420 <unmapPage+0xac>
e00123ec:	e3c33eff 	bic	r3, r3, #4080	; 0xff0
e00123f0:	e3c3300f 	bic	r3, r3, #15
e00123f4:	e1580003 	cmp	r8, r3
e00123f8:	1a000008 	bne	e0012420 <unmapPage+0xac>
e00123fc:	e3a03000 	mov	r3, #0
e0012400:	e5823000 	str	r3, [r2]
e0012404:	ee072f3b 	mcr	15, 0, r2, cr7, cr11, {1}
e0012408:	f57ff05f 	dmb	sy
e001240c:	e1a03006 	mov	r3, r6
e0012410:	e1a02007 	mov	r2, r7
e0012414:	e1a01005 	mov	r1, r5
e0012418:	e1a00004 	mov	r0, r4
e001241c:	ebfffc76 	bl	e00115fc <flushPage>
e0012420:	e28dd010 	add	sp, sp, #16
e0012424:	e8bd81f0 	pop	{r4, r5, r6, r7, r8, pc}
e0012428:	e1a02006 	mov	r2, r6
e001242c:	e1a01005 	mov	r1, r5
e0012430:	e1a0000d 	mov	r0, sp
e0012434:	ebfffacc 	bl	e0010f6c <lookupPTSlot>
e0012438:	e59d0004 	ldr	r0, [sp, #4]
e001243c:	e59d3000 	ldr	r3, [sp]
e0012440:	e3530000 	cmp	r3, #0
e0012444:	1afffff5 	bne	e0012420 <unmapPage+0xac>
e0012448:	e5903000 	ldr	r3, [r0]
e001244c:	e3130002 	tst	r3, #2
e0012450:	1afffff2 	bne	e0012420 <unmapPage+0xac>
e0012454:	e3130001 	tst	r3, #1
e0012458:	0afffff0 	beq	e0012420 <unmapPage+0xac>
e001245c:	e1a03823 	lsr	r3, r3, #16
e0012460:	e1a03803 	lsl	r3, r3, #16
e0012464:	e1580003 	cmp	r8, r3
e0012468:	02403004 	subeq	r3, r0, #4
e001246c:	0280103c 	addeq	r1, r0, #60	; 0x3c
e0012470:	03a02000 	moveq	r2, #0
e0012474:	1affffe9 	bne	e0012420 <unmapPage+0xac>
e0012478:	e5a32004 	str	r2, [r3, #4]!
e001247c:	e1530001 	cmp	r3, r1
e0012480:	1afffffc 	bne	e0012478 <unmapPage+0x104>
e0012484:	e2802203 	add	r2, r0, #805306368	; 0x30000000
e0012488:	e280103f 	add	r1, r0, #63	; 0x3f
e001248c:	ebffffab 	bl	e0012340 <cleanCacheRange_PoU>
e0012490:	eaffffdd 	b	e001240c <unmapPage+0x98>
e0012494:	e1a02a26 	lsr	r2, r6, #20
e0012498:	e0850102 	add	r0, r5, r2, lsl #2
e001249c:	e7953102 	ldr	r3, [r5, r2, lsl #2]
e00124a0:	e2031003 	and	r1, r3, #3
e00124a4:	e3510002 	cmp	r1, #2
e00124a8:	1affffdc 	bne	e0012420 <unmapPage+0xac>
e00124ac:	e3130701 	tst	r3, #262144	; 0x40000
e00124b0:	1affffda 	bne	e0012420 <unmapPage+0xac>
e00124b4:	e1a03a23 	lsr	r3, r3, #20
e00124b8:	e1a03a03 	lsl	r3, r3, #20
e00124bc:	e1580003 	cmp	r8, r3
e00124c0:	1affffd6 	bne	e0012420 <unmapPage+0xac>
e00124c4:	e3a03000 	mov	r3, #0
e00124c8:	e7853102 	str	r3, [r5, r2, lsl #2]
e00124cc:	ee070f3b 	mcr	15, 0, r0, cr7, cr11, {1}
e00124d0:	f57ff05f 	dmb	sy
e00124d4:	eaffffcc 	b	e001240c <unmapPage+0x98>
e00124d8:	e1a03a26 	lsr	r3, r6, #20
e00124dc:	e0850103 	add	r0, r5, r3, lsl #2
e00124e0:	e7953103 	ldr	r3, [r5, r3, lsl #2]
e00124e4:	e2032003 	and	r2, r3, #3
e00124e8:	e3520002 	cmp	r2, #2
e00124ec:	1affffcb 	bne	e0012420 <unmapPage+0xac>
e00124f0:	e3130701 	tst	r3, #262144	; 0x40000
e00124f4:	0affffc9 	beq	e0012420 <unmapPage+0xac>
e00124f8:	e1a03a23 	lsr	r3, r3, #20
e00124fc:	e1a03a03 	lsl	r3, r3, #20
e0012500:	e1580003 	cmp	r8, r3
e0012504:	1affffc5 	bne	e0012420 <unmapPage+0xac>
e0012508:	e2403004 	sub	r3, r0, #4
e001250c:	e280103c 	add	r1, r0, #60	; 0x3c
e0012510:	e3a02000 	mov	r2, #0
e0012514:	e5a32004 	str	r2, [r3, #4]!
e0012518:	e1530001 	cmp	r3, r1
e001251c:	1afffffc 	bne	e0012514 <unmapPage+0x1a0>
e0012520:	e2802203 	add	r2, r0, #805306368	; 0x30000000
e0012524:	e280103f 	add	r1, r0, #63	; 0x3f
e0012528:	ebffff84 	bl	e0012340 <cleanCacheRange_PoU>
e001252c:	eaffffb6 	b	e001240c <unmapPage+0x98>
e0012530:	ebfff8ce 	bl	e0010870 <halt>

e0012534 <Arch_createObject>:
e0012534:	e92d4070 	push	{r4, r5, r6, lr}
e0012538:	e1a05000 	mov	r5, r0
e001253c:	e1a04002 	mov	r4, r2
e0012540:	e2411005 	sub	r1, r1, #5
e0012544:	e3510005 	cmp	r1, #5
e0012548:	979ff101 	ldrls	pc, [pc, r1, lsl #2]
e001254c:	ea00004d 	b	e0012688 <Arch_createObject+0x154>
e0012550:	e0012568 	.word	0xe0012568
e0012554:	e0012598 	.word	0xe0012598
e0012558:	e00125cc 	.word	0xe00125cc
e001255c:	e0012600 	.word	0xe0012600
e0012560:	e0012634 	.word	0xe0012634
e0012564:	e0012650 	.word	0xe0012650
e0012568:	e59d3010 	ldr	r3, [sp, #16]
e001256c:	e3530000 	cmp	r3, #0
e0012570:	13a03106 	movne	r3, #-2147483647	; 0x80000001
e0012574:	03a03001 	moveq	r3, #1
e0012578:	e1a04422 	lsr	r4, r2, #8
e001257c:	e3c4400f 	bic	r4, r4, #15
e0012580:	e1834004 	orr	r4, r3, r4
e0012584:	e5804000 	str	r4, [r0]
e0012588:	e3a03603 	mov	r3, #3145728	; 0x300000
e001258c:	e5803004 	str	r3, [r0, #4]
e0012590:	e1a00005 	mov	r0, r5
e0012594:	e8bd8070 	pop	{r4, r5, r6, pc}
e0012598:	e59d3010 	ldr	r3, [sp, #16]
e001259c:	e3530000 	cmp	r3, #0
e00125a0:	13a03232 	movne	r3, #536870915	; 0x20000003
e00125a4:	03a03003 	moveq	r3, #3
e00125a8:	e1a04522 	lsr	r4, r2, #10
e00125ac:	e3c442ff 	bic	r4, r4, #-268435441	; 0xf000000f
e00125b0:	e3c4453f 	bic	r4, r4, #264241152	; 0xfc00000
e00125b4:	e1834004 	orr	r4, r3, r4
e00125b8:	e5804000 	str	r4, [r0]
e00125bc:	e3a03000 	mov	r3, #0
e00125c0:	e344300c 	movt	r3, #16396	; 0x400c
e00125c4:	e5803004 	str	r3, [r0, #4]
e00125c8:	eafffff0 	b	e0012590 <Arch_createObject+0x5c>
e00125cc:	e59d3010 	ldr	r3, [sp, #16]
e00125d0:	e3530000 	cmp	r3, #0
e00125d4:	13a03232 	movne	r3, #536870915	; 0x20000003
e00125d8:	03a03003 	moveq	r3, #3
e00125dc:	e1a04522 	lsr	r4, r2, #10
e00125e0:	e3c442ff 	bic	r4, r4, #-268435441	; 0xf000000f
e00125e4:	e3c4453f 	bic	r4, r4, #264241152	; 0xfc00000
e00125e8:	e1834004 	orr	r4, r3, r4
e00125ec:	e5804000 	str	r4, [r0]
e00125f0:	e3a03000 	mov	r3, #0
e00125f4:	e348300c 	movt	r3, #32780	; 0x800c
e00125f8:	e5803004 	str	r3, [r0, #4]
e00125fc:	eaffffe3 	b	e0012590 <Arch_createObject+0x5c>
e0012600:	e59d3010 	ldr	r3, [sp, #16]
e0012604:	e3530000 	cmp	r3, #0
e0012608:	13a03232 	movne	r3, #536870915	; 0x20000003
e001260c:	03a03003 	moveq	r3, #3
e0012610:	e1a04522 	lsr	r4, r2, #10
e0012614:	e3c442ff 	bic	r4, r4, #-268435441	; 0xf000000f
e0012618:	e3c4453f 	bic	r4, r4, #264241152	; 0xfc00000
e001261c:	e1834004 	orr	r4, r3, r4
e0012620:	e5804000 	str	r4, [r0]
e0012624:	e3a03000 	mov	r3, #0
e0012628:	e34c300c 	movt	r3, #49164	; 0xc00c
e001262c:	e5803004 	str	r3, [r0, #4]
e0012630:	eaffffd6 	b	e0012590 <Arch_createObject+0x5c>
e0012634:	e3c24fff 	bic	r4, r2, #1020	; 0x3fc
e0012638:	e3c44003 	bic	r4, r4, #3
e001263c:	e3844007 	orr	r4, r4, #7
e0012640:	e5804000 	str	r4, [r0]
e0012644:	e3a03000 	mov	r3, #0
e0012648:	e5803004 	str	r3, [r0, #4]
e001264c:	eaffffcf 	b	e0012590 <Arch_createObject+0x5c>
e0012650:	e1a00002 	mov	r0, r2
e0012654:	ebfffbc0 	bl	e001155c <copyGlobalMappings>
e0012658:	e2842203 	add	r2, r4, #805306368	; 0x30000000
e001265c:	e2841dff 	add	r1, r4, #16320	; 0x3fc0
e0012660:	e281103f 	add	r1, r1, #63	; 0x3f
e0012664:	e1a00004 	mov	r0, r4
e0012668:	ebffff34 	bl	e0012340 <cleanCacheRange_PoU>
e001266c:	e3c44dff 	bic	r4, r4, #16320	; 0x3fc0
e0012670:	e3c4403f 	bic	r4, r4, #63	; 0x3f
e0012674:	e3844009 	orr	r4, r4, #9
e0012678:	e5854000 	str	r4, [r5]
e001267c:	e3a03000 	mov	r3, #0
e0012680:	e5853004 	str	r3, [r5, #4]
e0012684:	eaffffc1 	b	e0012590 <Arch_createObject+0x5c>
e0012688:	ebfff878 	bl	e0010870 <halt>

e001268c <invalidateCacheRange_RAM>:
e001268c:	e92d4070 	push	{r4, r5, r6, lr}
e0012690:	e1a04000 	mov	r4, r0
e0012694:	e1a05001 	mov	r5, r1
e0012698:	e1a06002 	mov	r6, r2
e001269c:	e310001f 	tst	r0, #31
e00126a0:	1a000027 	bne	e0012744 <invalidateCacheRange_RAM+0xb8>
e00126a4:	e2853001 	add	r3, r5, #1
e00126a8:	e313001f 	tst	r3, #31
e00126ac:	1a000027 	bne	e0012750 <invalidateCacheRange_RAM+0xc4>
e00126b0:	e3c6301f 	bic	r3, r6, #31
e00126b4:	e2852020 	add	r2, r5, #32
e00126b8:	e0822006 	add	r2, r2, r6
e00126bc:	e0422004 	sub	r2, r2, r4
e00126c0:	e3c2201f 	bic	r2, r2, #31
e00126c4:	e1530002 	cmp	r3, r2
e00126c8:	0a000005 	beq	e00126e4 <invalidateCacheRange_RAM+0x58>
e00126cc:	e30210ff 	movw	r1, #8447	; 0x20ff
e00126d0:	e34f1ff0 	movt	r1, #65520	; 0xfff0
e00126d4:	e5813671 	str	r3, [r1, #1649]	; 0x671
e00126d8:	e2833020 	add	r3, r3, #32
e00126dc:	e1530002 	cmp	r3, r2
e00126e0:	1afffffb 	bne	e00126d4 <invalidateCacheRange_RAM+0x48>
e00126e4:	f57ff05f 	dmb	sy
e00126e8:	e30230ff 	movw	r3, #8447	; 0x20ff
e00126ec:	e34f3ff0 	movt	r3, #65520	; 0xfff0
e00126f0:	e3a02000 	mov	r2, #0
e00126f4:	e5832631 	str	r2, [r3, #1585]	; 0x631
e00126f8:	e30220ff 	movw	r2, #8447	; 0x20ff
e00126fc:	e34f2ff0 	movt	r2, #65520	; 0xfff0
e0012700:	e5923631 	ldr	r3, [r2, #1585]	; 0x631
e0012704:	e3130001 	tst	r3, #1
e0012708:	1afffffc 	bne	e0012700 <invalidateCacheRange_RAM+0x74>
e001270c:	e1a002a4 	lsr	r0, r4, #5
e0012710:	e1a012a5 	lsr	r1, r5, #5
e0012714:	e2811001 	add	r1, r1, #1
e0012718:	e1500001 	cmp	r0, r1
e001271c:	2a000006 	bcs	e001273c <invalidateCacheRange_RAM+0xb0>
e0012720:	e1a03280 	lsl	r3, r0, #5
e0012724:	ee073f36 	mcr	15, 0, r3, cr7, cr6, {1}
e0012728:	f57ff05f 	dmb	sy
e001272c:	e2800001 	add	r0, r0, #1
e0012730:	e2833020 	add	r3, r3, #32
e0012734:	e1500001 	cmp	r0, r1
e0012738:	1afffff9 	bne	e0012724 <invalidateCacheRange_RAM+0x98>
e001273c:	f57ff04f 	dsb	sy
e0012740:	e8bd8070 	pop	{r4, r5, r6, pc}
e0012744:	e1a01000 	mov	r1, r0
e0012748:	ebfffed6 	bl	e00122a8 <cleanCacheRange_RAM>
e001274c:	eaffffd4 	b	e00126a4 <invalidateCacheRange_RAM+0x18>
e0012750:	e3c5001f 	bic	r0, r5, #31
e0012754:	e0862000 	add	r2, r6, r0
e0012758:	e0422004 	sub	r2, r2, r4
e001275c:	e1a01000 	mov	r1, r0
e0012760:	ebfffed0 	bl	e00122a8 <cleanCacheRange_RAM>
e0012764:	eaffffd1 	b	e00126b0 <invalidateCacheRange_RAM+0x24>

e0012768 <invalidateCacheRange_I>:
e0012768:	e1a002a0 	lsr	r0, r0, #5
e001276c:	e1a012a1 	lsr	r1, r1, #5
e0012770:	e2811001 	add	r1, r1, #1
e0012774:	e1500001 	cmp	r0, r1
e0012778:	212fff1e 	bxcs	lr
e001277c:	e1a03280 	lsl	r3, r0, #5
e0012780:	ee073f35 	mcr	15, 0, r3, cr7, cr5, {1}
e0012784:	f57ff06f 	isb	sy
e0012788:	e2800001 	add	r0, r0, #1
e001278c:	e2833020 	add	r3, r3, #32
e0012790:	e1500001 	cmp	r0, r1
e0012794:	1afffff9 	bne	e0012780 <invalidateCacheRange_I+0x18>
e0012798:	e12fff1e 	bx	lr

e001279c <branchFlushRange>:
e001279c:	e1a002a0 	lsr	r0, r0, #5
e00127a0:	e1a012a1 	lsr	r1, r1, #5
e00127a4:	e2811001 	add	r1, r1, #1
e00127a8:	e1500001 	cmp	r0, r1
e00127ac:	212fff1e 	bxcs	lr
e00127b0:	e1a03280 	lsl	r3, r0, #5
e00127b4:	ee073ff5 	mcr	15, 0, r3, cr7, cr5, {7}
e00127b8:	e2800001 	add	r0, r0, #1
e00127bc:	e2833020 	add	r3, r3, #32
e00127c0:	e1500001 	cmp	r0, r1
e00127c4:	1afffffa 	bne	e00127b4 <branchFlushRange+0x18>
e00127c8:	e12fff1e 	bx	lr

e00127cc <doFlush>:
e00127cc:	e92d4070 	push	{r4, r5, r6, lr}
e00127d0:	e1a04001 	mov	r4, r1
e00127d4:	e1a05002 	mov	r5, r2
e00127d8:	e1a06003 	mov	r6, r3
e00127dc:	e240001e 	sub	r0, r0, #30
e00127e0:	e350000c 	cmp	r0, #12
e00127e4:	979ff100 	ldrls	pc, [pc, r0, lsl #2]
e00127e8:	ea00002a 	b	e0012898 <doFlush+0xcc>
e00127ec:	e0012820 	.word	0xe0012820
e00127f0:	e0012834 	.word	0xe0012834
e00127f4:	e0012848 	.word	0xe0012848
e00127f8:	e001285c 	.word	0xe001285c
e00127fc:	e0012898 	.word	0xe0012898
e0012800:	e0012898 	.word	0xe0012898
e0012804:	e0012898 	.word	0xe0012898
e0012808:	e0012898 	.word	0xe0012898
e001280c:	e0012898 	.word	0xe0012898
e0012810:	e0012820 	.word	0xe0012820
e0012814:	e0012834 	.word	0xe0012834
e0012818:	e0012848 	.word	0xe0012848
e001281c:	e001285c 	.word	0xe001285c
e0012820:	e1a02003 	mov	r2, r3
e0012824:	e1a01005 	mov	r1, r5
e0012828:	e1a00004 	mov	r0, r4
e001282c:	ebfffe9d 	bl	e00122a8 <cleanCacheRange_RAM>
e0012830:	e8bd8070 	pop	{r4, r5, r6, pc}
e0012834:	e1a02003 	mov	r2, r3
e0012838:	e1a01005 	mov	r1, r5
e001283c:	e1a00004 	mov	r0, r4
e0012840:	ebffff91 	bl	e001268c <invalidateCacheRange_RAM>
e0012844:	e8bd8070 	pop	{r4, r5, r6, pc}
e0012848:	e1a02003 	mov	r2, r3
e001284c:	e1a01005 	mov	r1, r5
e0012850:	e1a00004 	mov	r0, r4
e0012854:	ebfffe60 	bl	e00121dc <cleanInvalidateCacheRange_RAM>
e0012858:	e8bd8070 	pop	{r4, r5, r6, pc}
e001285c:	e1a02003 	mov	r2, r3
e0012860:	e1a01005 	mov	r1, r5
e0012864:	e1a00004 	mov	r0, r4
e0012868:	ebfffeb4 	bl	e0012340 <cleanCacheRange_PoU>
e001286c:	f57ff04f 	dsb	sy
e0012870:	e1a02006 	mov	r2, r6
e0012874:	e1a01005 	mov	r1, r5
e0012878:	e1a00004 	mov	r0, r4
e001287c:	ebffffb9 	bl	e0012768 <invalidateCacheRange_I>
e0012880:	e1a02006 	mov	r2, r6
e0012884:	e1a01005 	mov	r1, r5
e0012888:	e1a00004 	mov	r0, r4
e001288c:	ebffffc2 	bl	e001279c <branchFlushRange>
e0012890:	f57ff06f 	isb	sy
e0012894:	e8bd8070 	pop	{r4, r5, r6, pc}
e0012898:	ebfff7f4 	bl	e0010870 <halt>

e001289c <cleanCaches_PoU>:
e001289c:	e92d4010 	push	{r4, lr}
e00128a0:	f57ff04f 	dsb	sy
e00128a4:	ebfffdc9 	bl	e0011fd0 <clean_D_PoU>
e00128a8:	f57ff04f 	dsb	sy
e00128ac:	e3a03000 	mov	r3, #0
e00128b0:	ee073f15 	mcr	15, 0, r3, cr7, cr5, {0}
e00128b4:	f57ff06f 	isb	sy
e00128b8:	f57ff04f 	dsb	sy
e00128bc:	e8bd8010 	pop	{r4, pc}

e00128c0 <flushSpace>:
e00128c0:	e92d4010 	push	{r4, lr}
e00128c4:	ebfff7b7 	bl	e00107a8 <loadHWASID>
e00128c8:	e1a04000 	mov	r4, r0
e00128cc:	ebfffff2 	bl	e001289c <cleanCaches_PoU>
e00128d0:	e3140502 	tst	r4, #8388608	; 0x800000
e00128d4:	08bd8010 	popeq	{r4, pc}
e00128d8:	f57ff04f 	dsb	sy
e00128dc:	e1a04c24 	lsr	r4, r4, #24
e00128e0:	ee084f57 	mcr	15, 0, r4, cr8, cr7, {2}
e00128e4:	f57ff04f 	dsb	sy
e00128e8:	f57ff06f 	isb	sy
e00128ec:	e8bd8010 	pop	{r4, pc}

e00128f0 <deleteASIDPool>:
e00128f0:	e92d41f0 	push	{r4, r5, r6, r7, r8, lr}
e00128f4:	e1a07520 	lsr	r7, r0, #10
e00128f8:	e30932d8 	movw	r3, #37592	; 0x92d8
e00128fc:	e34e3002 	movt	r3, #57346	; 0xe002
e0012900:	e7936107 	ldr	r6, [r3, r7, lsl #2]
e0012904:	e1560001 	cmp	r6, r1
e0012908:	18bd81f0 	popne	{r4, r5, r6, r7, r8, pc}
e001290c:	e1a04000 	mov	r4, r0
e0012910:	e2465004 	sub	r5, r6, #4
e0012914:	e2866eff 	add	r6, r6, #4080	; 0xff0
e0012918:	e286600c 	add	r6, r6, #12
e001291c:	ea000002 	b	e001292c <deleteASIDPool+0x3c>
e0012920:	e2844001 	add	r4, r4, #1
e0012924:	e1550006 	cmp	r5, r6
e0012928:	0a000007 	beq	e001294c <deleteASIDPool+0x5c>
e001292c:	e5b53004 	ldr	r3, [r5, #4]!
e0012930:	e3530000 	cmp	r3, #0
e0012934:	0afffff9 	beq	e0012920 <deleteASIDPool+0x30>
e0012938:	e1a00004 	mov	r0, r4
e001293c:	ebffffdf 	bl	e00128c0 <flushSpace>
e0012940:	e1a00004 	mov	r0, r4
e0012944:	ebfff7a0 	bl	e00107cc <invalidateASIDEntry>
e0012948:	eafffff4 	b	e0012920 <deleteASIDPool+0x30>
e001294c:	e30932d8 	movw	r3, #37592	; 0x92d8
e0012950:	e34e3002 	movt	r3, #57346	; 0xe002
e0012954:	e3a02000 	mov	r2, #0
e0012958:	e7832107 	str	r2, [r3, r7, lsl #2]
e001295c:	e3013b34 	movw	r3, #6964	; 0x1b34
e0012960:	e34e3003 	movt	r3, #57347	; 0xe003
e0012964:	e5930000 	ldr	r0, [r3]
e0012968:	ebfffa8f 	bl	e00113ac <setVMRoot>
e001296c:	e8bd81f0 	pop	{r4, r5, r6, r7, r8, pc}

e0012970 <deleteASID>:
e0012970:	e92d4070 	push	{r4, r5, r6, lr}
e0012974:	e30932d8 	movw	r3, #37592	; 0x92d8
e0012978:	e34e3002 	movt	r3, #57346	; 0xe002
e001297c:	e1a02520 	lsr	r2, r0, #10
e0012980:	e7935102 	ldr	r5, [r3, r2, lsl #2]
e0012984:	e3550000 	cmp	r5, #0
e0012988:	08bd8070 	popeq	{r4, r5, r6, pc}
e001298c:	e7e96050 	ubfx	r6, r0, #0, #10
e0012990:	e7953106 	ldr	r3, [r5, r6, lsl #2]
e0012994:	e1530001 	cmp	r3, r1
e0012998:	18bd8070 	popne	{r4, r5, r6, pc}
e001299c:	e1a04000 	mov	r4, r0
e00129a0:	ebffffc6 	bl	e00128c0 <flushSpace>
e00129a4:	e1a00004 	mov	r0, r4
e00129a8:	ebfff787 	bl	e00107cc <invalidateASIDEntry>
e00129ac:	e3a03000 	mov	r3, #0
e00129b0:	e7853106 	str	r3, [r5, r6, lsl #2]
e00129b4:	e3013b34 	movw	r3, #6964	; 0x1b34
e00129b8:	e34e3003 	movt	r3, #57347	; 0xe003
e00129bc:	e5930000 	ldr	r0, [r3]
e00129c0:	ebfffa79 	bl	e00113ac <setVMRoot>
e00129c4:	e8bd8070 	pop	{r4, r5, r6, pc}

e00129c8 <Arch_finaliseCap>:
e00129c8:	e92d4010 	push	{r4, lr}
e00129cc:	e24dd008 	sub	sp, sp, #8
e00129d0:	e1a04000 	mov	r4, r0
e00129d4:	e28d0008 	add	r0, sp, #8
e00129d8:	e9000006 	stmdb	r0, {r1, r2}
e00129dc:	e59d0004 	ldr	r0, [sp, #4]
e00129e0:	e59d2000 	ldr	r2, [sp]
e00129e4:	e202100e 	and	r1, r2, #14
e00129e8:	e351000e 	cmp	r1, #14
e00129ec:	1202c00f 	andne	ip, r2, #15
e00129f0:	06efc072 	uxtbeq	ip, r2
e00129f4:	e24cc001 	sub	ip, ip, #1
e00129f8:	e35c0008 	cmp	ip, #8
e00129fc:	979ff10c 	ldrls	pc, [pc, ip, lsl #2]
e0012a00:	ea00000a 	b	e0012a30 <Arch_finaliseCap+0x68>
e0012a04:	e0012aac 	.word	0xe0012aac
e0012a08:	e0012a30 	.word	0xe0012a30
e0012a0c:	e0012ad8 	.word	0xe0012ad8
e0012a10:	e0012a30 	.word	0xe0012a30
e0012a14:	e0012a28 	.word	0xe0012a28
e0012a18:	e0012a30 	.word	0xe0012a30
e0012a1c:	e0012a84 	.word	0xe0012a84
e0012a20:	e0012a30 	.word	0xe0012a30
e0012a24:	e0012a60 	.word	0xe0012a60
e0012a28:	e3530000 	cmp	r3, #0
e0012a2c:	1a000007 	bne	e0012a50 <Arch_finaliseCap+0x88>
e0012a30:	e3a03000 	mov	r3, #0
e0012a34:	e5843000 	str	r3, [r4]
e0012a38:	e5843004 	str	r3, [r4, #4]
e0012a3c:	e5843008 	str	r3, [r4, #8]
e0012a40:	e584300c 	str	r3, [r4, #12]
e0012a44:	e1a00004 	mov	r0, r4
e0012a48:	e28dd008 	add	sp, sp, #8
e0012a4c:	e8bd8010 	pop	{r4, pc}
e0012a50:	e3c2100f 	bic	r1, r2, #15
e0012a54:	e7f00050 	ubfx	r0, r0, #0, #17
e0012a58:	ebffffa4 	bl	e00128f0 <deleteASIDPool>
e0012a5c:	eafffff3 	b	e0012a30 <Arch_finaliseCap+0x68>
e0012a60:	e3530000 	cmp	r3, #0
e0012a64:	0afffff1 	beq	e0012a30 <Arch_finaliseCap+0x68>
e0012a68:	e3120010 	tst	r2, #16
e0012a6c:	0affffef 	beq	e0012a30 <Arch_finaliseCap+0x68>
e0012a70:	e3c21dff 	bic	r1, r2, #16320	; 0x3fc0
e0012a74:	e3c1103f 	bic	r1, r1, #63	; 0x3f
e0012a78:	e7f00050 	ubfx	r0, r0, #0, #17
e0012a7c:	ebffffbb 	bl	e0012970 <deleteASID>
e0012a80:	eaffffea 	b	e0012a30 <Arch_finaliseCap+0x68>
e0012a84:	e3530000 	cmp	r3, #0
e0012a88:	0affffe8 	beq	e0012a30 <Arch_finaliseCap+0x68>
e0012a8c:	e3100202 	tst	r0, #536870912	; 0x20000000
e0012a90:	0affffe6 	beq	e0012a30 <Arch_finaliseCap+0x68>
e0012a94:	e3c22fff 	bic	r2, r2, #1020	; 0x3fc
e0012a98:	e3c22003 	bic	r2, r2, #3
e0012a9c:	e1a01a00 	lsl	r1, r0, #20
e0012aa0:	e7f00650 	ubfx	r0, r0, #12, #17
e0012aa4:	ebfffb01 	bl	e00116b0 <unmapPageTable>
e0012aa8:	eaffffe0 	b	e0012a30 <Arch_finaliseCap+0x68>
e0012aac:	e1a01722 	lsr	r1, r2, #14
e0012ab0:	e2011b7f 	and	r1, r1, #130048	; 0x1fc00
e0012ab4:	e0911b20 	adds	r1, r1, r0, lsr #22
e0012ab8:	0affffdc 	beq	e0012a30 <Arch_finaliseCap+0x68>
e0012abc:	e1a03402 	lsl	r3, r2, #8
e0012ac0:	e3c33eff 	bic	r3, r3, #4080	; 0xff0
e0012ac4:	e3c3300f 	bic	r3, r3, #15
e0012ac8:	e1a02600 	lsl	r2, r0, #12
e0012acc:	e3a00000 	mov	r0, #0
e0012ad0:	ebfffe27 	bl	e0012374 <unmapPage>
e0012ad4:	eaffffd5 	b	e0012a30 <Arch_finaliseCap+0x68>
e0012ad8:	e1a01622 	lsr	r1, r2, #12
e0012adc:	e2011b7f 	and	r1, r1, #130048	; 0x1fc00
e0012ae0:	e7e93a50 	ubfx	r3, r0, #20, #10
e0012ae4:	e1911003 	orrs	r1, r1, r3
e0012ae8:	0affffd0 	beq	e0012a30 <Arch_finaliseCap+0x68>
e0012aec:	e1a03502 	lsl	r3, r2, #10
e0012af0:	e3c33dff 	bic	r3, r3, #16320	; 0x3fc0
e0012af4:	e3c3303f 	bic	r3, r3, #63	; 0x3f
e0012af8:	e1a02700 	lsl	r2, r0, #14
e0012afc:	e1a00f20 	lsr	r0, r0, #30
e0012b00:	ebfffe1b 	bl	e0012374 <unmapPage>
e0012b04:	eaffffc9 	b	e0012a30 <Arch_finaliseCap+0x68>

e0012b08 <cleanInvalidateL1Caches>:
e0012b08:	e92d4010 	push	{r4, lr}
e0012b0c:	f57ff04f 	dsb	sy
e0012b10:	ebfffd66 	bl	e00120b0 <cleanInvalidate_D_PoC>
e0012b14:	f57ff04f 	dsb	sy
e0012b18:	e3a03000 	mov	r3, #0
e0012b1c:	ee073f15 	mcr	15, 0, r3, cr7, cr5, {0}
e0012b20:	f57ff06f 	isb	sy
e0012b24:	f57ff04f 	dsb	sy
e0012b28:	e8bd8010 	pop	{r4, pc}

e0012b2c <arch_clean_invalidate_caches>:
e0012b2c:	e92d4010 	push	{r4, lr}
e0012b30:	ebffff59 	bl	e001289c <cleanCaches_PoU>
e0012b34:	e30230ff 	movw	r3, #8447	; 0x20ff
e0012b38:	e34f3ff0 	movt	r3, #65520	; 0xfff0
e0012b3c:	e30f2fff 	movw	r2, #65535	; 0xffff
e0012b40:	e58326bd 	str	r2, [r3, #1725]	; 0x6bd
e0012b44:	e30220ff 	movw	r2, #8447	; 0x20ff
e0012b48:	e34f2ff0 	movt	r2, #65520	; 0xfff0
e0012b4c:	e59236bd 	ldr	r3, [r2, #1725]	; 0x6bd
e0012b50:	e3530000 	cmp	r3, #0
e0012b54:	1afffffc 	bne	e0012b4c <arch_clean_invalidate_caches+0x20>
e0012b58:	f57ff05f 	dmb	sy
e0012b5c:	e30230ff 	movw	r3, #8447	; 0x20ff
e0012b60:	e34f3ff0 	movt	r3, #65520	; 0xfff0
e0012b64:	e3a02000 	mov	r2, #0
e0012b68:	e5832631 	str	r2, [r3, #1585]	; 0x631
e0012b6c:	e30220ff 	movw	r2, #8447	; 0x20ff
e0012b70:	e34f2ff0 	movt	r2, #65520	; 0xfff0
e0012b74:	e5923631 	ldr	r3, [r2, #1585]	; 0x631
e0012b78:	e3130001 	tst	r3, #1
e0012b7c:	1afffffc 	bne	e0012b74 <arch_clean_invalidate_caches+0x48>
e0012b80:	e30230ff 	movw	r3, #8447	; 0x20ff
e0012b84:	e34f3ff0 	movt	r3, #65520	; 0xfff0
e0012b88:	e30f2fff 	movw	r2, #65535	; 0xffff
e0012b8c:	e583267d 	str	r2, [r3, #1661]	; 0x67d
e0012b90:	e30220ff 	movw	r2, #8447	; 0x20ff
e0012b94:	e34f2ff0 	movt	r2, #65520	; 0xfff0
e0012b98:	e592367d 	ldr	r3, [r2, #1661]	; 0x67d
e0012b9c:	e3530000 	cmp	r3, #0
e0012ba0:	1afffffc 	bne	e0012b98 <arch_clean_invalidate_caches+0x6c>
e0012ba4:	f57ff05f 	dmb	sy
e0012ba8:	e30230ff 	movw	r3, #8447	; 0x20ff
e0012bac:	e34f3ff0 	movt	r3, #65520	; 0xfff0
e0012bb0:	e3a02000 	mov	r2, #0
e0012bb4:	e5832631 	str	r2, [r3, #1585]	; 0x631
e0012bb8:	e30220ff 	movw	r2, #8447	; 0x20ff
e0012bbc:	e34f2ff0 	movt	r2, #65520	; 0xfff0
e0012bc0:	e5923631 	ldr	r3, [r2, #1585]	; 0x631
e0012bc4:	e3130001 	tst	r3, #1
e0012bc8:	1afffffc 	bne	e0012bc0 <arch_clean_invalidate_caches+0x94>
e0012bcc:	ebffffcd 	bl	e0012b08 <cleanInvalidateL1Caches>
e0012bd0:	f57ff06f 	isb	sy
e0012bd4:	e8bd8010 	pop	{r4, pc}

e0012bd8 <setIRQTrigger>:
e0012bd8:	e1a03220 	lsr	r3, r0, #4
e0012bdc:	e200000f 	and	r0, r0, #15
e0012be0:	e1a00080 	lsl	r0, r0, #1
e0012be4:	e3510000 	cmp	r1, #0
e0012be8:	e1a03103 	lsl	r3, r3, #2
e0012bec:	e2433aff 	sub	r3, r3, #1044480	; 0xff000
e0012bf0:	e5932c00 	ldr	r2, [r3, #3072]	; 0xc00
e0012bf4:	e2800001 	add	r0, r0, #1
e0012bf8:	e3a01001 	mov	r1, #1
e0012bfc:	11820011 	orrne	r0, r2, r1, lsl r0
e0012c00:	01c20011 	biceq	r0, r2, r1, lsl r0
e0012c04:	e5830c00 	str	r0, [r3, #3072]	; 0xc00
e0012c08:	e12fff1e 	bx	lr

e0012c0c <plat_cleanCache>:
e0012c0c:	e30230ff 	movw	r3, #8447	; 0x20ff
e0012c10:	e34f3ff0 	movt	r3, #65520	; 0xfff0
e0012c14:	e30f2fff 	movw	r2, #65535	; 0xffff
e0012c18:	e58326bd 	str	r2, [r3, #1725]	; 0x6bd
e0012c1c:	e30220ff 	movw	r2, #8447	; 0x20ff
e0012c20:	e34f2ff0 	movt	r2, #65520	; 0xfff0
e0012c24:	e59236bd 	ldr	r3, [r2, #1725]	; 0x6bd
e0012c28:	e6ff3073 	uxth	r3, r3
e0012c2c:	e3530000 	cmp	r3, #0
e0012c30:	1afffffb 	bne	e0012c24 <plat_cleanCache+0x18>
e0012c34:	f57ff05f 	dmb	sy
e0012c38:	e30230ff 	movw	r3, #8447	; 0x20ff
e0012c3c:	e34f3ff0 	movt	r3, #65520	; 0xfff0
e0012c40:	e3a02000 	mov	r2, #0
e0012c44:	e5832631 	str	r2, [r3, #1585]	; 0x631
e0012c48:	e30220ff 	movw	r2, #8447	; 0x20ff
e0012c4c:	e34f2ff0 	movt	r2, #65520	; 0xfff0
e0012c50:	e5923631 	ldr	r3, [r2, #1585]	; 0x631
e0012c54:	e3130001 	tst	r3, #1
e0012c58:	1afffffc 	bne	e0012c50 <plat_cleanCache+0x44>
e0012c5c:	e12fff1e 	bx	lr

e0012c60 <Arch_decodeTransfer>:
e0012c60:	e3a00000 	mov	r0, #0
e0012c64:	e12fff1e 	bx	lr

e0012c68 <Arch_performTransfer>:
e0012c68:	e3a00000 	mov	r0, #0
e0012c6c:	e12fff1e 	bx	lr

e0012c70 <Arch_setTCBIPCBuffer>:
e0012c70:	e580104c 	str	r1, [r0, #76]	; 0x4c
e0012c74:	e12fff1e 	bx	lr

e0012c78 <resolveAddressBits>:
e0012c78:	e92d41f0 	push	{r4, r5, r6, r7, r8, lr}
e0012c7c:	e24dd008 	sub	sp, sp, #8
e0012c80:	e28dc008 	add	ip, sp, #8
e0012c84:	e90c0006 	stmdb	ip, {r1, r2}
e0012c88:	e59d1000 	ldr	r1, [sp]
e0012c8c:	e59d4004 	ldr	r4, [sp, #4]
e0012c90:	e201200e 	and	r2, r1, #14
e0012c94:	e352000e 	cmp	r2, #14
e0012c98:	1201200f 	andne	r2, r1, #15
e0012c9c:	06ef2071 	uxtbeq	r2, r1
e0012ca0:	e352000a 	cmp	r2, #10
e0012ca4:	059d2020 	ldreq	r2, [sp, #32]
e0012ca8:	03e07000 	mvneq	r7, #0
e0012cac:	1a000019 	bne	e0012d18 <resolveAddressBits+0xa0>
e0012cb0:	e7e48954 	ubfx	r8, r4, #18, #5
e0012cb4:	e7e4cbd4 	ubfx	ip, r4, #23, #5
e0012cb8:	e08ce008 	add	lr, ip, r8
e0012cbc:	e7f14054 	ubfx	r4, r4, #0, #18
e0012cc0:	e042500c 	sub	r5, r2, ip
e0012cc4:	e205601f 	and	r6, r5, #31
e0012cc8:	e1e05c17 	mvn	r5, r7, lsl ip
e0012ccc:	e0055633 	and	r5, r5, r3, lsr r6
e0012cd0:	e152000c 	cmp	r2, ip
e0012cd4:	21550004 	cmpcs	r5, r4
e0012cd8:	1a000019 	bne	e0012d44 <resolveAddressBits+0xcc>
e0012cdc:	e152000e 	cmp	r2, lr
e0012ce0:	3a000027 	bcc	e0012d84 <resolveAddressBits+0x10c>
e0012ce4:	e042500e 	sub	r5, r2, lr
e0012ce8:	e1a0c533 	lsr	ip, r3, r5
e0012cec:	e1ccc817 	bic	ip, ip, r7, lsl r8
e0012cf0:	e3c1101f 	bic	r1, r1, #31
e0012cf4:	e081620c 	add	r6, r1, ip, lsl #4
e0012cf8:	e152000e 	cmp	r2, lr
e0012cfc:	8a000030 	bhi	e0012dc4 <resolveAddressBits+0x14c>
e0012d00:	e3a03000 	mov	r3, #0
e0012d04:	e5803000 	str	r3, [r0]
e0012d08:	e5806004 	str	r6, [r0, #4]
e0012d0c:	e5803008 	str	r3, [r0, #8]
e0012d10:	e28dd008 	add	sp, sp, #8
e0012d14:	e8bd81f0 	pop	{r4, r5, r6, r7, r8, pc}
e0012d18:	e3093024 	movw	r3, #36900	; 0x9024
e0012d1c:	e34e3002 	movt	r3, #57346	; 0xe002
e0012d20:	e3a02000 	mov	r2, #0
e0012d24:	e5832000 	str	r2, [r3]
e0012d28:	e5832004 	str	r2, [r3, #4]
e0012d2c:	e3a03002 	mov	r3, #2
e0012d30:	e5803000 	str	r3, [r0]
e0012d34:	e5802004 	str	r2, [r0, #4]
e0012d38:	e59d3020 	ldr	r3, [sp, #32]
e0012d3c:	e5803008 	str	r3, [r0, #8]
e0012d40:	eafffff2 	b	e0012d10 <resolveAddressBits+0x98>
e0012d44:	e3093024 	movw	r3, #36900	; 0x9024
e0012d48:	e34e3002 	movt	r3, #57346	; 0xe002
e0012d4c:	e1a0c10c 	lsl	ip, ip, #2
e0012d50:	e38cc003 	orr	ip, ip, #3
e0012d54:	e1a02402 	lsl	r2, r2, #8
e0012d58:	e2022c3f 	and	r2, r2, #16128	; 0x3f00
e0012d5c:	e18c2002 	orr	r2, ip, r2
e0012d60:	e5832000 	str	r2, [r3]
e0012d64:	e5834004 	str	r4, [r3, #4]
e0012d68:	e3a03002 	mov	r3, #2
e0012d6c:	e5803000 	str	r3, [r0]
e0012d70:	e3a03000 	mov	r3, #0
e0012d74:	e5803004 	str	r3, [r0, #4]
e0012d78:	e59d3020 	ldr	r3, [sp, #32]
e0012d7c:	e5803008 	str	r3, [r0, #8]
e0012d80:	eaffffe2 	b	e0012d10 <resolveAddressBits+0x98>
e0012d84:	e3093024 	movw	r3, #36900	; 0x9024
e0012d88:	e34e3002 	movt	r3, #57346	; 0xe002
e0012d8c:	e1a0e40e 	lsl	lr, lr, #8
e0012d90:	e38ee002 	orr	lr, lr, #2
e0012d94:	e1a02102 	lsl	r2, r2, #2
e0012d98:	e6ef2072 	uxtb	r2, r2
e0012d9c:	e18e2002 	orr	r2, lr, r2
e0012da0:	e5832000 	str	r2, [r3]
e0012da4:	e3a02000 	mov	r2, #0
e0012da8:	e5832004 	str	r2, [r3, #4]
e0012dac:	e3a03002 	mov	r3, #2
e0012db0:	e5803000 	str	r3, [r0]
e0012db4:	e5802004 	str	r2, [r0, #4]
e0012db8:	e59d3020 	ldr	r3, [sp, #32]
e0012dbc:	e5803008 	str	r3, [r0, #8]
e0012dc0:	eaffffd2 	b	e0012d10 <resolveAddressBits+0x98>
e0012dc4:	e791120c 	ldr	r1, [r1, ip, lsl #4]
e0012dc8:	e5964004 	ldr	r4, [r6, #4]
e0012dcc:	e201200e 	and	r2, r1, #14
e0012dd0:	e352000e 	cmp	r2, #14
e0012dd4:	1201c00f 	andne	ip, r1, #15
e0012dd8:	06efc071 	uxtbeq	ip, r1
e0012ddc:	e1a02005 	mov	r2, r5
e0012de0:	e35c000a 	cmp	ip, #10
e0012de4:	0affffb1 	beq	e0012cb0 <resolveAddressBits+0x38>
e0012de8:	e3a03000 	mov	r3, #0
e0012dec:	e5803000 	str	r3, [r0]
e0012df0:	e5806004 	str	r6, [r0, #4]
e0012df4:	e5805008 	str	r5, [r0, #8]
e0012df8:	eaffffc4 	b	e0012d10 <resolveAddressBits+0x98>

e0012dfc <lookupSlot>:
e0012dfc:	e92d4010 	push	{r4, lr}
e0012e00:	e24dd020 	sub	sp, sp, #32
e0012e04:	e1a04000 	mov	r4, r0
e0012e08:	e3c11f7f 	bic	r1, r1, #508	; 0x1fc
e0012e0c:	e3c11003 	bic	r1, r1, #3
e0012e10:	e28dc018 	add	ip, sp, #24
e0012e14:	e8910003 	ldm	r1, {r0, r1}
e0012e18:	e88c0003 	stm	ip, {r0, r1}
e0012e1c:	e3a03020 	mov	r3, #32
e0012e20:	e58d3000 	str	r3, [sp]
e0012e24:	e1a03002 	mov	r3, r2
e0012e28:	e89c0006 	ldm	ip, {r1, r2}
e0012e2c:	e28d000c 	add	r0, sp, #12
e0012e30:	ebffff90 	bl	e0012c78 <resolveAddressBits>
e0012e34:	e59d300c 	ldr	r3, [sp, #12]
e0012e38:	e5843000 	str	r3, [r4]
e0012e3c:	e59d3010 	ldr	r3, [sp, #16]
e0012e40:	e5843004 	str	r3, [r4, #4]
e0012e44:	e1a00004 	mov	r0, r4
e0012e48:	e28dd020 	add	sp, sp, #32
e0012e4c:	e8bd8010 	pop	{r4, pc}

e0012e50 <lookupCap>:
e0012e50:	e92d4010 	push	{r4, lr}
e0012e54:	e24dd008 	sub	sp, sp, #8
e0012e58:	e1a04000 	mov	r4, r0
e0012e5c:	e1a0000d 	mov	r0, sp
e0012e60:	ebffffe5 	bl	e0012dfc <lookupSlot>
e0012e64:	e59d3000 	ldr	r3, [sp]
e0012e68:	e3530000 	cmp	r3, #0
e0012e6c:	15843000 	strne	r3, [r4]
e0012e70:	13a03000 	movne	r3, #0
e0012e74:	15843004 	strne	r3, [r4, #4]
e0012e78:	059d3004 	ldreq	r3, [sp, #4]
e0012e7c:	05932000 	ldreq	r2, [r3]
e0012e80:	05933004 	ldreq	r3, [r3, #4]
e0012e84:	03a01000 	moveq	r1, #0
e0012e88:	05841000 	streq	r1, [r4]
e0012e8c:	05842004 	streq	r2, [r4, #4]
e0012e90:	e5843008 	str	r3, [r4, #8]
e0012e94:	e1a00004 	mov	r0, r4
e0012e98:	e28dd008 	add	sp, sp, #8
e0012e9c:	e8bd8010 	pop	{r4, pc}

e0012ea0 <lookupCapAndSlot>:
e0012ea0:	e92d4010 	push	{r4, lr}
e0012ea4:	e24dd008 	sub	sp, sp, #8
e0012ea8:	e1a04000 	mov	r4, r0
e0012eac:	e1a0000d 	mov	r0, sp
e0012eb0:	ebffffd1 	bl	e0012dfc <lookupSlot>
e0012eb4:	e59d2000 	ldr	r2, [sp]
e0012eb8:	e59d3004 	ldr	r3, [sp, #4]
e0012ebc:	e3520000 	cmp	r2, #0
e0012ec0:	15842000 	strne	r2, [r4]
e0012ec4:	13a03000 	movne	r3, #0
e0012ec8:	15843004 	strne	r3, [r4, #4]
e0012ecc:	15843008 	strne	r3, [r4, #8]
e0012ed0:	05931000 	ldreq	r1, [r3]
e0012ed4:	05932004 	ldreq	r2, [r3, #4]
e0012ed8:	03a00000 	moveq	r0, #0
e0012edc:	05840000 	streq	r0, [r4]
e0012ee0:	05841004 	streq	r1, [r4, #4]
e0012ee4:	05842008 	streq	r2, [r4, #8]
e0012ee8:	e584300c 	str	r3, [r4, #12]
e0012eec:	e1a00004 	mov	r0, r4
e0012ef0:	e28dd008 	add	sp, sp, #8
e0012ef4:	e8bd8010 	pop	{r4, pc}

e0012ef8 <lookupSlotForCNodeOp>:
e0012ef8:	e92d4030 	push	{r4, r5, lr}
e0012efc:	e24dd024 	sub	sp, sp, #36	; 0x24
e0012f00:	e1a04000 	mov	r4, r0
e0012f04:	e1a05001 	mov	r5, r1
e0012f08:	e28d1008 	add	r1, sp, #8
e0012f0c:	e881000c 	stm	r1, {r2, r3}
e0012f10:	e59d2034 	ldr	r2, [sp, #52]	; 0x34
e0012f14:	e59d3008 	ldr	r3, [sp, #8]
e0012f18:	e203100e 	and	r1, r3, #14
e0012f1c:	e351000e 	cmp	r1, #14
e0012f20:	1203300f 	andne	r3, r3, #15
e0012f24:	06ef3073 	uxtbeq	r3, r3
e0012f28:	e353000a 	cmp	r3, #10
e0012f2c:	1a000015 	bne	e0012f88 <lookupSlotForCNodeOp+0x90>
e0012f30:	e2423001 	sub	r3, r2, #1
e0012f34:	e353001f 	cmp	r3, #31
e0012f38:	8a000020 	bhi	e0012fc0 <lookupSlotForCNodeOp+0xc8>
e0012f3c:	e58d2000 	str	r2, [sp]
e0012f40:	e59d3030 	ldr	r3, [sp, #48]	; 0x30
e0012f44:	e28d2008 	add	r2, sp, #8
e0012f48:	e8920006 	ldm	r2, {r1, r2}
e0012f4c:	e28d0014 	add	r0, sp, #20
e0012f50:	ebffff48 	bl	e0012c78 <resolveAddressBits>
e0012f54:	e59d301c 	ldr	r3, [sp, #28]
e0012f58:	e59d2014 	ldr	r2, [sp, #20]
e0012f5c:	e3520000 	cmp	r2, #0
e0012f60:	1a000023 	bne	e0012ff4 <lookupSlotForCNodeOp+0xfc>
e0012f64:	e3530000 	cmp	r3, #0
e0012f68:	1a00002b 	bne	e001301c <lookupSlotForCNodeOp+0x124>
e0012f6c:	e3a03000 	mov	r3, #0
e0012f70:	e5843000 	str	r3, [r4]
e0012f74:	e59d3018 	ldr	r3, [sp, #24]
e0012f78:	e5843004 	str	r3, [r4, #4]
e0012f7c:	e1a00004 	mov	r0, r4
e0012f80:	e28dd024 	add	sp, sp, #36	; 0x24
e0012f84:	e8bd8030 	pop	{r4, r5, pc}
e0012f88:	e3093030 	movw	r3, #36912	; 0x9030
e0012f8c:	e34e3002 	movt	r3, #57346	; 0xe002
e0012f90:	e3a02006 	mov	r2, #6
e0012f94:	e5832018 	str	r2, [r3, #24]
e0012f98:	e5835014 	str	r5, [r3, #20]
e0012f9c:	e3093024 	movw	r3, #36900	; 0x9024
e0012fa0:	e34e3002 	movt	r3, #57346	; 0xe002
e0012fa4:	e3a02000 	mov	r2, #0
e0012fa8:	e5832000 	str	r2, [r3]
e0012fac:	e5832004 	str	r2, [r3, #4]
e0012fb0:	e3a03003 	mov	r3, #3
e0012fb4:	e5803000 	str	r3, [r0]
e0012fb8:	e5802004 	str	r2, [r0, #4]
e0012fbc:	eaffffee 	b	e0012f7c <lookupSlotForCNodeOp+0x84>
e0012fc0:	e3093030 	movw	r3, #36912	; 0x9030
e0012fc4:	e34e3002 	movt	r3, #57346	; 0xe002
e0012fc8:	e3a02004 	mov	r2, #4
e0012fcc:	e5832018 	str	r2, [r3, #24]
e0012fd0:	e3a02001 	mov	r2, #1
e0012fd4:	e5832008 	str	r2, [r3, #8]
e0012fd8:	e3a02020 	mov	r2, #32
e0012fdc:	e583200c 	str	r2, [r3, #12]
e0012fe0:	e3a03003 	mov	r3, #3
e0012fe4:	e5803000 	str	r3, [r0]
e0012fe8:	e3a03000 	mov	r3, #0
e0012fec:	e5803004 	str	r3, [r0, #4]
e0012ff0:	eaffffe1 	b	e0012f7c <lookupSlotForCNodeOp+0x84>
e0012ff4:	e3093030 	movw	r3, #36912	; 0x9030
e0012ff8:	e34e3002 	movt	r3, #57346	; 0xe002
e0012ffc:	e3a02006 	mov	r2, #6
e0013000:	e5832018 	str	r2, [r3, #24]
e0013004:	e5835014 	str	r5, [r3, #20]
e0013008:	e3a03003 	mov	r3, #3
e001300c:	e5843000 	str	r3, [r4]
e0013010:	e3a03000 	mov	r3, #0
e0013014:	e5843004 	str	r3, [r4, #4]
e0013018:	eaffffd7 	b	e0012f7c <lookupSlotForCNodeOp+0x84>
e001301c:	e3092030 	movw	r2, #36912	; 0x9030
e0013020:	e34e2002 	movt	r2, #57346	; 0xe002
e0013024:	e3a01006 	mov	r1, #6
e0013028:	e5821018 	str	r1, [r2, #24]
e001302c:	e5825014 	str	r5, [r2, #20]
e0013030:	e3092024 	movw	r2, #36900	; 0x9024
e0013034:	e34e2002 	movt	r2, #57346	; 0xe002
e0013038:	e1a03103 	lsl	r3, r3, #2
e001303c:	e6ef3073 	uxtb	r3, r3
e0013040:	e3833002 	orr	r3, r3, #2
e0013044:	e5823000 	str	r3, [r2]
e0013048:	e3a03000 	mov	r3, #0
e001304c:	e5823004 	str	r3, [r2, #4]
e0013050:	e3a02003 	mov	r2, #3
e0013054:	e5842000 	str	r2, [r4]
e0013058:	e5843004 	str	r3, [r4, #4]
e001305c:	eaffffc6 	b	e0012f7c <lookupSlotForCNodeOp+0x84>

e0013060 <lookupSourceSlot>:
e0013060:	e92d4010 	push	{r4, lr}
e0013064:	e24dd010 	sub	sp, sp, #16
e0013068:	e1a04000 	mov	r4, r0
e001306c:	e28dc008 	add	ip, sp, #8
e0013070:	e88c0006 	stm	ip, {r1, r2}
e0013074:	e59d2018 	ldr	r2, [sp, #24]
e0013078:	e58d2004 	str	r2, [sp, #4]
e001307c:	e58d3000 	str	r3, [sp]
e0013080:	e89c000c 	ldm	ip, {r2, r3}
e0013084:	e3a01001 	mov	r1, #1
e0013088:	ebffff9a 	bl	e0012ef8 <lookupSlotForCNodeOp>
e001308c:	e1a00004 	mov	r0, r4
e0013090:	e28dd010 	add	sp, sp, #16
e0013094:	e8bd8010 	pop	{r4, pc}

e0013098 <lookupTargetSlot>:
e0013098:	e92d4010 	push	{r4, lr}
e001309c:	e24dd010 	sub	sp, sp, #16
e00130a0:	e1a04000 	mov	r4, r0
e00130a4:	e28dc008 	add	ip, sp, #8
e00130a8:	e88c0006 	stm	ip, {r1, r2}
e00130ac:	e59d2018 	ldr	r2, [sp, #24]
e00130b0:	e58d2004 	str	r2, [sp, #4]
e00130b4:	e58d3000 	str	r3, [sp]
e00130b8:	e89c000c 	ldm	ip, {r2, r3}
e00130bc:	e3a01000 	mov	r1, #0
e00130c0:	ebffff8c 	bl	e0012ef8 <lookupSlotForCNodeOp>
e00130c4:	e1a00004 	mov	r0, r4
e00130c8:	e28dd010 	add	sp, sp, #16
e00130cc:	e8bd8010 	pop	{r4, pc}

e00130d0 <lookupPivotSlot>:
e00130d0:	e92d4010 	push	{r4, lr}
e00130d4:	e24dd010 	sub	sp, sp, #16
e00130d8:	e1a04000 	mov	r4, r0
e00130dc:	e28dc008 	add	ip, sp, #8
e00130e0:	e88c0006 	stm	ip, {r1, r2}
e00130e4:	e59d2018 	ldr	r2, [sp, #24]
e00130e8:	e58d2004 	str	r2, [sp, #4]
e00130ec:	e58d3000 	str	r3, [sp]
e00130f0:	e89c000c 	ldm	ip, {r2, r3}
e00130f4:	e3a01001 	mov	r1, #1
e00130f8:	ebffff7e 	bl	e0012ef8 <lookupSlotForCNodeOp>
e00130fc:	e1a00004 	mov	r0, r4
e0013100:	e28dd010 	add	sp, sp, #16
e0013104:	e8bd8010 	pop	{r4, pc}

e0013108 <doFaultTransfer>:
e0013108:	e92d4070 	push	{r4, r5, r6, lr}
e001310c:	e1a06000 	mov	r6, r0
e0013110:	e1a05001 	mov	r5, r1
e0013114:	e1a04002 	mov	r4, r2
e0013118:	e1a02003 	mov	r2, r3
e001311c:	e1a01004 	mov	r1, r4
e0013120:	e1a00005 	mov	r0, r5
e0013124:	ebfffb3f 	bl	e0011e28 <setMRs_fault>
e0013128:	e5953060 	ldr	r3, [r5, #96]	; 0x60
e001312c:	e1a03603 	lsl	r3, r3, #12
e0013130:	e2033a07 	and	r3, r3, #28672	; 0x7000
e0013134:	e200007f 	and	r0, r0, #127	; 0x7f
e0013138:	e1833000 	orr	r3, r3, r0
e001313c:	e5843004 	str	r3, [r4, #4]
e0013140:	e5846000 	str	r6, [r4]
e0013144:	e8bd8070 	pop	{r4, r5, r6, pc}

e0013148 <doNBRecvFailedTransfer>:
e0013148:	e3a03000 	mov	r3, #0
e001314c:	e5803000 	str	r3, [r0]
e0013150:	e12fff1e 	bx	lr

e0013154 <switchToIdleThread>:
e0013154:	e92d4010 	push	{r4, lr}
e0013158:	ebfff8d1 	bl	e00114a4 <Arch_switchToIdleThread>
e001315c:	e3013b34 	movw	r3, #6964	; 0x1b34
e0013160:	e34e3003 	movt	r3, #57347	; 0xe003
e0013164:	e3092020 	movw	r2, #36896	; 0x9020
e0013168:	e34e2002 	movt	r2, #57346	; 0xe002
e001316c:	e5922000 	ldr	r2, [r2]
e0013170:	e5832000 	str	r2, [r3]
e0013174:	e8bd8010 	pop	{r4, pc}

e0013178 <setMCPriority>:
e0013178:	e5801074 	str	r1, [r0, #116]	; 0x74
e001317c:	e12fff1e 	bx	lr

e0013180 <preemptionPoint>:
e0013180:	e30136ec 	movw	r3, #5868	; 0x16ec
e0013184:	e34e3003 	movt	r3, #57347	; 0xe003
e0013188:	e5933000 	ldr	r3, [r3]
e001318c:	e2833001 	add	r3, r3, #1
e0013190:	e3530063 	cmp	r3, #99	; 0x63
e0013194:	9a00000b 	bls	e00131c8 <preemptionPoint+0x48>
e0013198:	e30136ec 	movw	r3, #5868	; 0x16ec
e001319c:	e34e3003 	movt	r3, #57347	; 0xe003
e00131a0:	e3a02000 	mov	r2, #0
e00131a4:	e5832000 	str	r2, [r3]
e00131a8:	e30031ff 	movw	r3, #511	; 0x1ff
e00131ac:	e34f3ff0 	movt	r3, #65520	; 0xfff0
e00131b0:	e51330e7 	ldr	r3, [r3, #-231]	; 0xffffff19
e00131b4:	e7e93053 	ubfx	r3, r3, #0, #10
e00131b8:	e3530fff 	cmp	r3, #1020	; 0x3fc
e00131bc:	33a00004 	movcc	r0, #4
e00131c0:	21a00002 	movcs	r0, r2
e00131c4:	e12fff1e 	bx	lr
e00131c8:	e30126ec 	movw	r2, #5868	; 0x16ec
e00131cc:	e34e2003 	movt	r2, #57347	; 0xe003
e00131d0:	e5823000 	str	r3, [r2]
e00131d4:	e3a00000 	mov	r0, #0
e00131d8:	e12fff1e 	bx	lr

e00131dc <cteInsert>:
e00131dc:	e92d41f0 	push	{r4, r5, r6, r7, r8, lr}
e00131e0:	e24dd008 	sub	sp, sp, #8
e00131e4:	e28dc008 	add	ip, sp, #8
e00131e8:	e90c0003 	stmdb	ip, {r0, r1}
e00131ec:	e592e008 	ldr	lr, [r2, #8]
e00131f0:	e592c00c 	ldr	ip, [r2, #12]
e00131f4:	e5924000 	ldr	r4, [r2]
e00131f8:	e5927004 	ldr	r7, [r2, #4]
e00131fc:	e59d0000 	ldr	r0, [sp]
e0013200:	e59d6004 	ldr	r6, [sp, #4]
e0013204:	e200500e 	and	r5, r0, #14
e0013208:	e355000e 	cmp	r5, #14
e001320c:	1200100f 	andne	r1, r0, #15
e0013210:	06ef1070 	uxtbeq	r1, r0
e0013214:	e3110001 	tst	r1, #1
e0013218:	13a01000 	movne	r1, #0
e001321c:	1a000035 	bne	e00132f8 <cteInsert+0x11c>
e0013220:	e2411002 	sub	r1, r1, #2
e0013224:	e351001c 	cmp	r1, #28
e0013228:	979ff101 	ldrls	pc, [pc, r1, lsl #2]
e001322c:	ea00001c 	b	e00132a4 <cteInsert+0xc8>
e0013230:	e00132f4 	.word	0xe00132f4
e0013234:	e00132a4 	.word	0xe00132a4
e0013238:	e00132ac 	.word	0xe00132ac
e001323c:	e00132a4 	.word	0xe00132a4
e0013240:	e00132c0 	.word	0xe00132c0
e0013244:	e00132a4 	.word	0xe00132a4
e0013248:	e00132a4 	.word	0xe00132a4
e001324c:	e00132a4 	.word	0xe00132a4
e0013250:	e00132a4 	.word	0xe00132a4
e0013254:	e00132a4 	.word	0xe00132a4
e0013258:	e00132a4 	.word	0xe00132a4
e001325c:	e00132a4 	.word	0xe00132a4
e0013260:	e00132a4 	.word	0xe00132a4
e0013264:	e00132a4 	.word	0xe00132a4
e0013268:	e00132a4 	.word	0xe00132a4
e001326c:	e00132a4 	.word	0xe00132a4
e0013270:	e00132a4 	.word	0xe00132a4
e0013274:	e00132a4 	.word	0xe00132a4
e0013278:	e00132a4 	.word	0xe00132a4
e001327c:	e00132a4 	.word	0xe00132a4
e0013280:	e00132a4 	.word	0xe00132a4
e0013284:	e00132a4 	.word	0xe00132a4
e0013288:	e00132a4 	.word	0xe00132a4
e001328c:	e00132a4 	.word	0xe00132a4
e0013290:	e00132a4 	.word	0xe00132a4
e0013294:	e00132a4 	.word	0xe00132a4
e0013298:	e00132a4 	.word	0xe00132a4
e001329c:	e00132a4 	.word	0xe00132a4
e00132a0:	e00132d4 	.word	0xe00132d4
e00132a4:	e3a01000 	mov	r1, #0
e00132a8:	ea000012 	b	e00132f8 <cteInsert+0x11c>
e00132ac:	e1a01224 	lsr	r1, r4, #4
e00132b0:	e1510220 	cmp	r1, r0, lsr #4
e00132b4:	13a01001 	movne	r1, #1
e00132b8:	03a01000 	moveq	r1, #0
e00132bc:	ea00000d 	b	e00132f8 <cteInsert+0x11c>
e00132c0:	e1a01227 	lsr	r1, r7, #4
e00132c4:	e1510226 	cmp	r1, r6, lsr #4
e00132c8:	13a01001 	movne	r1, #1
e00132cc:	03a01000 	moveq	r1, #0
e00132d0:	ea000008 	b	e00132f8 <cteInsert+0x11c>
e00132d4:	e204100e 	and	r1, r4, #14
e00132d8:	e351000e 	cmp	r1, #14
e00132dc:	1204100f 	andne	r1, r4, #15
e00132e0:	06ef1074 	uxtbeq	r1, r4
e00132e4:	e351000e 	cmp	r1, #14
e00132e8:	13a01000 	movne	r1, #0
e00132ec:	03a01001 	moveq	r1, #1
e00132f0:	ea000000 	b	e00132f8 <cteInsert+0x11c>
e00132f4:	e3a01001 	mov	r1, #1
e00132f8:	e20ee007 	and	lr, lr, #7
e00132fc:	e3c28007 	bic	r8, r2, #7
e0013300:	e18ee008 	orr	lr, lr, r8
e0013304:	e3ccc002 	bic	ip, ip, #2
e0013308:	e18cc081 	orr	ip, ip, r1, lsl #1
e001330c:	e3ccc001 	bic	ip, ip, #1
e0013310:	e18cc001 	orr	ip, ip, r1
e0013314:	e204100e 	and	r1, r4, #14
e0013318:	e351000e 	cmp	r1, #14
e001331c:	1204100f 	andne	r1, r4, #15
e0013320:	06ef1074 	uxtbeq	r1, r4
e0013324:	e3510002 	cmp	r1, #2
e0013328:	0a000010 	beq	e0013370 <cteInsert+0x194>
e001332c:	e28d1008 	add	r1, sp, #8
e0013330:	e9110003 	ldmdb	r1, {r0, r1}
e0013334:	e8830003 	stm	r3, {r0, r1}
e0013338:	e583e008 	str	lr, [r3, #8]
e001333c:	e583c00c 	str	ip, [r3, #12]
e0013340:	e3c33007 	bic	r3, r3, #7
e0013344:	e592100c 	ldr	r1, [r2, #12]
e0013348:	e2011007 	and	r1, r1, #7
e001334c:	e1811003 	orr	r1, r1, r3
e0013350:	e582100c 	str	r1, [r2, #12]
e0013354:	e3dcc007 	bics	ip, ip, #7
e0013358:	159c2008 	ldrne	r2, [ip, #8]
e001335c:	12022007 	andne	r2, r2, #7
e0013360:	11823003 	orrne	r3, r2, r3
e0013364:	158c3008 	strne	r3, [ip, #8]
e0013368:	e28dd008 	add	sp, sp, #8
e001336c:	e8bd81f0 	pop	{r4, r5, r6, r7, r8, pc}
e0013370:	e355000e 	cmp	r5, #14
e0013374:	1200100f 	andne	r1, r0, #15
e0013378:	06ef1070 	uxtbeq	r1, r0
e001337c:	e3510002 	cmp	r1, #2
e0013380:	1affffe9 	bne	e001332c <cteInsert+0x150>
e0013384:	e3c4400f 	bic	r4, r4, #15
e0013388:	e3c0000f 	bic	r0, r0, #15
e001338c:	e1540000 	cmp	r4, r0
e0013390:	1affffe5 	bne	e001332c <cteInsert+0x150>
e0013394:	e206601f 	and	r6, r6, #31
e0013398:	e207701f 	and	r7, r7, #31
e001339c:	e1560007 	cmp	r6, r7
e00133a0:	1affffe1 	bne	e001332c <cteInsert+0x150>
e00133a4:	e2466004 	sub	r6, r6, #4
e00133a8:	e5921004 	ldr	r1, [r2, #4]
e00133ac:	e201103f 	and	r1, r1, #63	; 0x3f
e00133b0:	e3a00040 	mov	r0, #64	; 0x40
e00133b4:	e1816610 	orr	r6, r1, r0, lsl r6
e00133b8:	e5826004 	str	r6, [r2, #4]
e00133bc:	eaffffda 	b	e001332c <cteInsert+0x150>

e00133c0 <invokeCNodeInsert>:
e00133c0:	e52de004 	push	{lr}		; (str lr, [sp, #-4]!)
e00133c4:	e24dd00c 	sub	sp, sp, #12
e00133c8:	e1a0c00d 	mov	ip, sp
e00133cc:	e88c0003 	stm	ip, {r0, r1}
e00133d0:	e89c0003 	ldm	ip, {r0, r1}
e00133d4:	ebffff80 	bl	e00131dc <cteInsert>
e00133d8:	e3a00000 	mov	r0, #0
e00133dc:	e28dd00c 	add	sp, sp, #12
e00133e0:	e49df004 	pop	{pc}		; (ldr pc, [sp], #4)

e00133e4 <cteMove>:
e00133e4:	e92d4010 	push	{r4, lr}
e00133e8:	e24dd008 	sub	sp, sp, #8
e00133ec:	e1a0400d 	mov	r4, sp
e00133f0:	e8840003 	stm	r4, {r0, r1}
e00133f4:	e592e008 	ldr	lr, [r2, #8]
e00133f8:	e592c00c 	ldr	ip, [r2, #12]
e00133fc:	e8940003 	ldm	r4, {r0, r1}
e0013400:	e8830003 	stm	r3, {r0, r1}
e0013404:	e3a01000 	mov	r1, #0
e0013408:	e5821000 	str	r1, [r2]
e001340c:	e5821004 	str	r1, [r2, #4]
e0013410:	e583e008 	str	lr, [r3, #8]
e0013414:	e583c00c 	str	ip, [r3, #12]
e0013418:	e5821008 	str	r1, [r2, #8]
e001341c:	e582100c 	str	r1, [r2, #12]
e0013420:	e3dee007 	bics	lr, lr, #7
e0013424:	159e200c 	ldrne	r2, [lr, #12]
e0013428:	12022007 	andne	r2, r2, #7
e001342c:	13c31007 	bicne	r1, r3, #7
e0013430:	11822001 	orrne	r2, r2, r1
e0013434:	158e200c 	strne	r2, [lr, #12]
e0013438:	e3dcc007 	bics	ip, ip, #7
e001343c:	159c2008 	ldrne	r2, [ip, #8]
e0013440:	12022007 	andne	r2, r2, #7
e0013444:	13c33007 	bicne	r3, r3, #7
e0013448:	11823003 	orrne	r3, r2, r3
e001344c:	158c3008 	strne	r3, [ip, #8]
e0013450:	e28dd008 	add	sp, sp, #8
e0013454:	e8bd8010 	pop	{r4, pc}

e0013458 <invokeCNodeMove>:
e0013458:	e52de004 	push	{lr}		; (str lr, [sp, #-4]!)
e001345c:	e24dd00c 	sub	sp, sp, #12
e0013460:	e1a0c00d 	mov	ip, sp
e0013464:	e88c0003 	stm	ip, {r0, r1}
e0013468:	e89c0003 	ldm	ip, {r0, r1}
e001346c:	ebffffdc 	bl	e00133e4 <cteMove>
e0013470:	e3a00000 	mov	r0, #0
e0013474:	e28dd00c 	add	sp, sp, #12
e0013478:	e49df004 	pop	{pc}		; (ldr pc, [sp], #4)

e001347c <invokeCNodeSaveCaller>:
e001347c:	e52de004 	push	{lr}		; (str lr, [sp, #-4]!)
e0013480:	e24dd00c 	sub	sp, sp, #12
e0013484:	e1a03000 	mov	r3, r0
e0013488:	e3012b34 	movw	r2, #6964	; 0x1b34
e001348c:	e34e2003 	movt	r2, #57347	; 0xe003
e0013490:	e5922000 	ldr	r2, [r2]
e0013494:	e3c22f7f 	bic	r2, r2, #508	; 0x1fc
e0013498:	e3c22003 	bic	r2, r2, #3
e001349c:	e2822030 	add	r2, r2, #48	; 0x30
e00134a0:	e8920003 	ldm	r2, {r0, r1}
e00134a4:	e28dc008 	add	ip, sp, #8
e00134a8:	e90c0003 	stmdb	ip, {r0, r1}
e00134ac:	e200100e 	and	r1, r0, #14
e00134b0:	e351000e 	cmp	r1, #14
e00134b4:	1200100f 	andne	r1, r0, #15
e00134b8:	06ef1070 	uxtbeq	r1, r0
e00134bc:	e3510000 	cmp	r1, #0
e00134c0:	0a000003 	beq	e00134d4 <invokeCNodeSaveCaller+0x58>
e00134c4:	e3510008 	cmp	r1, #8
e00134c8:	1a000009 	bne	e00134f4 <invokeCNodeSaveCaller+0x78>
e00134cc:	e3100010 	tst	r0, #16
e00134d0:	0a000002 	beq	e00134e0 <invokeCNodeSaveCaller+0x64>
e00134d4:	e3a00000 	mov	r0, #0
e00134d8:	e28dd00c 	add	sp, sp, #12
e00134dc:	e49df004 	pop	{pc}		; (ldr pc, [sp], #4)
e00134e0:	e28d1008 	add	r1, sp, #8
e00134e4:	e5210008 	str	r0, [r1, #-8]!
e00134e8:	e8910003 	ldm	r1, {r0, r1}
e00134ec:	ebffffbc 	bl	e00133e4 <cteMove>
e00134f0:	eafffff7 	b	e00134d4 <invokeCNodeSaveCaller+0x58>
e00134f4:	ebfff4dd 	bl	e0010870 <halt>

e00134f8 <cteSwap>:
e00134f8:	e24dd008 	sub	sp, sp, #8
e00134fc:	e92d4010 	push	{r4, lr}
e0013500:	e24dd008 	sub	sp, sp, #8
e0013504:	e1a0c00d 	mov	ip, sp
e0013508:	e88c0003 	stm	ip, {r0, r1}
e001350c:	e58d3014 	str	r3, [sp, #20]
e0013510:	e59d301c 	ldr	r3, [sp, #28]
e0013514:	e28d1014 	add	r1, sp, #20
e0013518:	e8910003 	ldm	r1, {r0, r1}
e001351c:	e8820003 	stm	r2, {r0, r1}
e0013520:	e89c0003 	ldm	ip, {r0, r1}
e0013524:	e8830003 	stm	r3, {r0, r1}
e0013528:	e592e008 	ldr	lr, [r2, #8]
e001352c:	e592c00c 	ldr	ip, [r2, #12]
e0013530:	e3de0007 	bics	r0, lr, #7
e0013534:	1590100c 	ldrne	r1, [r0, #12]
e0013538:	12011007 	andne	r1, r1, #7
e001353c:	13c34007 	bicne	r4, r3, #7
e0013540:	11811004 	orrne	r1, r1, r4
e0013544:	1580100c 	strne	r1, [r0, #12]
e0013548:	e3dc0007 	bics	r0, ip, #7
e001354c:	15901008 	ldrne	r1, [r0, #8]
e0013550:	12011007 	andne	r1, r1, #7
e0013554:	13c34007 	bicne	r4, r3, #7
e0013558:	11811004 	orrne	r1, r1, r4
e001355c:	15801008 	strne	r1, [r0, #8]
e0013560:	e5930008 	ldr	r0, [r3, #8]
e0013564:	e593100c 	ldr	r1, [r3, #12]
e0013568:	e5820008 	str	r0, [r2, #8]
e001356c:	e582100c 	str	r1, [r2, #12]
e0013570:	e583e008 	str	lr, [r3, #8]
e0013574:	e583c00c 	str	ip, [r3, #12]
e0013578:	e3d00007 	bics	r0, r0, #7
e001357c:	1590300c 	ldrne	r3, [r0, #12]
e0013580:	12033007 	andne	r3, r3, #7
e0013584:	13c2c007 	bicne	ip, r2, #7
e0013588:	1183300c 	orrne	r3, r3, ip
e001358c:	1580300c 	strne	r3, [r0, #12]
e0013590:	e3d11007 	bics	r1, r1, #7
e0013594:	15913008 	ldrne	r3, [r1, #8]
e0013598:	12033007 	andne	r3, r3, #7
e001359c:	13c22007 	bicne	r2, r2, #7
e00135a0:	11832002 	orrne	r2, r3, r2
e00135a4:	15812008 	strne	r2, [r1, #8]
e00135a8:	e28dd008 	add	sp, sp, #8
e00135ac:	e8bd4010 	pop	{r4, lr}
e00135b0:	e28dd008 	add	sp, sp, #8
e00135b4:	e12fff1e 	bx	lr

e00135b8 <invokeCNodeRotate>:
e00135b8:	e92d4010 	push	{r4, lr}
e00135bc:	e24dd018 	sub	sp, sp, #24
e00135c0:	e28dc018 	add	ip, sp, #24
e00135c4:	e90c0003 	stmdb	ip, {r0, r1}
e00135c8:	e28d1008 	add	r1, sp, #8
e00135cc:	e881000c 	stm	r1, {r2, r3}
e00135d0:	e59d4020 	ldr	r4, [sp, #32]
e00135d4:	e59d3028 	ldr	r3, [sp, #40]	; 0x28
e00135d8:	e1540003 	cmp	r4, r3
e00135dc:	0a00000b 	beq	e0013610 <invokeCNodeRotate+0x58>
e00135e0:	e59d2024 	ldr	r2, [sp, #36]	; 0x24
e00135e4:	e28d1008 	add	r1, sp, #8
e00135e8:	e8910003 	ldm	r1, {r0, r1}
e00135ec:	ebffff7c 	bl	e00133e4 <cteMove>
e00135f0:	e59d3024 	ldr	r3, [sp, #36]	; 0x24
e00135f4:	e1a02004 	mov	r2, r4
e00135f8:	e28d1018 	add	r1, sp, #24
e00135fc:	e9110003 	ldmdb	r1, {r0, r1}
e0013600:	ebffff77 	bl	e00133e4 <cteMove>
e0013604:	e3a00000 	mov	r0, #0
e0013608:	e28dd018 	add	sp, sp, #24
e001360c:	e8bd8010 	pop	{r4, pc}
e0013610:	e59d3024 	ldr	r3, [sp, #36]	; 0x24
e0013614:	e58d3004 	str	r3, [sp, #4]
e0013618:	e59d300c 	ldr	r3, [sp, #12]
e001361c:	e58d3000 	str	r3, [sp]
e0013620:	e1a03002 	mov	r3, r2
e0013624:	e1a02004 	mov	r2, r4
e0013628:	e91c0003 	ldmdb	ip, {r0, r1}
e001362c:	ebffffb1 	bl	e00134f8 <cteSwap>
e0013630:	eafffff3 	b	e0013604 <invokeCNodeRotate+0x4c>

e0013634 <capSwapForDelete>:
e0013634:	e1500001 	cmp	r0, r1
e0013638:	012fff1e 	bxeq	lr
e001363c:	e52de004 	push	{lr}		; (str lr, [sp, #-4]!)
e0013640:	e24dd01c 	sub	sp, sp, #28
e0013644:	e1a03001 	mov	r3, r1
e0013648:	e1a02000 	mov	r2, r0
e001364c:	e28dc010 	add	ip, sp, #16
e0013650:	e8900003 	ldm	r0, {r0, r1}
e0013654:	e88c0003 	stm	ip, {r0, r1}
e0013658:	e28de008 	add	lr, sp, #8
e001365c:	e8930003 	ldm	r3, {r0, r1}
e0013660:	e88e0003 	stm	lr, {r0, r1}
e0013664:	e58d3004 	str	r3, [sp, #4]
e0013668:	e59d300c 	ldr	r3, [sp, #12]
e001366c:	e58d3000 	str	r3, [sp]
e0013670:	e1a03000 	mov	r3, r0
e0013674:	e89c0003 	ldm	ip, {r0, r1}
e0013678:	ebffff9e 	bl	e00134f8 <cteSwap>
e001367c:	e28dd01c 	add	sp, sp, #28
e0013680:	e49df004 	pop	{pc}		; (ldr pc, [sp], #4)

e0013684 <insertNewCap>:
e0013684:	e52de004 	push	{lr}		; (str lr, [sp, #-4]!)
e0013688:	e24dd00c 	sub	sp, sp, #12
e001368c:	e1a0e000 	mov	lr, r0
e0013690:	e1a0c001 	mov	ip, r1
e0013694:	e1a0100d 	mov	r1, sp
e0013698:	e881000c 	stm	r1, {r2, r3}
e001369c:	e590200c 	ldr	r2, [r0, #12]
e00136a0:	e3c22007 	bic	r2, r2, #7
e00136a4:	e8910003 	ldm	r1, {r0, r1}
e00136a8:	e88c0009 	stm	ip, {r0, r3}
e00136ac:	e3ce3007 	bic	r3, lr, #7
e00136b0:	e58c3008 	str	r3, [ip, #8]
e00136b4:	e3823003 	orr	r3, r2, #3
e00136b8:	e58c300c 	str	r3, [ip, #12]
e00136bc:	e3520000 	cmp	r2, #0
e00136c0:	15923008 	ldrne	r3, [r2, #8]
e00136c4:	12033007 	andne	r3, r3, #7
e00136c8:	13cc1007 	bicne	r1, ip, #7
e00136cc:	11833001 	orrne	r3, r3, r1
e00136d0:	15823008 	strne	r3, [r2, #8]
e00136d4:	e59e300c 	ldr	r3, [lr, #12]
e00136d8:	e2033007 	and	r3, r3, #7
e00136dc:	e3ccc007 	bic	ip, ip, #7
e00136e0:	e183c00c 	orr	ip, r3, ip
e00136e4:	e58ec00c 	str	ip, [lr, #12]
e00136e8:	e28dd00c 	add	sp, sp, #12
e00136ec:	e49df004 	pop	{pc}		; (ldr pc, [sp], #4)

e00136f0 <setupReplyMaster>:
e00136f0:	e3c03f7f 	bic	r3, r0, #508	; 0x1fc
e00136f4:	e3c33003 	bic	r3, r3, #3
e00136f8:	e2831020 	add	r1, r3, #32
e00136fc:	e5932020 	ldr	r2, [r3, #32]
e0013700:	e202c00e 	and	ip, r2, #14
e0013704:	e35c000e 	cmp	ip, #14
e0013708:	1202200f 	andne	r2, r2, #15
e001370c:	06ef2072 	uxtbeq	r2, r2
e0013710:	e3520000 	cmp	r2, #0
e0013714:	112fff1e 	bxne	lr
e0013718:	e3c0003f 	bic	r0, r0, #63	; 0x3f
e001371c:	e3800038 	orr	r0, r0, #56	; 0x38
e0013720:	e5830020 	str	r0, [r3, #32]
e0013724:	e3a03000 	mov	r3, #0
e0013728:	e5813004 	str	r3, [r1, #4]
e001372c:	e5813008 	str	r3, [r1, #8]
e0013730:	e3a03003 	mov	r3, #3
e0013734:	e581300c 	str	r3, [r1, #12]
e0013738:	e12fff1e 	bx	lr

e001373c <ensureEmptySlot>:
e001373c:	e5903000 	ldr	r3, [r0]
e0013740:	e203200e 	and	r2, r3, #14
e0013744:	e352000e 	cmp	r2, #14
e0013748:	1203300f 	andne	r3, r3, #15
e001374c:	06ef3073 	uxtbeq	r3, r3
e0013750:	e3530000 	cmp	r3, #0
e0013754:	13093030 	movwne	r3, #36912	; 0x9030
e0013758:	134e3002 	movtne	r3, #57346	; 0xe002
e001375c:	13a02008 	movne	r2, #8
e0013760:	15832018 	strne	r2, [r3, #24]
e0013764:	13a00003 	movne	r0, #3
e0013768:	03a00000 	moveq	r0, #0
e001376c:	e12fff1e 	bx	lr

e0013770 <getReceiveSlots>:
e0013770:	e2513000 	subs	r3, r1, #0
e0013774:	0a000021 	beq	e0013800 <getReceiveSlots+0x90>
e0013778:	e92d4030 	push	{r4, r5, lr}
e001377c:	e24dd02c 	sub	sp, sp, #44	; 0x2c
e0013780:	e1a01000 	mov	r1, r0
e0013784:	e59341f8 	ldr	r4, [r3, #504]	; 0x1f8
e0013788:	e59351fc 	ldr	r5, [r3, #508]	; 0x1fc
e001378c:	e59321f4 	ldr	r2, [r3, #500]	; 0x1f4
e0013790:	e28d001c 	add	r0, sp, #28
e0013794:	ebfffdad 	bl	e0012e50 <lookupCap>
e0013798:	e59d301c 	ldr	r3, [sp, #28]
e001379c:	e3530000 	cmp	r3, #0
e00137a0:	13a00000 	movne	r0, #0
e00137a4:	1a000013 	bne	e00137f8 <getReceiveSlots+0x88>
e00137a8:	e28d200c 	add	r2, sp, #12
e00137ac:	e28d3028 	add	r3, sp, #40	; 0x28
e00137b0:	e9130003 	ldmdb	r3, {r0, r1}
e00137b4:	e8820003 	stm	r2, {r0, r1}
e00137b8:	e58d5000 	str	r5, [sp]
e00137bc:	e1a03004 	mov	r3, r4
e00137c0:	e8920006 	ldm	r2, {r1, r2}
e00137c4:	e28d0014 	add	r0, sp, #20
e00137c8:	ebfffe32 	bl	e0013098 <lookupTargetSlot>
e00137cc:	e59d3014 	ldr	r3, [sp, #20]
e00137d0:	e3530000 	cmp	r3, #0
e00137d4:	1a00000b 	bne	e0013808 <getReceiveSlots+0x98>
e00137d8:	e59d0018 	ldr	r0, [sp, #24]
e00137dc:	e5903000 	ldr	r3, [r0]
e00137e0:	e203200e 	and	r2, r3, #14
e00137e4:	e352000e 	cmp	r2, #14
e00137e8:	1203300f 	andne	r3, r3, #15
e00137ec:	06ef3073 	uxtbeq	r3, r3
e00137f0:	e3530000 	cmp	r3, #0
e00137f4:	13a00000 	movne	r0, #0
e00137f8:	e28dd02c 	add	sp, sp, #44	; 0x2c
e00137fc:	e8bd8030 	pop	{r4, r5, pc}
e0013800:	e3a00000 	mov	r0, #0
e0013804:	e12fff1e 	bx	lr
e0013808:	e3a00000 	mov	r0, #0
e001380c:	eafffff9 	b	e00137f8 <getReceiveSlots+0x88>

e0013810 <loadCapTransfer>:
e0013810:	e591c1f8 	ldr	ip, [r1, #504]	; 0x1f8
e0013814:	e59121fc 	ldr	r2, [r1, #508]	; 0x1fc
e0013818:	e59111f4 	ldr	r1, [r1, #500]	; 0x1f4
e001381c:	e5801000 	str	r1, [r0]
e0013820:	e580c004 	str	ip, [r0, #4]
e0013824:	e5802008 	str	r2, [r0, #8]
e0013828:	e12fff1e 	bx	lr

e001382c <replyFromKernel_success_empty>:
e001382c:	e3a03000 	mov	r3, #0
e0013830:	e5803000 	str	r3, [r0]
e0013834:	e5803004 	str	r3, [r0, #4]
e0013838:	e12fff1e 	bx	lr

e001383c <invokeIRQHandler_AckIRQ>:
e001383c:	e1a022a0 	lsr	r2, r0, #5
e0013840:	e200001f 	and	r0, r0, #31
e0013844:	e3a03001 	mov	r3, #1
e0013848:	e1a00013 	lsl	r0, r3, r0
e001384c:	e1a02102 	lsl	r2, r2, #2
e0013850:	e30131ff 	movw	r3, #4607	; 0x11ff
e0013854:	e34f3ff0 	movt	r3, #65520	; 0xfff0
e0013858:	e0823003 	add	r3, r2, r3
e001385c:	e50300ff 	str	r0, [r3, #-255]	; 0xffffff01
e0013860:	e12fff1e 	bx	lr

e0013864 <isIRQActive>:
e0013864:	e3093058 	movw	r3, #36952	; 0x9058
e0013868:	e34e3002 	movt	r3, #57346	; 0xe002
e001386c:	e7930100 	ldr	r0, [r3, r0, lsl #2]
e0013870:	e2900000 	adds	r0, r0, #0
e0013874:	13a00001 	movne	r0, #1
e0013878:	e12fff1e 	bx	lr

e001387c <setIRQState>:
e001387c:	e3093058 	movw	r3, #36952	; 0x9058
e0013880:	e34e3002 	movt	r3, #57346	; 0xe002
e0013884:	e7830101 	str	r0, [r3, r1, lsl #2]
e0013888:	e3500000 	cmp	r0, #0
e001388c:	e1a022a1 	lsr	r2, r1, #5
e0013890:	e201101f 	and	r1, r1, #31
e0013894:	e3a03001 	mov	r3, #1
e0013898:	e1a01113 	lsl	r1, r3, r1
e001389c:	e1a02102 	lsl	r2, r2, #2
e00138a0:	0301327f 	movweq	r3, #4735	; 0x127f
e00138a4:	130131ff 	movwne	r3, #4607	; 0x11ff
e00138a8:	e34f3ff0 	movt	r3, #65520	; 0xfff0
e00138ac:	e0823003 	add	r3, r2, r3
e00138b0:	e50310ff 	str	r1, [r3, #-255]	; 0xffffff01
e00138b4:	e12fff1e 	bx	lr

e00138b8 <invokeIRQControl>:
e00138b8:	e92d4070 	push	{r4, r5, r6, lr}
e00138bc:	e24dd008 	sub	sp, sp, #8
e00138c0:	e1a04000 	mov	r4, r0
e00138c4:	e1a06001 	mov	r6, r1
e00138c8:	e1a05002 	mov	r5, r2
e00138cc:	e1a01000 	mov	r1, r0
e00138d0:	e3a00001 	mov	r0, #1
e00138d4:	ebffffe8 	bl	e001387c <setIRQState>
e00138d8:	e3a0301e 	mov	r3, #30
e00138dc:	e58d3000 	str	r3, [sp]
e00138e0:	e6ef4074 	uxtb	r4, r4
e00138e4:	e58d4004 	str	r4, [sp, #4]
e00138e8:	e1a03006 	mov	r3, r6
e00138ec:	e1a02005 	mov	r2, r5
e00138f0:	e28d1008 	add	r1, sp, #8
e00138f4:	e9110003 	ldmdb	r1, {r0, r1}
e00138f8:	ebfffe37 	bl	e00131dc <cteInsert>
e00138fc:	e3a00000 	mov	r0, #0
e0013900:	e28dd008 	add	sp, sp, #8
e0013904:	e8bd8070 	pop	{r4, r5, r6, pc}

e0013908 <deletedIRQHandler>:
e0013908:	e92d4010 	push	{r4, lr}
e001390c:	e1a01000 	mov	r1, r0
e0013910:	e3a00000 	mov	r0, #0
e0013914:	ebffffd8 	bl	e001387c <setIRQState>
e0013918:	e8bd8010 	pop	{r4, pc}

e001391c <emptySlot>:
e001391c:	e52de004 	push	{lr}		; (str lr, [sp, #-4]!)
e0013920:	e24dd00c 	sub	sp, sp, #12
e0013924:	e28d3008 	add	r3, sp, #8
e0013928:	e9030006 	stmdb	r3, {r1, r2}
e001392c:	e5903000 	ldr	r3, [r0]
e0013930:	e203200e 	and	r2, r3, #14
e0013934:	e352000e 	cmp	r2, #14
e0013938:	1203300f 	andne	r3, r3, #15
e001393c:	06ef3073 	uxtbeq	r3, r3
e0013940:	e3530000 	cmp	r3, #0
e0013944:	0a00001f 	beq	e00139c8 <emptySlot+0xac>
e0013948:	e590300c 	ldr	r3, [r0, #12]
e001394c:	e5902008 	ldr	r2, [r0, #8]
e0013950:	e3c31007 	bic	r1, r3, #7
e0013954:	e3d22007 	bics	r2, r2, #7
e0013958:	1592c00c 	ldrne	ip, [r2, #12]
e001395c:	120cc007 	andne	ip, ip, #7
e0013960:	118cc001 	orrne	ip, ip, r1
e0013964:	1582c00c 	strne	ip, [r2, #12]
e0013968:	e3510000 	cmp	r1, #0
e001396c:	0a000009 	beq	e0013998 <emptySlot+0x7c>
e0013970:	e591c008 	ldr	ip, [r1, #8]
e0013974:	e20cc007 	and	ip, ip, #7
e0013978:	e18c2002 	orr	r2, ip, r2
e001397c:	e5812008 	str	r2, [r1, #8]
e0013980:	e591200c 	ldr	r2, [r1, #12]
e0013984:	e1833002 	orr	r3, r3, r2
e0013988:	e2033001 	and	r3, r3, #1
e001398c:	e3c22001 	bic	r2, r2, #1
e0013990:	e1833002 	orr	r3, r3, r2
e0013994:	e581300c 	str	r3, [r1, #12]
e0013998:	e3a03000 	mov	r3, #0
e001399c:	e5803000 	str	r3, [r0]
e00139a0:	e5803004 	str	r3, [r0, #4]
e00139a4:	e5803008 	str	r3, [r0, #8]
e00139a8:	e580300c 	str	r3, [r0, #12]
e00139ac:	e59d3000 	ldr	r3, [sp]
e00139b0:	e203200e 	and	r2, r3, #14
e00139b4:	e352000e 	cmp	r2, #14
e00139b8:	1203300f 	andne	r3, r3, #15
e00139bc:	06ef3073 	uxtbeq	r3, r3
e00139c0:	e353001e 	cmp	r3, #30
e00139c4:	0a000001 	beq	e00139d0 <emptySlot+0xb4>
e00139c8:	e28dd00c 	add	sp, sp, #12
e00139cc:	e49df004 	pop	{pc}		; (ldr pc, [sp], #4)
e00139d0:	e5dd0004 	ldrb	r0, [sp, #4]
e00139d4:	ebffffcb 	bl	e0013908 <deletedIRQHandler>
e00139d8:	eafffffa 	b	e00139c8 <emptySlot+0xac>

e00139dc <completeSignal>:
e00139dc:	e3510000 	cmp	r1, #0
e00139e0:	0a000009 	beq	e0013a0c <completeSignal+0x30>
e00139e4:	e5903000 	ldr	r3, [r0]
e00139e8:	e2033003 	and	r3, r3, #3
e00139ec:	e3530002 	cmp	r3, #2
e00139f0:	1a000005 	bne	e0013a0c <completeSignal+0x30>
e00139f4:	e5903008 	ldr	r3, [r0, #8]
e00139f8:	e5813000 	str	r3, [r1]
e00139fc:	e5903000 	ldr	r3, [r0]
e0013a00:	e3c33003 	bic	r3, r3, #3
e0013a04:	e5803000 	str	r3, [r0]
e0013a08:	e12fff1e 	bx	lr
e0013a0c:	e92d4010 	push	{r4, lr}
e0013a10:	ebfff396 	bl	e0010870 <halt>

e0013a14 <unbindMaybeNotification>:
e0013a14:	e590300c 	ldr	r3, [r0, #12]
e0013a18:	e3d3200f 	bics	r2, r3, #15
e0013a1c:	1203300f 	andne	r3, r3, #15
e0013a20:	1580300c 	strne	r3, [r0, #12]
e0013a24:	13a03000 	movne	r3, #0
e0013a28:	1582305c 	strne	r3, [r2, #92]	; 0x5c
e0013a2c:	e12fff1e 	bx	lr

e0013a30 <unbindNotification>:
e0013a30:	e590305c 	ldr	r3, [r0, #92]	; 0x5c
e0013a34:	e3530000 	cmp	r3, #0
e0013a38:	1593200c 	ldrne	r2, [r3, #12]
e0013a3c:	1202200f 	andne	r2, r2, #15
e0013a40:	1583200c 	strne	r2, [r3, #12]
e0013a44:	13a03000 	movne	r3, #0
e0013a48:	1580305c 	strne	r3, [r0, #92]	; 0x5c
e0013a4c:	e12fff1e 	bx	lr

e0013a50 <bindNotification>:
e0013a50:	e591300c 	ldr	r3, [r1, #12]
e0013a54:	e203300f 	and	r3, r3, #15
e0013a58:	e3c0200f 	bic	r2, r0, #15
e0013a5c:	e1833002 	orr	r3, r3, r2
e0013a60:	e581300c 	str	r3, [r1, #12]
e0013a64:	e580105c 	str	r1, [r0, #92]	; 0x5c
e0013a68:	e12fff1e 	bx	lr

e0013a6c <getObjectSize>:
e0013a6c:	e92d4010 	push	{r4, lr}
e0013a70:	e3500004 	cmp	r0, #4
e0013a74:	8a000007 	bhi	e0013a98 <getObjectSize+0x2c>
e0013a78:	e3500004 	cmp	r0, #4
e0013a7c:	979ff100 	ldrls	pc, [pc, r0, lsl #2]
e0013a80:	ea00000a 	b	e0013ab0 <getObjectSize+0x44>
e0013a84:	e0013abc 	.word	0xe0013abc
e0013a88:	e0013ab4 	.word	0xe0013ab4
e0013a8c:	e0013aa0 	.word	0xe0013aa0
e0013a90:	e0013aa0 	.word	0xe0013aa0
e0013a94:	e0013aa8 	.word	0xe0013aa8
e0013a98:	ebfff8b3 	bl	e0011d6c <Arch_getObjectSize>
e0013a9c:	e8bd8010 	pop	{r4, pc}
e0013aa0:	e3a00004 	mov	r0, #4
e0013aa4:	e8bd8010 	pop	{r4, pc}
e0013aa8:	e2810004 	add	r0, r1, #4
e0013aac:	e8bd8010 	pop	{r4, pc}
e0013ab0:	ebfff36e 	bl	e0010870 <halt>
e0013ab4:	e3a00009 	mov	r0, #9
e0013ab8:	e8bd8010 	pop	{r4, pc}
e0013abc:	e1a00001 	mov	r0, r1
e0013ac0:	e8bd8010 	pop	{r4, pc}

e0013ac4 <hasCancelSendRights>:
e0013ac4:	e24dd008 	sub	sp, sp, #8
e0013ac8:	e28d3008 	add	r3, sp, #8
e0013acc:	e9030003 	stmdb	r3, {r0, r1}
e0013ad0:	e59d3000 	ldr	r3, [sp]
e0013ad4:	e203200e 	and	r2, r3, #14
e0013ad8:	e352000e 	cmp	r2, #14
e0013adc:	1203300f 	andne	r3, r3, #15
e0013ae0:	06ef3073 	uxtbeq	r3, r3
e0013ae4:	e3530004 	cmp	r3, #4
e0013ae8:	13a00000 	movne	r0, #0
e0013aec:	1a000004 	bne	e0013b04 <hasCancelSendRights+0x40>
e0013af0:	e59d0004 	ldr	r0, [sp, #4]
e0013af4:	e2003003 	and	r3, r0, #3
e0013af8:	e3530003 	cmp	r3, #3
e0013afc:	13a00000 	movne	r0, #0
e0013b00:	0a000001 	beq	e0013b0c <hasCancelSendRights+0x48>
e0013b04:	e28dd008 	add	sp, sp, #8
e0013b08:	e12fff1e 	bx	lr
e0013b0c:	e200000c 	and	r0, r0, #12
e0013b10:	e350000c 	cmp	r0, #12
e0013b14:	13a00000 	movne	r0, #0
e0013b18:	03a00001 	moveq	r0, #1
e0013b1c:	eafffff8 	b	e0013b04 <hasCancelSendRights+0x40>

e0013b20 <sameRegionAs>:
e0013b20:	e92d4030 	push	{r4, r5, lr}
e0013b24:	e24dd014 	sub	sp, sp, #20
e0013b28:	e28dc010 	add	ip, sp, #16
e0013b2c:	e90c0003 	stmdb	ip, {r0, r1}
e0013b30:	e1a0100d 	mov	r1, sp
e0013b34:	e881000c 	stm	r1, {r2, r3}
e0013b38:	e59de00c 	ldr	lr, [sp, #12]
e0013b3c:	e1a03002 	mov	r3, r2
e0013b40:	e59d4004 	ldr	r4, [sp, #4]
e0013b44:	e59d2008 	ldr	r2, [sp, #8]
e0013b48:	e202100e 	and	r1, r2, #14
e0013b4c:	e351000e 	cmp	r1, #14
e0013b50:	1202c00f 	andne	ip, r2, #15
e0013b54:	06efc072 	uxtbeq	ip, r2
e0013b58:	e24c1002 	sub	r1, ip, #2
e0013b5c:	e351003c 	cmp	r1, #60	; 0x3c
e0013b60:	979ff101 	ldrls	pc, [pc, r1, lsl #2]
e0013b64:	ea000216 	b	e00143c4 <sameRegionAs+0x8a4>
e0013b68:	e0013c5c 	.word	0xe0013c5c
e0013b6c:	e00143c4 	.word	0xe00143c4
e0013b70:	e0014230 	.word	0xe0014230
e0013b74:	e00143c4 	.word	0xe00143c4
e0013b78:	e0014264 	.word	0xe0014264
e0013b7c:	e00143c4 	.word	0xe00143c4
e0013b80:	e0014314 	.word	0xe0014314
e0013b84:	e00143c4 	.word	0xe00143c4
e0013b88:	e0014298 	.word	0xe0014298
e0013b8c:	e00143c4 	.word	0xe00143c4
e0013b90:	e00142e0 	.word	0xe00142e0
e0013b94:	e00143c4 	.word	0xe00143c4
e0013b98:	e001436c 	.word	0xe001436c
e0013b9c:	e00143c4 	.word	0xe00143c4
e0013ba0:	e00143c4 	.word	0xe00143c4
e0013ba4:	e00143c4 	.word	0xe00143c4
e0013ba8:	e00143c4 	.word	0xe00143c4
e0013bac:	e00143c4 	.word	0xe00143c4
e0013bb0:	e00143c4 	.word	0xe00143c4
e0013bb4:	e00143c4 	.word	0xe00143c4
e0013bb8:	e00143c4 	.word	0xe00143c4
e0013bbc:	e00143c4 	.word	0xe00143c4
e0013bc0:	e00143c4 	.word	0xe00143c4
e0013bc4:	e00143c4 	.word	0xe00143c4
e0013bc8:	e00143c4 	.word	0xe00143c4
e0013bcc:	e00143c4 	.word	0xe00143c4
e0013bd0:	e00143c4 	.word	0xe00143c4
e0013bd4:	e00143c4 	.word	0xe00143c4
e0013bd8:	e0014390 	.word	0xe0014390
e0013bdc:	e00143c4 	.word	0xe00143c4
e0013be0:	e00143c4 	.word	0xe00143c4
e0013be4:	e00143c4 	.word	0xe00143c4
e0013be8:	e00143c4 	.word	0xe00143c4
e0013bec:	e00143c4 	.word	0xe00143c4
e0013bf0:	e00143c4 	.word	0xe00143c4
e0013bf4:	e00143c4 	.word	0xe00143c4
e0013bf8:	e00143c4 	.word	0xe00143c4
e0013bfc:	e00143c4 	.word	0xe00143c4
e0013c00:	e00143c4 	.word	0xe00143c4
e0013c04:	e00143c4 	.word	0xe00143c4
e0013c08:	e00143c4 	.word	0xe00143c4
e0013c0c:	e00143c4 	.word	0xe00143c4
e0013c10:	e00143c4 	.word	0xe00143c4
e0013c14:	e00143c4 	.word	0xe00143c4
e0013c18:	e00143c4 	.word	0xe00143c4
e0013c1c:	e00143c4 	.word	0xe00143c4
e0013c20:	e00143c4 	.word	0xe00143c4
e0013c24:	e00143c4 	.word	0xe00143c4
e0013c28:	e00143c4 	.word	0xe00143c4
e0013c2c:	e00143c4 	.word	0xe00143c4
e0013c30:	e00143c4 	.word	0xe00143c4
e0013c34:	e00143c4 	.word	0xe00143c4
e0013c38:	e00143c4 	.word	0xe00143c4
e0013c3c:	e00143c4 	.word	0xe00143c4
e0013c40:	e00143c4 	.word	0xe00143c4
e0013c44:	e00143c4 	.word	0xe00143c4
e0013c48:	e00143c4 	.word	0xe00143c4
e0013c4c:	e00143c4 	.word	0xe00143c4
e0013c50:	e00143c4 	.word	0xe00143c4
e0013c54:	e00143c4 	.word	0xe00143c4
e0013c58:	e0014348 	.word	0xe0014348
e0013c5c:	e203100e 	and	r1, r3, #14
e0013c60:	e351000e 	cmp	r1, #14
e0013c64:	1203500f 	andne	r5, r3, #15
e0013c68:	06ef5073 	uxtbeq	r5, r3
e0013c6c:	e245c002 	sub	ip, r5, #2
e0013c70:	e35c003c 	cmp	ip, #60	; 0x3c
e0013c74:	979ff10c 	ldrls	pc, [pc, ip, lsl #2]
e0013c78:	ea00003c 	b	e0013d70 <sameRegionAs+0x250>
e0013c7c:	e0013da4 	.word	0xe0013da4
e0013c80:	e0013d70 	.word	0xe0013d70
e0013c84:	e0013da4 	.word	0xe0013da4
e0013c88:	e0013d70 	.word	0xe0013d70
e0013c8c:	e0013da4 	.word	0xe0013da4
e0013c90:	e0013d70 	.word	0xe0013d70
e0013c94:	e001440c 	.word	0xe001440c
e0013c98:	e0013d70 	.word	0xe0013d70
e0013c9c:	e0013da4 	.word	0xe0013da4
e0013ca0:	e0013d70 	.word	0xe0013d70
e0013ca4:	e0013da4 	.word	0xe0013da4
e0013ca8:	e0013d70 	.word	0xe0013d70
e0013cac:	e001440c 	.word	0xe001440c
e0013cb0:	e0013d70 	.word	0xe0013d70
e0013cb4:	e0013d70 	.word	0xe0013d70
e0013cb8:	e0013d70 	.word	0xe0013d70
e0013cbc:	e0013d70 	.word	0xe0013d70
e0013cc0:	e0013d70 	.word	0xe0013d70
e0013cc4:	e0013d70 	.word	0xe0013d70
e0013cc8:	e0013d70 	.word	0xe0013d70
e0013ccc:	e0013d70 	.word	0xe0013d70
e0013cd0:	e0013d70 	.word	0xe0013d70
e0013cd4:	e0013d70 	.word	0xe0013d70
e0013cd8:	e0013d70 	.word	0xe0013d70
e0013cdc:	e0013d70 	.word	0xe0013d70
e0013ce0:	e0013d70 	.word	0xe0013d70
e0013ce4:	e0013d70 	.word	0xe0013d70
e0013ce8:	e0013d70 	.word	0xe0013d70
e0013cec:	e001440c 	.word	0xe001440c
e0013cf0:	e0013d70 	.word	0xe0013d70
e0013cf4:	e0013d70 	.word	0xe0013d70
e0013cf8:	e0013d70 	.word	0xe0013d70
e0013cfc:	e0013d70 	.word	0xe0013d70
e0013d00:	e0013d70 	.word	0xe0013d70
e0013d04:	e0013d70 	.word	0xe0013d70
e0013d08:	e0013d70 	.word	0xe0013d70
e0013d0c:	e0013d70 	.word	0xe0013d70
e0013d10:	e0013d70 	.word	0xe0013d70
e0013d14:	e0013d70 	.word	0xe0013d70
e0013d18:	e0013d70 	.word	0xe0013d70
e0013d1c:	e0013d70 	.word	0xe0013d70
e0013d20:	e0013d70 	.word	0xe0013d70
e0013d24:	e0013d70 	.word	0xe0013d70
e0013d28:	e0013d70 	.word	0xe0013d70
e0013d2c:	e0013da4 	.word	0xe0013da4
e0013d30:	e0013d70 	.word	0xe0013d70
e0013d34:	e0013d70 	.word	0xe0013d70
e0013d38:	e0013d70 	.word	0xe0013d70
e0013d3c:	e0013d70 	.word	0xe0013d70
e0013d40:	e0013d70 	.word	0xe0013d70
e0013d44:	e0013d70 	.word	0xe0013d70
e0013d48:	e0013d70 	.word	0xe0013d70
e0013d4c:	e0013d70 	.word	0xe0013d70
e0013d50:	e0013d70 	.word	0xe0013d70
e0013d54:	e0013d70 	.word	0xe0013d70
e0013d58:	e0013d70 	.word	0xe0013d70
e0013d5c:	e0013d70 	.word	0xe0013d70
e0013d60:	e0013d70 	.word	0xe0013d70
e0013d64:	e0013d70 	.word	0xe0013d70
e0013d68:	e0013d70 	.word	0xe0013d70
e0013d6c:	e001440c 	.word	0xe001440c
e0013d70:	e2451001 	sub	r1, r5, #1
e0013d74:	e3510008 	cmp	r1, #8
e0013d78:	979ff101 	ldrls	pc, [pc, r1, lsl #2]
e0013d7c:	ea0001a0 	b	e0014404 <sameRegionAs+0x8e4>
e0013d80:	e0013da4 	.word	0xe0013da4
e0013d84:	e0014404 	.word	0xe0014404
e0013d88:	e0013da4 	.word	0xe0013da4
e0013d8c:	e0014404 	.word	0xe0014404
e0013d90:	e0013da4 	.word	0xe0013da4
e0013d94:	e0014404 	.word	0xe0014404
e0013d98:	e0013da4 	.word	0xe0013da4
e0013d9c:	e0014404 	.word	0xe0014404
e0013da0:	e0013da4 	.word	0xe0013da4
e0013da4:	e3c2200f 	bic	r2, r2, #15
e0013da8:	e2451002 	sub	r1, r5, #2
e0013dac:	e351003c 	cmp	r1, #60	; 0x3c
e0013db0:	979ff101 	ldrls	pc, [pc, r1, lsl #2]
e0013db4:	ea00007c 	b	e0013fac <sameRegionAs+0x48c>
e0013db8:	e0013eac 	.word	0xe0013eac
e0013dbc:	e0013fac 	.word	0xe0013fac
e0013dc0:	e0013ec8 	.word	0xe0013ec8
e0013dc4:	e0013fac 	.word	0xe0013fac
e0013dc8:	e0013f14 	.word	0xe0013f14
e0013dcc:	e0013fac 	.word	0xe0013fac
e0013dd0:	e0014084 	.word	0xe0014084
e0013dd4:	e0013fac 	.word	0xe0013fac
e0013dd8:	e0013f1c 	.word	0xe0013f1c
e0013ddc:	e0013fac 	.word	0xe0013fac
e0013de0:	e0013f3c 	.word	0xe0013f3c
e0013de4:	e0013fac 	.word	0xe0013fac
e0013de8:	e0014084 	.word	0xe0014084
e0013dec:	e0013fac 	.word	0xe0013fac
e0013df0:	e0013fac 	.word	0xe0013fac
e0013df4:	e0013fac 	.word	0xe0013fac
e0013df8:	e0013fac 	.word	0xe0013fac
e0013dfc:	e0013fac 	.word	0xe0013fac
e0013e00:	e0013fac 	.word	0xe0013fac
e0013e04:	e0013fac 	.word	0xe0013fac
e0013e08:	e0013fac 	.word	0xe0013fac
e0013e0c:	e0013fac 	.word	0xe0013fac
e0013e10:	e0013fac 	.word	0xe0013fac
e0013e14:	e0013fac 	.word	0xe0013fac
e0013e18:	e0013fac 	.word	0xe0013fac
e0013e1c:	e0013fac 	.word	0xe0013fac
e0013e20:	e0013fac 	.word	0xe0013fac
e0013e24:	e0013fac 	.word	0xe0013fac
e0013e28:	e0014084 	.word	0xe0014084
e0013e2c:	e0013fac 	.word	0xe0013fac
e0013e30:	e0013fac 	.word	0xe0013fac
e0013e34:	e0013fac 	.word	0xe0013fac
e0013e38:	e0013fac 	.word	0xe0013fac
e0013e3c:	e0013fac 	.word	0xe0013fac
e0013e40:	e0013fac 	.word	0xe0013fac
e0013e44:	e0013fac 	.word	0xe0013fac
e0013e48:	e0013fac 	.word	0xe0013fac
e0013e4c:	e0013fac 	.word	0xe0013fac
e0013e50:	e0013fac 	.word	0xe0013fac
e0013e54:	e0013fac 	.word	0xe0013fac
e0013e58:	e0013fac 	.word	0xe0013fac
e0013e5c:	e0013fac 	.word	0xe0013fac
e0013e60:	e0013fac 	.word	0xe0013fac
e0013e64:	e0013fac 	.word	0xe0013fac
e0013e68:	e0013f5c 	.word	0xe0013f5c
e0013e6c:	e0013fac 	.word	0xe0013fac
e0013e70:	e0013fac 	.word	0xe0013fac
e0013e74:	e0013fac 	.word	0xe0013fac
e0013e78:	e0013fac 	.word	0xe0013fac
e0013e7c:	e0013fac 	.word	0xe0013fac
e0013e80:	e0013fac 	.word	0xe0013fac
e0013e84:	e0013fac 	.word	0xe0013fac
e0013e88:	e0013fac 	.word	0xe0013fac
e0013e8c:	e0013fac 	.word	0xe0013fac
e0013e90:	e0013fac 	.word	0xe0013fac
e0013e94:	e0013fac 	.word	0xe0013fac
e0013e98:	e0013fac 	.word	0xe0013fac
e0013e9c:	e0013fac 	.word	0xe0013fac
e0013ea0:	e0013fac 	.word	0xe0013fac
e0013ea4:	e0013fac 	.word	0xe0013fac
e0013ea8:	e0014084 	.word	0xe0014084
e0013eac:	e3c3c00f 	bic	ip, r3, #15
e0013eb0:	e20e301f 	and	r3, lr, #31
e0013eb4:	e2420001 	sub	r0, r2, #1
e0013eb8:	e3a01001 	mov	r1, #1
e0013ebc:	e0800311 	add	r0, r0, r1, lsl r3
e0013ec0:	e204301f 	and	r3, r4, #31
e0013ec4:	ea000006 	b	e0013ee4 <sameRegionAs+0x3c4>
e0013ec8:	e3c4300f 	bic	r3, r4, #15
e0013ecc:	e1a0c003 	mov	ip, r3
e0013ed0:	e20e301f 	and	r3, lr, #31
e0013ed4:	e2420001 	sub	r0, r2, #1
e0013ed8:	e3a01001 	mov	r1, #1
e0013edc:	e0800311 	add	r0, r0, r1, lsl r3
e0013ee0:	e3a03004 	mov	r3, #4
e0013ee4:	e24c1001 	sub	r1, ip, #1
e0013ee8:	e3a0e001 	mov	lr, #1
e0013eec:	e081131e 	add	r1, r1, lr, lsl r3
e0013ef0:	e1510000 	cmp	r1, r0
e0013ef4:	83a03000 	movhi	r3, #0
e0013ef8:	93a03001 	movls	r3, #1
e0013efc:	e151000c 	cmp	r1, ip
e0013f00:	33a03000 	movcc	r3, #0
e0013f04:	e152000c 	cmp	r2, ip
e0013f08:	83a00000 	movhi	r0, #0
e0013f0c:	92030001 	andls	r0, r3, #1
e0013f10:	ea000113 	b	e0014364 <sameRegionAs+0x844>
e0013f14:	e3c3300f 	bic	r3, r3, #15
e0013f18:	eaffffeb 	b	e0013ecc <sameRegionAs+0x3ac>
e0013f1c:	e3c3c01f 	bic	ip, r3, #31
e0013f20:	e20e301f 	and	r3, lr, #31
e0013f24:	e2420001 	sub	r0, r2, #1
e0013f28:	e3a01001 	mov	r1, #1
e0013f2c:	e0800311 	add	r0, r0, r1, lsl r3
e0013f30:	e7e43954 	ubfx	r3, r4, #18, #5
e0013f34:	e2833004 	add	r3, r3, #4
e0013f38:	eaffffe9 	b	e0013ee4 <sameRegionAs+0x3c4>
e0013f3c:	e3c3cf7f 	bic	ip, r3, #508	; 0x1fc
e0013f40:	e3ccc003 	bic	ip, ip, #3
e0013f44:	e20e301f 	and	r3, lr, #31
e0013f48:	e2420001 	sub	r0, r2, #1
e0013f4c:	e3a01001 	mov	r1, #1
e0013f50:	e0800311 	add	r0, r0, r1, lsl r3
e0013f54:	e3a03009 	mov	r3, #9
e0013f58:	eaffffe1 	b	e0013ee4 <sameRegionAs+0x3c4>
e0013f5c:	e1a01423 	lsr	r1, r3, #8
e0013f60:	e201003f 	and	r0, r1, #63	; 0x3f
e0013f64:	e3500020 	cmp	r0, #32
e0013f68:	1201001f 	andne	r0, r1, #31
e0013f6c:	03a00004 	moveq	r0, #4
e0013f70:	e2800001 	add	r0, r0, #1
e0013f74:	e3a05001 	mov	r5, #1
e0013f78:	e1a00015 	lsl	r0, r5, r0
e0013f7c:	e2600000 	rsb	r0, r0, #0
e0013f80:	e000c004 	and	ip, r0, r4
e0013f84:	e20e101f 	and	r1, lr, #31
e0013f88:	e2420001 	sub	r0, r2, #1
e0013f8c:	e0800115 	add	r0, r0, r5, lsl r1
e0013f90:	e1a03423 	lsr	r3, r3, #8
e0013f94:	e203103f 	and	r1, r3, #63	; 0x3f
e0013f98:	e3510020 	cmp	r1, #32
e0013f9c:	03a03009 	moveq	r3, #9
e0013fa0:	1203301f 	andne	r3, r3, #31
e0013fa4:	12833004 	addne	r3, r3, #4
e0013fa8:	eaffffcd 	b	e0013ee4 <sameRegionAs+0x3c4>
e0013fac:	e2451001 	sub	r1, r5, #1
e0013fb0:	e3510008 	cmp	r1, #8
e0013fb4:	979ff101 	ldrls	pc, [pc, r1, lsl #2]
e0013fb8:	ea000079 	b	e00141a4 <sameRegionAs+0x684>
e0013fbc:	e0013fe0 	.word	0xe0013fe0
e0013fc0:	e00141a4 	.word	0xe00141a4
e0013fc4:	e0013fe0 	.word	0xe0013fe0
e0013fc8:	e00141a4 	.word	0xe00141a4
e0013fcc:	e001407c 	.word	0xe001407c
e0013fd0:	e00141a4 	.word	0xe00141a4
e0013fd4:	e0014018 	.word	0xe0014018
e0013fd8:	e00141a4 	.word	0xe00141a4
e0013fdc:	e0014070 	.word	0xe0014070
e0013fe0:	e3550001 	cmp	r5, #1
e0013fe4:	0a000003 	beq	e0013ff8 <sameRegionAs+0x4d8>
e0013fe8:	e3550003 	cmp	r5, #3
e0013fec:	0a000005 	beq	e0014008 <sameRegionAs+0x4e8>
e0013ff0:	e3a00000 	mov	r0, #0
e0013ff4:	ea000023 	b	e0014088 <sameRegionAs+0x568>
e0013ff8:	e1a00403 	lsl	r0, r3, #8
e0013ffc:	e3c00eff 	bic	r0, r0, #4080	; 0xff0
e0014000:	e3c0000f 	bic	r0, r0, #15
e0014004:	ea00001f 	b	e0014088 <sameRegionAs+0x568>
e0014008:	e1a00503 	lsl	r0, r3, #10
e001400c:	e3c00dff 	bic	r0, r0, #16320	; 0x3fc0
e0014010:	e3c0003f 	bic	r0, r0, #63	; 0x3f
e0014014:	ea00001b 	b	e0014088 <sameRegionAs+0x568>
e0014018:	e3c33fff 	bic	r3, r3, #1020	; 0x3fc
e001401c:	e3c33003 	bic	r3, r3, #3
e0014020:	e1a0c003 	mov	ip, r3
e0014024:	e20e101f 	and	r1, lr, #31
e0014028:	e2423001 	sub	r3, r2, #1
e001402c:	e3a00001 	mov	r0, #1
e0014030:	e0830110 	add	r0, r3, r0, lsl r1
e0014034:	e2453001 	sub	r3, r5, #1
e0014038:	e353000a 	cmp	r3, #10
e001403c:	979ff103 	ldrls	pc, [pc, r3, lsl #2]
e0014040:	ea000072 	b	e0014210 <sameRegionAs+0x6f0>
e0014044:	e00141bc 	.word	0xe00141bc
e0014048:	e0014210 	.word	0xe0014210
e001404c:	e00141bc 	.word	0xe00141bc
e0014050:	e0014210 	.word	0xe0014210
e0014054:	e0014200 	.word	0xe0014200
e0014058:	e0014210 	.word	0xe0014210
e001405c:	e0014220 	.word	0xe0014220
e0014060:	e0014210 	.word	0xe0014210
e0014064:	e00141b4 	.word	0xe00141b4
e0014068:	e0014210 	.word	0xe0014210
e001406c:	e0014208 	.word	0xe0014208
e0014070:	e3c33dff 	bic	r3, r3, #16320	; 0x3fc0
e0014074:	e3c3303f 	bic	r3, r3, #63	; 0x3f
e0014078:	eaffffe8 	b	e0014020 <sameRegionAs+0x500>
e001407c:	e3c3300f 	bic	r3, r3, #15
e0014080:	eaffffe6 	b	e0014020 <sameRegionAs+0x500>
e0014084:	e3a00000 	mov	r0, #0
e0014088:	e1a0c000 	mov	ip, r0
e001408c:	e20e101f 	and	r1, lr, #31
e0014090:	e2420001 	sub	r0, r2, #1
e0014094:	e3a0e001 	mov	lr, #1
e0014098:	e080011e 	add	r0, r0, lr, lsl r1
e001409c:	e355003e 	cmp	r5, #62	; 0x3e
e00140a0:	979ff105 	ldrls	pc, [pc, r5, lsl #2]
e00140a4:	eaffffe2 	b	e0014034 <sameRegionAs+0x514>
e00140a8:	e00141ac 	.word	0xe00141ac
e00140ac:	e0014034 	.word	0xe0014034
e00140b0:	e0013ec0 	.word	0xe0013ec0
e00140b4:	e0014034 	.word	0xe0014034
e00140b8:	e0014218 	.word	0xe0014218
e00140bc:	e0014034 	.word	0xe0014034
e00140c0:	e0014218 	.word	0xe0014218
e00140c4:	e0014034 	.word	0xe0014034
e00140c8:	e00141ac 	.word	0xe00141ac
e00140cc:	e0014034 	.word	0xe0014034
e00140d0:	e0013f30 	.word	0xe0013f30
e00140d4:	e0014034 	.word	0xe0014034
e00140d8:	e0013f54 	.word	0xe0013f54
e00140dc:	e0014034 	.word	0xe0014034
e00140e0:	e00141ac 	.word	0xe00141ac
e00140e4:	e0014034 	.word	0xe0014034
e00140e8:	e0014034 	.word	0xe0014034
e00140ec:	e0014034 	.word	0xe0014034
e00140f0:	e0014034 	.word	0xe0014034
e00140f4:	e0014034 	.word	0xe0014034
e00140f8:	e0014034 	.word	0xe0014034
e00140fc:	e0014034 	.word	0xe0014034
e0014100:	e0014034 	.word	0xe0014034
e0014104:	e0014034 	.word	0xe0014034
e0014108:	e0014034 	.word	0xe0014034
e001410c:	e0014034 	.word	0xe0014034
e0014110:	e0014034 	.word	0xe0014034
e0014114:	e0014034 	.word	0xe0014034
e0014118:	e0014034 	.word	0xe0014034
e001411c:	e0014034 	.word	0xe0014034
e0014120:	e00141ac 	.word	0xe00141ac
e0014124:	e0014034 	.word	0xe0014034
e0014128:	e0014034 	.word	0xe0014034
e001412c:	e0014034 	.word	0xe0014034
e0014130:	e0014034 	.word	0xe0014034
e0014134:	e0014034 	.word	0xe0014034
e0014138:	e0014034 	.word	0xe0014034
e001413c:	e0014034 	.word	0xe0014034
e0014140:	e0014034 	.word	0xe0014034
e0014144:	e0014034 	.word	0xe0014034
e0014148:	e0014034 	.word	0xe0014034
e001414c:	e0014034 	.word	0xe0014034
e0014150:	e0014034 	.word	0xe0014034
e0014154:	e0014034 	.word	0xe0014034
e0014158:	e0014034 	.word	0xe0014034
e001415c:	e0014034 	.word	0xe0014034
e0014160:	e0013f90 	.word	0xe0013f90
e0014164:	e0014034 	.word	0xe0014034
e0014168:	e0014034 	.word	0xe0014034
e001416c:	e0014034 	.word	0xe0014034
e0014170:	e0014034 	.word	0xe0014034
e0014174:	e0014034 	.word	0xe0014034
e0014178:	e0014034 	.word	0xe0014034
e001417c:	e0014034 	.word	0xe0014034
e0014180:	e0014034 	.word	0xe0014034
e0014184:	e0014034 	.word	0xe0014034
e0014188:	e0014034 	.word	0xe0014034
e001418c:	e0014034 	.word	0xe0014034
e0014190:	e0014034 	.word	0xe0014034
e0014194:	e0014034 	.word	0xe0014034
e0014198:	e0014034 	.word	0xe0014034
e001419c:	e0014034 	.word	0xe0014034
e00141a0:	e00141ac 	.word	0xe00141ac
e00141a4:	e3a00000 	mov	r0, #0
e00141a8:	eaffffb6 	b	e0014088 <sameRegionAs+0x568>
e00141ac:	e3a03000 	mov	r3, #0
e00141b0:	eaffff4b 	b	e0013ee4 <sameRegionAs+0x3c4>
e00141b4:	e3a0300e 	mov	r3, #14
e00141b8:	eaffff49 	b	e0013ee4 <sameRegionAs+0x3c4>
e00141bc:	e3550003 	cmp	r5, #3
e00141c0:	01a03f24 	lsreq	r3, r4, #30
e00141c4:	13a03000 	movne	r3, #0
e00141c8:	e3530003 	cmp	r3, #3
e00141cc:	979ff103 	ldrls	pc, [pc, r3, lsl #2]
e00141d0:	ea000009 	b	e00141fc <sameRegionAs+0x6dc>
e00141d4:	e0014228 	.word	0xe0014228
e00141d8:	e00141e4 	.word	0xe00141e4
e00141dc:	e00141ec 	.word	0xe00141ec
e00141e0:	e00141f4 	.word	0xe00141f4
e00141e4:	e3a03010 	mov	r3, #16
e00141e8:	eaffff3d 	b	e0013ee4 <sameRegionAs+0x3c4>
e00141ec:	e3a03014 	mov	r3, #20
e00141f0:	eaffff3b 	b	e0013ee4 <sameRegionAs+0x3c4>
e00141f4:	e3a03018 	mov	r3, #24
e00141f8:	eaffff39 	b	e0013ee4 <sameRegionAs+0x3c4>
e00141fc:	ebfff19b 	bl	e0010870 <halt>
e0014200:	e3a0300c 	mov	r3, #12
e0014204:	eaffff36 	b	e0013ee4 <sameRegionAs+0x3c4>
e0014208:	e3a03000 	mov	r3, #0
e001420c:	eaffff34 	b	e0013ee4 <sameRegionAs+0x3c4>
e0014210:	e3a03000 	mov	r3, #0
e0014214:	eaffff32 	b	e0013ee4 <sameRegionAs+0x3c4>
e0014218:	e3a03004 	mov	r3, #4
e001421c:	eaffff30 	b	e0013ee4 <sameRegionAs+0x3c4>
e0014220:	e3a0300a 	mov	r3, #10
e0014224:	eaffff2e 	b	e0013ee4 <sameRegionAs+0x3c4>
e0014228:	e3a0300c 	mov	r3, #12
e001422c:	eaffff2c 	b	e0013ee4 <sameRegionAs+0x3c4>
e0014230:	e203200e 	and	r2, r3, #14
e0014234:	e352000e 	cmp	r2, #14
e0014238:	1203300f 	andne	r3, r3, #15
e001423c:	06ef3073 	uxtbeq	r3, r3
e0014240:	e3530004 	cmp	r3, #4
e0014244:	13a00000 	movne	r0, #0
e0014248:	1a000045 	bne	e0014364 <sameRegionAs+0x844>
e001424c:	e3c4200f 	bic	r2, r4, #15
e0014250:	e3ce300f 	bic	r3, lr, #15
e0014254:	e1520003 	cmp	r2, r3
e0014258:	13a00000 	movne	r0, #0
e001425c:	03a00001 	moveq	r0, #1
e0014260:	ea00003f 	b	e0014364 <sameRegionAs+0x844>
e0014264:	e203100e 	and	r1, r3, #14
e0014268:	e351000e 	cmp	r1, #14
e001426c:	1203100f 	andne	r1, r3, #15
e0014270:	06ef1073 	uxtbeq	r1, r3
e0014274:	e3510006 	cmp	r1, #6
e0014278:	13a00000 	movne	r0, #0
e001427c:	1a000038 	bne	e0014364 <sameRegionAs+0x844>
e0014280:	e3c3300f 	bic	r3, r3, #15
e0014284:	e3c2200f 	bic	r2, r2, #15
e0014288:	e1530002 	cmp	r3, r2
e001428c:	13a00000 	movne	r0, #0
e0014290:	03a00001 	moveq	r0, #1
e0014294:	ea000032 	b	e0014364 <sameRegionAs+0x844>
e0014298:	e203100e 	and	r1, r3, #14
e001429c:	e351000e 	cmp	r1, #14
e00142a0:	1203100f 	andne	r1, r3, #15
e00142a4:	06ef1073 	uxtbeq	r1, r3
e00142a8:	e351000a 	cmp	r1, #10
e00142ac:	13a00000 	movne	r0, #0
e00142b0:	1a00002b 	bne	e0014364 <sameRegionAs+0x844>
e00142b4:	e3c3301f 	bic	r3, r3, #31
e00142b8:	e3c2201f 	bic	r2, r2, #31
e00142bc:	e1530002 	cmp	r3, r2
e00142c0:	13a00000 	movne	r0, #0
e00142c4:	1a000026 	bne	e0014364 <sameRegionAs+0x844>
e00142c8:	e7e42954 	ubfx	r2, r4, #18, #5
e00142cc:	e7e4095e 	ubfx	r0, lr, #18, #5
e00142d0:	e1520000 	cmp	r2, r0
e00142d4:	13a00000 	movne	r0, #0
e00142d8:	03a00001 	moveq	r0, #1
e00142dc:	ea000020 	b	e0014364 <sameRegionAs+0x844>
e00142e0:	e203100e 	and	r1, r3, #14
e00142e4:	e351000e 	cmp	r1, #14
e00142e8:	1203100f 	andne	r1, r3, #15
e00142ec:	06ef1073 	uxtbeq	r1, r3
e00142f0:	e351000c 	cmp	r1, #12
e00142f4:	13a00000 	movne	r0, #0
e00142f8:	1a000019 	bne	e0014364 <sameRegionAs+0x844>
e00142fc:	e3c3300f 	bic	r3, r3, #15
e0014300:	e3c2200f 	bic	r2, r2, #15
e0014304:	e1530002 	cmp	r3, r2
e0014308:	13a00000 	movne	r0, #0
e001430c:	03a00001 	moveq	r0, #1
e0014310:	ea000013 	b	e0014364 <sameRegionAs+0x844>
e0014314:	e203100e 	and	r1, r3, #14
e0014318:	e351000e 	cmp	r1, #14
e001431c:	1203100f 	andne	r1, r3, #15
e0014320:	06ef1073 	uxtbeq	r1, r3
e0014324:	e3510008 	cmp	r1, #8
e0014328:	13a00000 	movne	r0, #0
e001432c:	1a00000c 	bne	e0014364 <sameRegionAs+0x844>
e0014330:	e3c3303f 	bic	r3, r3, #63	; 0x3f
e0014334:	e3c2203f 	bic	r2, r2, #63	; 0x3f
e0014338:	e1530002 	cmp	r3, r2
e001433c:	13a00000 	movne	r0, #0
e0014340:	03a00001 	moveq	r0, #1
e0014344:	ea000006 	b	e0014364 <sameRegionAs+0x844>
e0014348:	e203200e 	and	r2, r3, #14
e001434c:	e352000e 	cmp	r2, #14
e0014350:	1203300f 	andne	r3, r3, #15
e0014354:	06ef3073 	uxtbeq	r3, r3
e0014358:	e353003e 	cmp	r3, #62	; 0x3e
e001435c:	13a00000 	movne	r0, #0
e0014360:	03a00001 	moveq	r0, #1
e0014364:	e28dd014 	add	sp, sp, #20
e0014368:	e8bd8030 	pop	{r4, r5, pc}
e001436c:	e203200e 	and	r2, r3, #14
e0014370:	e352000e 	cmp	r2, #14
e0014374:	1203300f 	andne	r3, r3, #15
e0014378:	06ef3073 	uxtbeq	r3, r3
e001437c:	e3c33010 	bic	r3, r3, #16
e0014380:	e353000e 	cmp	r3, #14
e0014384:	13a00000 	movne	r0, #0
e0014388:	03a00001 	moveq	r0, #1
e001438c:	eafffff4 	b	e0014364 <sameRegionAs+0x844>
e0014390:	e203200e 	and	r2, r3, #14
e0014394:	e352000e 	cmp	r2, #14
e0014398:	1203300f 	andne	r3, r3, #15
e001439c:	06ef3073 	uxtbeq	r3, r3
e00143a0:	e353001e 	cmp	r3, #30
e00143a4:	13a00000 	movne	r0, #0
e00143a8:	1affffed 	bne	e0014364 <sameRegionAs+0x844>
e00143ac:	e6ef307e 	uxtb	r3, lr
e00143b0:	e6ef2074 	uxtb	r2, r4
e00143b4:	e1530002 	cmp	r3, r2
e00143b8:	13a00000 	movne	r0, #0
e00143bc:	03a00001 	moveq	r0, #1
e00143c0:	eaffffe7 	b	e0014364 <sameRegionAs+0x844>
e00143c4:	e31c0001 	tst	ip, #1
e00143c8:	03a00000 	moveq	r0, #0
e00143cc:	0affffe4 	beq	e0014364 <sameRegionAs+0x844>
e00143d0:	e203200e 	and	r2, r3, #14
e00143d4:	e352000e 	cmp	r2, #14
e00143d8:	1203300f 	andne	r3, r3, #15
e00143dc:	06ef3073 	uxtbeq	r3, r3
e00143e0:	e3130001 	tst	r3, #1
e00143e4:	03a00000 	moveq	r0, #0
e00143e8:	0affffdd 	beq	e0014364 <sameRegionAs+0x844>
e00143ec:	e1a0300d 	mov	r3, sp
e00143f0:	e893000c 	ldm	r3, {r2, r3}
e00143f4:	e28d1010 	add	r1, sp, #16
e00143f8:	e9110003 	ldmdb	r1, {r0, r1}
e00143fc:	ebfff549 	bl	e0011928 <Arch_sameRegionAs>
e0014400:	eaffffd7 	b	e0014364 <sameRegionAs+0x844>
e0014404:	e3a00000 	mov	r0, #0
e0014408:	eaffffd5 	b	e0014364 <sameRegionAs+0x844>
e001440c:	e3a00000 	mov	r0, #0
e0014410:	eaffffd3 	b	e0014364 <sameRegionAs+0x844>

e0014414 <isMDBParentOf>:
e0014414:	e590300c 	ldr	r3, [r0, #12]
e0014418:	e3130002 	tst	r3, #2
e001441c:	0a000025 	beq	e00144b8 <isMDBParentOf+0xa4>
e0014420:	e92d4070 	push	{r4, r5, r6, lr}
e0014424:	e1a05001 	mov	r5, r1
e0014428:	e1a04000 	mov	r4, r0
e001442c:	e891000c 	ldm	r1, {r2, r3}
e0014430:	e8900003 	ldm	r0, {r0, r1}
e0014434:	ebfffdb9 	bl	e0013b20 <sameRegionAs>
e0014438:	e3500000 	cmp	r0, #0
e001443c:	08bd8070 	popeq	{r4, r5, r6, pc}
e0014440:	e5943000 	ldr	r3, [r4]
e0014444:	e203200e 	and	r2, r3, #14
e0014448:	e352000e 	cmp	r2, #14
e001444c:	1203200f 	andne	r2, r3, #15
e0014450:	06ef2073 	uxtbeq	r2, r3
e0014454:	e3520004 	cmp	r2, #4
e0014458:	0a000003 	beq	e001446c <isMDBParentOf+0x58>
e001445c:	e3520006 	cmp	r2, #6
e0014460:	0a00000a 	beq	e0014490 <isMDBParentOf+0x7c>
e0014464:	e3a00001 	mov	r0, #1
e0014468:	e8bd8070 	pop	{r4, r5, r6, pc}
e001446c:	e1b03223 	lsrs	r3, r3, #4
e0014470:	0a000012 	beq	e00144c0 <isMDBParentOf+0xac>
e0014474:	e5952000 	ldr	r2, [r5]
e0014478:	e1530222 	cmp	r3, r2, lsr #4
e001447c:	0595000c 	ldreq	r0, [r5, #12]
e0014480:	02200001 	eoreq	r0, r0, #1
e0014484:	02000001 	andeq	r0, r0, #1
e0014488:	13a00000 	movne	r0, #0
e001448c:	e8bd8070 	pop	{r4, r5, r6, pc}
e0014490:	e5943004 	ldr	r3, [r4, #4]
e0014494:	e1b03223 	lsrs	r3, r3, #4
e0014498:	0a00000a 	beq	e00144c8 <isMDBParentOf+0xb4>
e001449c:	e5952004 	ldr	r2, [r5, #4]
e00144a0:	e1530222 	cmp	r3, r2, lsr #4
e00144a4:	0595000c 	ldreq	r0, [r5, #12]
e00144a8:	02200001 	eoreq	r0, r0, #1
e00144ac:	02000001 	andeq	r0, r0, #1
e00144b0:	13a00000 	movne	r0, #0
e00144b4:	e8bd8070 	pop	{r4, r5, r6, pc}
e00144b8:	e3a00000 	mov	r0, #0
e00144bc:	e12fff1e 	bx	lr
e00144c0:	e3a00001 	mov	r0, #1
e00144c4:	e8bd8070 	pop	{r4, r5, r6, pc}
e00144c8:	e3a00001 	mov	r0, #1
e00144cc:	e8bd8070 	pop	{r4, r5, r6, pc}

e00144d0 <ensureNoChildren>:
e00144d0:	e590100c 	ldr	r1, [r0, #12]
e00144d4:	e3d11007 	bics	r1, r1, #7
e00144d8:	0a00000b 	beq	e001450c <ensureNoChildren+0x3c>
e00144dc:	e92d4010 	push	{r4, lr}
e00144e0:	ebffffcb 	bl	e0014414 <isMDBParentOf>
e00144e4:	e3500000 	cmp	r0, #0
e00144e8:	1a000001 	bne	e00144f4 <ensureNoChildren+0x24>
e00144ec:	e3a00000 	mov	r0, #0
e00144f0:	e8bd8010 	pop	{r4, pc}
e00144f4:	e3093030 	movw	r3, #36912	; 0x9030
e00144f8:	e34e3002 	movt	r3, #57346	; 0xe002
e00144fc:	e3a02009 	mov	r2, #9
e0014500:	e5832018 	str	r2, [r3, #24]
e0014504:	e3a00003 	mov	r0, #3
e0014508:	e8bd8010 	pop	{r4, pc}
e001450c:	e3a00000 	mov	r0, #0
e0014510:	e12fff1e 	bx	lr

e0014514 <deriveCap>:
e0014514:	e92d4070 	push	{r4, r5, r6, lr}
e0014518:	e24dd008 	sub	sp, sp, #8
e001451c:	e1a04000 	mov	r4, r0
e0014520:	e28d0008 	add	r0, sp, #8
e0014524:	e900000c 	stmdb	r0, {r2, r3}
e0014528:	e59d5000 	ldr	r5, [sp]
e001452c:	e205300e 	and	r3, r5, #14
e0014530:	e353000e 	cmp	r3, #14
e0014534:	1205300f 	andne	r3, r5, #15
e0014538:	06ef3075 	uxtbeq	r3, r5
e001453c:	e3130001 	tst	r3, #1
e0014540:	1a00000b 	bne	e0014574 <deriveCap+0x60>
e0014544:	e59d6004 	ldr	r6, [sp, #4]
e0014548:	e3530008 	cmp	r3, #8
e001454c:	0a000018 	beq	e00145b4 <deriveCap+0xa0>
e0014550:	8a00000c 	bhi	e0014588 <deriveCap+0x74>
e0014554:	e3530002 	cmp	r3, #2
e0014558:	1a00000e 	bne	e0014598 <deriveCap+0x84>
e001455c:	e1a00001 	mov	r0, r1
e0014560:	ebffffda 	bl	e00144d0 <ensureNoChildren>
e0014564:	e3500000 	cmp	r0, #0
e0014568:	13a06000 	movne	r6, #0
e001456c:	11a05006 	movne	r5, r6
e0014570:	ea000009 	b	e001459c <deriveCap+0x88>
e0014574:	e28d3008 	add	r3, sp, #8
e0014578:	e913000c 	ldmdb	r3, {r2, r3}
e001457c:	e1a00004 	mov	r0, r4
e0014580:	ebfff46f 	bl	e0011744 <Arch_deriveCap>
e0014584:	ea000007 	b	e00145a8 <deriveCap+0x94>
e0014588:	e353000e 	cmp	r3, #14
e001458c:	0a000008 	beq	e00145b4 <deriveCap+0xa0>
e0014590:	e353002e 	cmp	r3, #46	; 0x2e
e0014594:	0a000006 	beq	e00145b4 <deriveCap+0xa0>
e0014598:	e3a00000 	mov	r0, #0
e001459c:	e5840000 	str	r0, [r4]
e00145a0:	e5845004 	str	r5, [r4, #4]
e00145a4:	e5846008 	str	r6, [r4, #8]
e00145a8:	e1a00004 	mov	r0, r4
e00145ac:	e28dd008 	add	sp, sp, #8
e00145b0:	e8bd8070 	pop	{r4, r5, r6, pc}
e00145b4:	e3a06000 	mov	r6, #0
e00145b8:	e1a05006 	mov	r5, r6
e00145bc:	e1a00006 	mov	r0, r6
e00145c0:	eafffff5 	b	e001459c <deriveCap+0x88>

e00145c4 <sameObjectAs>:
e00145c4:	e52de004 	push	{lr}		; (str lr, [sp, #-4]!)
e00145c8:	e24dd014 	sub	sp, sp, #20
e00145cc:	e28dc010 	add	ip, sp, #16
e00145d0:	e90c0003 	stmdb	ip, {r0, r1}
e00145d4:	e1a0100d 	mov	r1, sp
e00145d8:	e881000c 	stm	r1, {r2, r3}
e00145dc:	e59d3008 	ldr	r3, [sp, #8]
e00145e0:	e203200e 	and	r2, r3, #14
e00145e4:	e352000e 	cmp	r2, #14
e00145e8:	1203300f 	andne	r3, r3, #15
e00145ec:	06ef3073 	uxtbeq	r3, r3
e00145f0:	e3530002 	cmp	r3, #2
e00145f4:	03a00000 	moveq	r0, #0
e00145f8:	0a00000f 	beq	e001463c <sameObjectAs+0x78>
e00145fc:	e59d2000 	ldr	r2, [sp]
e0014600:	e353000e 	cmp	r3, #14
e0014604:	0a00000e 	beq	e0014644 <sameObjectAs+0x80>
e0014608:	e3130001 	tst	r3, #1
e001460c:	0a000005 	beq	e0014628 <sameObjectAs+0x64>
e0014610:	e202300e 	and	r3, r2, #14
e0014614:	e353000e 	cmp	r3, #14
e0014618:	1202200f 	andne	r2, r2, #15
e001461c:	06ef2072 	uxtbeq	r2, r2
e0014620:	e3120001 	tst	r2, #1
e0014624:	1a00000e 	bne	e0014664 <sameObjectAs+0xa0>
e0014628:	e1a0300d 	mov	r3, sp
e001462c:	e893000c 	ldm	r3, {r2, r3}
e0014630:	e28d1010 	add	r1, sp, #16
e0014634:	e9110003 	ldmdb	r1, {r0, r1}
e0014638:	ebfffd38 	bl	e0013b20 <sameRegionAs>
e001463c:	e28dd014 	add	sp, sp, #20
e0014640:	e49df004 	pop	{pc}		; (ldr pc, [sp], #4)
e0014644:	e202300e 	and	r3, r2, #14
e0014648:	e353000e 	cmp	r3, #14
e001464c:	1202200f 	andne	r2, r2, #15
e0014650:	06ef2072 	uxtbeq	r2, r2
e0014654:	e352001e 	cmp	r2, #30
e0014658:	1afffff2 	bne	e0014628 <sameObjectAs+0x64>
e001465c:	e3a00000 	mov	r0, #0
e0014660:	eafffff5 	b	e001463c <sameObjectAs+0x78>
e0014664:	e891000c 	ldm	r1, {r2, r3}
e0014668:	e28d1010 	add	r1, sp, #16
e001466c:	e9110003 	ldmdb	r1, {r0, r1}
e0014670:	ebfff56e 	bl	e0011c30 <Arch_sameObjectAs>
e0014674:	eafffff0 	b	e001463c <sameObjectAs+0x78>

e0014678 <isFinalCapability>:
e0014678:	e92d4010 	push	{r4, lr}
e001467c:	e1a04000 	mov	r4, r0
e0014680:	e5903008 	ldr	r3, [r0, #8]
e0014684:	e3d31007 	bics	r1, r3, #7
e0014688:	0a000004 	beq	e00146a0 <isFinalCapability+0x28>
e001468c:	e890000c 	ldm	r0, {r2, r3}
e0014690:	e8910003 	ldm	r1, {r0, r1}
e0014694:	ebffffca 	bl	e00145c4 <sameObjectAs>
e0014698:	e3500000 	cmp	r0, #0
e001469c:	1a000008 	bne	e00146c4 <isFinalCapability+0x4c>
e00146a0:	e594300c 	ldr	r3, [r4, #12]
e00146a4:	e3d33007 	bics	r3, r3, #7
e00146a8:	0a000007 	beq	e00146cc <isFinalCapability+0x54>
e00146ac:	e893000c 	ldm	r3, {r2, r3}
e00146b0:	e8940003 	ldm	r4, {r0, r1}
e00146b4:	ebffffc2 	bl	e00145c4 <sameObjectAs>
e00146b8:	e16f0f10 	clz	r0, r0
e00146bc:	e1a002a0 	lsr	r0, r0, #5
e00146c0:	e8bd8010 	pop	{r4, pc}
e00146c4:	e3a00000 	mov	r0, #0
e00146c8:	e8bd8010 	pop	{r4, pc}
e00146cc:	e3a00001 	mov	r0, #1
e00146d0:	e8bd8010 	pop	{r4, pc}

e00146d4 <slotCapLongRunningDelete>:
e00146d4:	e92d4010 	push	{r4, lr}
e00146d8:	e5903000 	ldr	r3, [r0]
e00146dc:	e203200e 	and	r2, r3, #14
e00146e0:	e352000e 	cmp	r2, #14
e00146e4:	1203400f 	andne	r4, r3, #15
e00146e8:	06ef4073 	uxtbeq	r4, r3
e00146ec:	e3540000 	cmp	r4, #0
e00146f0:	0a00000a 	beq	e0014720 <slotCapLongRunningDelete+0x4c>
e00146f4:	ebffffdf 	bl	e0014678 <isFinalCapability>
e00146f8:	e3500000 	cmp	r0, #0
e00146fc:	08bd8010 	popeq	{r4, pc}
e0014700:	e354000c 	cmp	r4, #12
e0014704:	0a000007 	beq	e0014728 <slotCapLongRunningDelete+0x54>
e0014708:	e354002e 	cmp	r4, #46	; 0x2e
e001470c:	0a000005 	beq	e0014728 <slotCapLongRunningDelete+0x54>
e0014710:	e354000a 	cmp	r4, #10
e0014714:	0a000003 	beq	e0014728 <slotCapLongRunningDelete+0x54>
e0014718:	e3a00000 	mov	r0, #0
e001471c:	e8bd8010 	pop	{r4, pc}
e0014720:	e3a00000 	mov	r0, #0
e0014724:	e8bd8010 	pop	{r4, pc}
e0014728:	e3a00001 	mov	r0, #1
e001472c:	e8bd8010 	pop	{r4, pc}

e0014730 <updateCapData>:
e0014730:	e24dd008 	sub	sp, sp, #8
e0014734:	e52de004 	push	{lr}		; (str lr, [sp, #-4]!)
e0014738:	e58d3008 	str	r3, [sp, #8]
e001473c:	e59de00c 	ldr	lr, [sp, #12]
e0014740:	e203c00e 	and	ip, r3, #14
e0014744:	e35c000e 	cmp	ip, #14
e0014748:	1203c00f 	andne	ip, r3, #15
e001474c:	06efc073 	uxtbeq	ip, r3
e0014750:	e31c0001 	tst	ip, #1
e0014754:	15803000 	strne	r3, [r0]
e0014758:	1580e004 	strne	lr, [r0, #4]
e001475c:	1a000007 	bne	e0014780 <updateCapData+0x50>
e0014760:	e35c0006 	cmp	ip, #6
e0014764:	0a000015 	beq	e00147c0 <updateCapData+0x90>
e0014768:	e35c000a 	cmp	ip, #10
e001476c:	0a000020 	beq	e00147f4 <updateCapData+0xc4>
e0014770:	e35c0004 	cmp	ip, #4
e0014774:	15803000 	strne	r3, [r0]
e0014778:	1580e004 	strne	lr, [r0, #4]
e001477c:	0a000002 	beq	e001478c <updateCapData+0x5c>
e0014780:	e49de004 	pop	{lr}		; (ldr lr, [sp], #4)
e0014784:	e28dd008 	add	sp, sp, #8
e0014788:	e12fff1e 	bx	lr
e001478c:	e3510000 	cmp	r1, #0
e0014790:	1a000006 	bne	e00147b0 <updateCapData+0x80>
e0014794:	e1b01223 	lsrs	r1, r3, #4
e0014798:	1a000004 	bne	e00147b0 <updateCapData+0x80>
e001479c:	e203300f 	and	r3, r3, #15
e00147a0:	e1832202 	orr	r2, r3, r2, lsl #4
e00147a4:	e5802000 	str	r2, [r0]
e00147a8:	e580e004 	str	lr, [r0, #4]
e00147ac:	eafffff3 	b	e0014780 <updateCapData+0x50>
e00147b0:	e3a03000 	mov	r3, #0
e00147b4:	e5803000 	str	r3, [r0]
e00147b8:	e5803004 	str	r3, [r0, #4]
e00147bc:	eaffffef 	b	e0014780 <updateCapData+0x50>
e00147c0:	e3510000 	cmp	r1, #0
e00147c4:	1a000006 	bne	e00147e4 <updateCapData+0xb4>
e00147c8:	e1b0122e 	lsrs	r1, lr, #4
e00147cc:	1a000004 	bne	e00147e4 <updateCapData+0xb4>
e00147d0:	e5803000 	str	r3, [r0]
e00147d4:	e20ee00f 	and	lr, lr, #15
e00147d8:	e18e2202 	orr	r2, lr, r2, lsl #4
e00147dc:	e5802004 	str	r2, [r0, #4]
e00147e0:	eaffffe6 	b	e0014780 <updateCapData+0x50>
e00147e4:	e3a03000 	mov	r3, #0
e00147e8:	e5803000 	str	r3, [r0]
e00147ec:	e5803004 	str	r3, [r0, #4]
e00147f0:	eaffffe2 	b	e0014780 <updateCapData+0x50>
e00147f4:	e7e4c1d2 	ubfx	ip, r2, #3, #5
e00147f8:	e7e4195e 	ubfx	r1, lr, #18, #5
e00147fc:	e081100c 	add	r1, r1, ip
e0014800:	e3510020 	cmp	r1, #32
e0014804:	83a03000 	movhi	r3, #0
e0014808:	85803000 	strhi	r3, [r0]
e001480c:	85803004 	strhi	r3, [r0, #4]
e0014810:	8affffda 	bhi	e0014780 <updateCapData+0x50>
e0014814:	e5803000 	str	r3, [r0]
e0014818:	e7f12452 	ubfx	r2, r2, #8, #18
e001481c:	e3e03000 	mvn	r3, #0
e0014820:	e1c22c13 	bic	r2, r2, r3, lsl ip
e0014824:	e3a03000 	mov	r3, #0
e0014828:	e34f307c 	movt	r3, #61564	; 0xf07c
e001482c:	e003300e 	and	r3, r3, lr
e0014830:	e1832002 	orr	r2, r3, r2
e0014834:	e1822b8c 	orr	r2, r2, ip, lsl #23
e0014838:	e5802004 	str	r2, [r0, #4]
e001483c:	eaffffcf 	b	e0014780 <updateCapData+0x50>

e0014840 <maskCapRights>:
e0014840:	e92d4010 	push	{r4, lr}
e0014844:	e24dd008 	sub	sp, sp, #8
e0014848:	e1a04000 	mov	r4, r0
e001484c:	e28d0008 	add	r0, sp, #8
e0014850:	e900000c 	stmdb	r0, {r2, r3}
e0014854:	e59d3000 	ldr	r3, [sp]
e0014858:	e203200e 	and	r2, r3, #14
e001485c:	e352000e 	cmp	r2, #14
e0014860:	1203200f 	andne	r2, r3, #15
e0014864:	06ef2073 	uxtbeq	r2, r3
e0014868:	e3120001 	tst	r2, #1
e001486c:	1a000042 	bne	e001497c <maskCapRights+0x13c>
e0014870:	e59d0004 	ldr	r0, [sp, #4]
e0014874:	e352003e 	cmp	r2, #62	; 0x3e
e0014878:	979ff102 	ldrls	pc, [pc, r2, lsl #2]
e001487c:	ea00006d 	b	e0014a38 <maskCapRights+0x1f8>
e0014880:	e0014998 	.word	0xe0014998
e0014884:	e0014a38 	.word	0xe0014a38
e0014888:	e0014998 	.word	0xe0014998
e001488c:	e0014a38 	.word	0xe0014a38
e0014890:	e00149a8 	.word	0xe00149a8
e0014894:	e0014a38 	.word	0xe0014a38
e0014898:	e00149ec 	.word	0xe00149ec
e001489c:	e0014a38 	.word	0xe0014a38
e00148a0:	e0014a14 	.word	0xe0014a14
e00148a4:	e0014a38 	.word	0xe0014a38
e00148a8:	e0014998 	.word	0xe0014998
e00148ac:	e0014a38 	.word	0xe0014a38
e00148b0:	e0014998 	.word	0xe0014998
e00148b4:	e0014a38 	.word	0xe0014a38
e00148b8:	e0014998 	.word	0xe0014998
e00148bc:	e0014a38 	.word	0xe0014a38
e00148c0:	e0014a38 	.word	0xe0014a38
e00148c4:	e0014a38 	.word	0xe0014a38
e00148c8:	e0014a38 	.word	0xe0014a38
e00148cc:	e0014a38 	.word	0xe0014a38
e00148d0:	e0014a38 	.word	0xe0014a38
e00148d4:	e0014a38 	.word	0xe0014a38
e00148d8:	e0014a38 	.word	0xe0014a38
e00148dc:	e0014a38 	.word	0xe0014a38
e00148e0:	e0014a38 	.word	0xe0014a38
e00148e4:	e0014a38 	.word	0xe0014a38
e00148e8:	e0014a38 	.word	0xe0014a38
e00148ec:	e0014a38 	.word	0xe0014a38
e00148f0:	e0014a38 	.word	0xe0014a38
e00148f4:	e0014a38 	.word	0xe0014a38
e00148f8:	e0014998 	.word	0xe0014998
e00148fc:	e0014a38 	.word	0xe0014a38
e0014900:	e0014a38 	.word	0xe0014a38
e0014904:	e0014a38 	.word	0xe0014a38
e0014908:	e0014a38 	.word	0xe0014a38
e001490c:	e0014a38 	.word	0xe0014a38
e0014910:	e0014a38 	.word	0xe0014a38
e0014914:	e0014a38 	.word	0xe0014a38
e0014918:	e0014a38 	.word	0xe0014a38
e001491c:	e0014a38 	.word	0xe0014a38
e0014920:	e0014a38 	.word	0xe0014a38
e0014924:	e0014a38 	.word	0xe0014a38
e0014928:	e0014a38 	.word	0xe0014a38
e001492c:	e0014a38 	.word	0xe0014a38
e0014930:	e0014a38 	.word	0xe0014a38
e0014934:	e0014a38 	.word	0xe0014a38
e0014938:	e0014998 	.word	0xe0014998
e001493c:	e0014a38 	.word	0xe0014a38
e0014940:	e0014a38 	.word	0xe0014a38
e0014944:	e0014a38 	.word	0xe0014a38
e0014948:	e0014a38 	.word	0xe0014a38
e001494c:	e0014a38 	.word	0xe0014a38
e0014950:	e0014a38 	.word	0xe0014a38
e0014954:	e0014a38 	.word	0xe0014a38
e0014958:	e0014a38 	.word	0xe0014a38
e001495c:	e0014a38 	.word	0xe0014a38
e0014960:	e0014a38 	.word	0xe0014a38
e0014964:	e0014a38 	.word	0xe0014a38
e0014968:	e0014a38 	.word	0xe0014a38
e001496c:	e0014a38 	.word	0xe0014a38
e0014970:	e0014a38 	.word	0xe0014a38
e0014974:	e0014a38 	.word	0xe0014a38
e0014978:	e0014998 	.word	0xe0014998
e001497c:	e28d3008 	add	r3, sp, #8
e0014980:	e913000c 	ldmdb	r3, {r2, r3}
e0014984:	e1a00004 	mov	r0, r4
e0014988:	ebfff3bf 	bl	e001188c <Arch_maskCapRights>
e001498c:	e1a00004 	mov	r0, r4
e0014990:	e28dd008 	add	sp, sp, #8
e0014994:	e8bd8010 	pop	{r4, pc}
e0014998:	e28d3008 	add	r3, sp, #8
e001499c:	e9130003 	ldmdb	r3, {r0, r1}
e00149a0:	e8840003 	stm	r4, {r0, r1}
e00149a4:	eafffff8 	b	e001498c <maskCapRights+0x14c>
e00149a8:	e5843000 	str	r3, [r4]
e00149ac:	e0013000 	and	r3, r1, r0
e00149b0:	e2033002 	and	r3, r3, #2
e00149b4:	e1e02f81 	mvn	r2, r1, lsl #31
e00149b8:	e1e02fa2 	mvn	r2, r2, lsr #31
e00149bc:	e3c0c002 	bic	ip, r0, #2
e00149c0:	e002200c 	and	r2, r2, ip
e00149c4:	e1833002 	orr	r3, r3, r2
e00149c8:	e0012000 	and	r2, r1, r0
e00149cc:	e2022004 	and	r2, r2, #4
e00149d0:	e3c3300c 	bic	r3, r3, #12
e00149d4:	e1833002 	orr	r3, r3, r2
e00149d8:	e0011000 	and	r1, r1, r0
e00149dc:	e2011008 	and	r1, r1, #8
e00149e0:	e1831001 	orr	r1, r3, r1
e00149e4:	e5841004 	str	r1, [r4, #4]
e00149e8:	eaffffe7 	b	e001498c <maskCapRights+0x14c>
e00149ec:	e5843000 	str	r3, [r4]
e00149f0:	e0013000 	and	r3, r1, r0
e00149f4:	e2033002 	and	r3, r3, #2
e00149f8:	e1e01f81 	mvn	r1, r1, lsl #31
e00149fc:	e1e01fa1 	mvn	r1, r1, lsr #31
e0014a00:	e3c00002 	bic	r0, r0, #2
e0014a04:	e0011000 	and	r1, r1, r0
e0014a08:	e1831001 	orr	r1, r3, r1
e0014a0c:	e5841004 	str	r1, [r4, #4]
e0014a10:	eaffffdd 	b	e001498c <maskCapRights+0x14c>
e0014a14:	e1a022a3 	lsr	r2, r3, #5
e0014a18:	e0021121 	and	r1, r2, r1, lsr #2
e0014a1c:	e1a01281 	lsl	r1, r1, #5
e0014a20:	e2011020 	and	r1, r1, #32
e0014a24:	e3c33020 	bic	r3, r3, #32
e0014a28:	e1813003 	orr	r3, r1, r3
e0014a2c:	e5843000 	str	r3, [r4]
e0014a30:	e5840004 	str	r0, [r4, #4]
e0014a34:	eaffffd4 	b	e001498c <maskCapRights+0x14c>
e0014a38:	ebffef8c 	bl	e0010870 <halt>

e0014a3c <createObject>:
e0014a3c:	e92d4010 	push	{r4, lr}
e0014a40:	e24dd008 	sub	sp, sp, #8
e0014a44:	e1a04000 	mov	r4, r0
e0014a48:	e3510004 	cmp	r1, #4
e0014a4c:	8a000007 	bhi	e0014a70 <createObject+0x34>
e0014a50:	e3510004 	cmp	r1, #4
e0014a54:	979ff101 	ldrls	pc, [pc, r1, lsl #2]
e0014a58:	ea000036 	b	e0014b38 <createObject+0xfc>
e0014a5c:	e0014b10 	.word	0xe0014b10
e0014a60:	e0014a8c 	.word	0xe0014a8c
e0014a64:	e0014ac8 	.word	0xe0014ac8
e0014a68:	e0014adc 	.word	0xe0014adc
e0014a6c:	e0014af4 	.word	0xe0014af4
e0014a70:	e59d0010 	ldr	r0, [sp, #16]
e0014a74:	e58d0000 	str	r0, [sp]
e0014a78:	e1a00004 	mov	r0, r4
e0014a7c:	ebfff6ac 	bl	e0012534 <Arch_createObject>
e0014a80:	e1a00004 	mov	r0, r4
e0014a84:	e28dd008 	add	sp, sp, #8
e0014a88:	e8bd8010 	pop	{r4, pc}
e0014a8c:	e3a03e15 	mov	r3, #336	; 0x150
e0014a90:	e5823140 	str	r3, [r2, #320]	; 0x140
e0014a94:	e3a03005 	mov	r3, #5
e0014a98:	e582317c 	str	r3, [r2, #380]	; 0x17c
e0014a9c:	e30134e4 	movw	r3, #5348	; 0x14e4
e0014aa0:	e34e3003 	movt	r3, #57347	; 0xe003
e0014aa4:	e5933000 	ldr	r3, [r3]
e0014aa8:	e5823170 	str	r3, [r2, #368]	; 0x170
e0014aac:	e2822c01 	add	r2, r2, #256	; 0x100
e0014ab0:	e3c2200f 	bic	r2, r2, #15
e0014ab4:	e382200c 	orr	r2, r2, #12
e0014ab8:	e5802000 	str	r2, [r0]
e0014abc:	e3a03000 	mov	r3, #0
e0014ac0:	e5803004 	str	r3, [r0, #4]
e0014ac4:	eaffffed 	b	e0014a80 <createObject+0x44>
e0014ac8:	e3a03004 	mov	r3, #4
e0014acc:	e5803000 	str	r3, [r0]
e0014ad0:	e382200f 	orr	r2, r2, #15
e0014ad4:	e5802004 	str	r2, [r0, #4]
e0014ad8:	eaffffe8 	b	e0014a80 <createObject+0x44>
e0014adc:	e3c2200f 	bic	r2, r2, #15
e0014ae0:	e3822006 	orr	r2, r2, #6
e0014ae4:	e5802000 	str	r2, [r0]
e0014ae8:	e3a03003 	mov	r3, #3
e0014aec:	e5803004 	str	r3, [r0, #4]
e0014af0:	eaffffe2 	b	e0014a80 <createObject+0x44>
e0014af4:	e3c2201f 	bic	r2, r2, #31
e0014af8:	e382200a 	orr	r2, r2, #10
e0014afc:	e5802000 	str	r2, [r0]
e0014b00:	e1a03903 	lsl	r3, r3, #18
e0014b04:	e203371f 	and	r3, r3, #8126464	; 0x7c0000
e0014b08:	e5803004 	str	r3, [r0, #4]
e0014b0c:	eaffffdb 	b	e0014a80 <createObject+0x44>
e0014b10:	e3c2200f 	bic	r2, r2, #15
e0014b14:	e3822002 	orr	r2, r2, #2
e0014b18:	e5802000 	str	r2, [r0]
e0014b1c:	e59d2010 	ldr	r2, [sp, #16]
e0014b20:	e2922000 	adds	r2, r2, #0
e0014b24:	13a02001 	movne	r2, #1
e0014b28:	e203301f 	and	r3, r3, #31
e0014b2c:	e1833282 	orr	r3, r3, r2, lsl #5
e0014b30:	e5803004 	str	r3, [r0, #4]
e0014b34:	eaffffd1 	b	e0014a80 <createObject+0x44>
e0014b38:	ebffef4c 	bl	e0010870 <halt>

e0014b3c <createNewObjects>:
e0014b3c:	e24dd008 	sub	sp, sp, #8
e0014b40:	e92d4ff0 	push	{r4, r5, r6, r7, r8, r9, sl, fp, lr}
e0014b44:	e24dd014 	sub	sp, sp, #20
e0014b48:	e1a09000 	mov	r9, r0
e0014b4c:	e1a0a001 	mov	sl, r1
e0014b50:	e28d1034 	add	r1, sp, #52	; 0x34
e0014b54:	e981000c 	stmib	r1, {r2, r3}
e0014b58:	e59db04c 	ldr	fp, [sp, #76]	; 0x4c
e0014b5c:	e59d8040 	ldr	r8, [sp, #64]	; 0x40
e0014b60:	e59d1048 	ldr	r1, [sp, #72]	; 0x48
e0014b64:	ebfffbc0 	bl	e0013a6c <getObjectSize>
e0014b68:	e3580000 	cmp	r8, #0
e0014b6c:	0a000015 	beq	e0014bc8 <createNewObjects+0x8c>
e0014b70:	e3a07001 	mov	r7, #1
e0014b74:	e1a07017 	lsl	r7, r7, r0
e0014b78:	e59d6044 	ldr	r6, [sp, #68]	; 0x44
e0014b7c:	e3a04000 	mov	r4, #0
e0014b80:	e28d5008 	add	r5, sp, #8
e0014b84:	e58db000 	str	fp, [sp]
e0014b88:	e59d3048 	ldr	r3, [sp, #72]	; 0x48
e0014b8c:	e1a02006 	mov	r2, r6
e0014b90:	e1a01009 	mov	r1, r9
e0014b94:	e1a00005 	mov	r0, r5
e0014b98:	ebffffa7 	bl	e0014a3c <createObject>
e0014b9c:	e59d103c 	ldr	r1, [sp, #60]	; 0x3c
e0014ba0:	e0841001 	add	r1, r4, r1
e0014ba4:	e895000c 	ldm	r5, {r2, r3}
e0014ba8:	e59d0038 	ldr	r0, [sp, #56]	; 0x38
e0014bac:	e0801201 	add	r1, r0, r1, lsl #4
e0014bb0:	e1a0000a 	mov	r0, sl
e0014bb4:	ebfffab2 	bl	e0013684 <insertNewCap>
e0014bb8:	e2844001 	add	r4, r4, #1
e0014bbc:	e0866007 	add	r6, r6, r7
e0014bc0:	e1580004 	cmp	r8, r4
e0014bc4:	1affffee 	bne	e0014b84 <createNewObjects+0x48>
e0014bc8:	e28dd014 	add	sp, sp, #20
e0014bcc:	e8bd4ff0 	pop	{r4, r5, r6, r7, r8, r9, sl, fp, lr}
e0014bd0:	e28dd008 	add	sp, sp, #8
e0014bd4:	e12fff1e 	bx	lr

e0014bd8 <tcbSchedEnqueue>:
e0014bd8:	e5903054 	ldr	r3, [r0, #84]	; 0x54
e0014bdc:	e3130001 	tst	r3, #1
e0014be0:	112fff1e 	bxne	lr
e0014be4:	e92d43f0 	push	{r4, r5, r6, r7, r8, r9, lr}
e0014be8:	e5904070 	ldr	r4, [r0, #112]	; 0x70
e0014bec:	e590c078 	ldr	ip, [r0, #120]	; 0x78
e0014bf0:	e08c2404 	add	r2, ip, r4, lsl #8
e0014bf4:	e30934dc 	movw	r3, #38108	; 0x94dc
e0014bf8:	e34e3002 	movt	r3, #57346	; 0xe002
e0014bfc:	e083e182 	add	lr, r3, r2, lsl #3
e0014c00:	e7935182 	ldr	r5, [r3, r2, lsl #3]
e0014c04:	e59e1004 	ldr	r1, [lr, #4]
e0014c08:	e3510000 	cmp	r1, #0
e0014c0c:	1585008c 	strne	r0, [r5, #140]	; 0x8c
e0014c10:	0a000008 	beq	e0014c38 <tcbSchedEnqueue+0x60>
e0014c14:	e3a0c000 	mov	ip, #0
e0014c18:	e580c08c 	str	ip, [r0, #140]	; 0x8c
e0014c1c:	e5805088 	str	r5, [r0, #136]	; 0x88
e0014c20:	e7830182 	str	r0, [r3, r2, lsl #3]
e0014c24:	e58e1004 	str	r1, [lr, #4]
e0014c28:	e5903054 	ldr	r3, [r0, #84]	; 0x54
e0014c2c:	e3833001 	orr	r3, r3, #1
e0014c30:	e5803054 	str	r3, [r0, #84]	; 0x54
e0014c34:	e8bd83f0 	pop	{r4, r5, r6, r7, r8, r9, pc}
e0014c38:	e1a092ac 	lsr	r9, ip, #5
e0014c3c:	e2696007 	rsb	r6, r9, #7
e0014c40:	e30116f0 	movw	r1, #5872	; 0x16f0
e0014c44:	e34e1003 	movt	r1, #57347	; 0xe003
e0014c48:	e3a07001 	mov	r7, #1
e0014c4c:	e7918104 	ldr	r8, [r1, r4, lsl #2]
e0014c50:	e1888917 	orr	r8, r8, r7, lsl r9
e0014c54:	e7818104 	str	r8, [r1, r4, lsl #2]
e0014c58:	e30114ec 	movw	r1, #5356	; 0x14ec
e0014c5c:	e34e1003 	movt	r1, #57347	; 0xe003
e0014c60:	e0864184 	add	r4, r6, r4, lsl #3
e0014c64:	e20cc01f 	and	ip, ip, #31
e0014c68:	e7916104 	ldr	r6, [r1, r4, lsl #2]
e0014c6c:	e186cc17 	orr	ip, r6, r7, lsl ip
e0014c70:	e781c104 	str	ip, [r1, r4, lsl #2]
e0014c74:	e1a01000 	mov	r1, r0
e0014c78:	eaffffe5 	b	e0014c14 <tcbSchedEnqueue+0x3c>

e0014c7c <rescheduleRequired>:
e0014c7c:	e309302c 	movw	r3, #36908	; 0x902c
e0014c80:	e34e3002 	movt	r3, #57346	; 0xe002
e0014c84:	e5930000 	ldr	r0, [r3]
e0014c88:	e3500001 	cmp	r0, #1
e0014c8c:	8a000004 	bhi	e0014ca4 <rescheduleRequired+0x28>
e0014c90:	e309302c 	movw	r3, #36908	; 0x902c
e0014c94:	e34e3002 	movt	r3, #57346	; 0xe002
e0014c98:	e3a02001 	mov	r2, #1
e0014c9c:	e5832000 	str	r2, [r3]
e0014ca0:	e12fff1e 	bx	lr
e0014ca4:	e92d4010 	push	{r4, lr}
e0014ca8:	ebffffca 	bl	e0014bd8 <tcbSchedEnqueue>
e0014cac:	e309302c 	movw	r3, #36908	; 0x902c
e0014cb0:	e34e3002 	movt	r3, #57346	; 0xe002
e0014cb4:	e3a02001 	mov	r2, #1
e0014cb8:	e5832000 	str	r2, [r3]
e0014cbc:	e8bd8010 	pop	{r4, pc}

e0014cc0 <scheduleTCB>:
e0014cc0:	e3013b34 	movw	r3, #6964	; 0x1b34
e0014cc4:	e34e3003 	movt	r3, #57347	; 0xe003
e0014cc8:	e5933000 	ldr	r3, [r3]
e0014ccc:	e1530000 	cmp	r3, r0
e0014cd0:	112fff1e 	bxne	lr
e0014cd4:	e309202c 	movw	r2, #36908	; 0x902c
e0014cd8:	e34e2002 	movt	r2, #57346	; 0xe002
e0014cdc:	e5922000 	ldr	r2, [r2]
e0014ce0:	e3520000 	cmp	r2, #0
e0014ce4:	112fff1e 	bxne	lr
e0014ce8:	e5933050 	ldr	r3, [r3, #80]	; 0x50
e0014cec:	e203300f 	and	r3, r3, #15
e0014cf0:	e2433001 	sub	r3, r3, #1
e0014cf4:	e3530001 	cmp	r3, #1
e0014cf8:	912fff1e 	bxls	lr
e0014cfc:	e92d4010 	push	{r4, lr}
e0014d00:	ebffffdd 	bl	e0014c7c <rescheduleRequired>
e0014d04:	e8bd8010 	pop	{r4, pc}

e0014d08 <setThreadState>:
e0014d08:	e92d4010 	push	{r4, lr}
e0014d0c:	e5903050 	ldr	r3, [r0, #80]	; 0x50
e0014d10:	e3c3300f 	bic	r3, r3, #15
e0014d14:	e201100f 	and	r1, r1, #15
e0014d18:	e1833001 	orr	r3, r3, r1
e0014d1c:	e5803050 	str	r3, [r0, #80]	; 0x50
e0014d20:	ebffffe6 	bl	e0014cc0 <scheduleTCB>
e0014d24:	e8bd8010 	pop	{r4, pc}

e0014d28 <Arch_decodeIRQControlInvocation>:
e0014d28:	e24dd008 	sub	sp, sp, #8
e0014d2c:	e92d40f0 	push	{r4, r5, r6, r7, lr}
e0014d30:	e24dd01c 	sub	sp, sp, #28
e0014d34:	e58d3034 	str	r3, [sp, #52]	; 0x34
e0014d38:	e350002e 	cmp	r0, #46	; 0x2e
e0014d3c:	1a000048 	bne	e0014e64 <Arch_decodeIRQControlInvocation+0x13c>
e0014d40:	e1a00003 	mov	r0, r3
e0014d44:	e3530000 	cmp	r3, #0
e0014d48:	13510003 	cmpne	r1, #3
e0014d4c:	8a000005 	bhi	e0014d68 <Arch_decodeIRQControlInvocation+0x40>
e0014d50:	e3093030 	movw	r3, #36912	; 0x9030
e0014d54:	e34e3002 	movt	r3, #57346	; 0xe002
e0014d58:	e3a02007 	mov	r2, #7
e0014d5c:	e5832018 	str	r2, [r3, #24]
e0014d60:	e3a00003 	mov	r0, #3
e0014d64:	ea000042 	b	e0014e74 <Arch_decodeIRQControlInvocation+0x14c>
e0014d68:	e3013b34 	movw	r3, #6964	; 0x1b34
e0014d6c:	e34e3003 	movt	r3, #57347	; 0xe003
e0014d70:	e5931000 	ldr	r1, [r3]
e0014d74:	e5914008 	ldr	r4, [r1, #8]
e0014d78:	e591500c 	ldr	r5, [r1, #12]
e0014d7c:	e5913010 	ldr	r3, [r1, #16]
e0014d80:	e591e014 	ldr	lr, [r1, #20]
e0014d84:	e28dc008 	add	ip, sp, #8
e0014d88:	e8900003 	ldm	r0, {r0, r1}
e0014d8c:	e88c0003 	stm	ip, {r0, r1}
e0014d90:	e354009f 	cmp	r4, #159	; 0x9f
e0014d94:	8a00000b 	bhi	e0014dc8 <Arch_decodeIRQControlInvocation+0xa0>
e0014d98:	e3091058 	movw	r1, #36952	; 0x9058
e0014d9c:	e34e1002 	movt	r1, #57346	; 0xe002
e0014da0:	e6ff0074 	uxth	r0, r4
e0014da4:	e7911100 	ldr	r1, [r1, r0, lsl #2]
e0014da8:	e3510000 	cmp	r1, #0
e0014dac:	0a00000f 	beq	e0014df0 <Arch_decodeIRQControlInvocation+0xc8>
e0014db0:	e3093030 	movw	r3, #36912	; 0x9030
e0014db4:	e34e3002 	movt	r3, #57346	; 0xe002
e0014db8:	e3a02009 	mov	r2, #9
e0014dbc:	e5832018 	str	r2, [r3, #24]
e0014dc0:	e3a00003 	mov	r0, #3
e0014dc4:	ea00002a 	b	e0014e74 <Arch_decodeIRQControlInvocation+0x14c>
e0014dc8:	e3093030 	movw	r3, #36912	; 0x9030
e0014dcc:	e34e3002 	movt	r3, #57346	; 0xe002
e0014dd0:	e3a02004 	mov	r2, #4
e0014dd4:	e5832018 	str	r2, [r3, #24]
e0014dd8:	e3a02000 	mov	r2, #0
e0014ddc:	e5832008 	str	r2, [r3, #8]
e0014de0:	e3a0209f 	mov	r2, #159	; 0x9f
e0014de4:	e583200c 	str	r2, [r3, #12]
e0014de8:	e3a00003 	mov	r0, #3
e0014dec:	ea000020 	b	e0014e74 <Arch_decodeIRQControlInvocation+0x14c>
e0014df0:	e1a06002 	mov	r6, r2
e0014df4:	e58de000 	str	lr, [sp]
e0014df8:	e28d2008 	add	r2, sp, #8
e0014dfc:	e8920006 	ldm	r2, {r1, r2}
e0014e00:	e28d0010 	add	r0, sp, #16
e0014e04:	ebfff8a3 	bl	e0013098 <lookupTargetSlot>
e0014e08:	e59d0010 	ldr	r0, [sp, #16]
e0014e0c:	e3500000 	cmp	r0, #0
e0014e10:	1a000017 	bne	e0014e74 <Arch_decodeIRQControlInvocation+0x14c>
e0014e14:	e59d7014 	ldr	r7, [sp, #20]
e0014e18:	e1a00007 	mov	r0, r7
e0014e1c:	ebfffa46 	bl	e001373c <ensureEmptySlot>
e0014e20:	e3500000 	cmp	r0, #0
e0014e24:	1a000012 	bne	e0014e74 <Arch_decodeIRQControlInvocation+0x14c>
e0014e28:	e6ff4074 	uxth	r4, r4
e0014e2c:	e3013b34 	movw	r3, #6964	; 0x1b34
e0014e30:	e34e3003 	movt	r3, #57347	; 0xe003
e0014e34:	e3a01002 	mov	r1, #2
e0014e38:	e5930000 	ldr	r0, [r3]
e0014e3c:	ebffffb1 	bl	e0014d08 <setThreadState>
e0014e40:	e2951000 	adds	r1, r5, #0
e0014e44:	13a01001 	movne	r1, #1
e0014e48:	e1a00004 	mov	r0, r4
e0014e4c:	ebfff761 	bl	e0012bd8 <setIRQTrigger>
e0014e50:	e1a02006 	mov	r2, r6
e0014e54:	e1a01007 	mov	r1, r7
e0014e58:	e1a00004 	mov	r0, r4
e0014e5c:	ebfffa95 	bl	e00138b8 <invokeIRQControl>
e0014e60:	ea000003 	b	e0014e74 <Arch_decodeIRQControlInvocation+0x14c>
e0014e64:	e3093030 	movw	r3, #36912	; 0x9030
e0014e68:	e34e3002 	movt	r3, #57346	; 0xe002
e0014e6c:	e3a00003 	mov	r0, #3
e0014e70:	e5830018 	str	r0, [r3, #24]
e0014e74:	e28dd01c 	add	sp, sp, #28
e0014e78:	e8bd40f0 	pop	{r4, r5, r6, r7, lr}
e0014e7c:	e28dd008 	add	sp, sp, #8
e0014e80:	e12fff1e 	bx	lr

e0014e84 <handleDoubleFault>:
e0014e84:	e52de004 	push	{lr}		; (str lr, [sp, #-4]!)
e0014e88:	e24dd00c 	sub	sp, sp, #12
e0014e8c:	e28d3008 	add	r3, sp, #8
e0014e90:	e9030006 	stmdb	r3, {r1, r2}
e0014e94:	e3a01000 	mov	r1, #0
e0014e98:	ebffff9a 	bl	e0014d08 <setThreadState>
e0014e9c:	e28dd00c 	add	sp, sp, #12
e0014ea0:	e49df004 	pop	{pc}		; (ldr pc, [sp], #4)

e0014ea4 <activateThread>:
e0014ea4:	e92d4010 	push	{r4, lr}
e0014ea8:	e3013b34 	movw	r3, #6964	; 0x1b34
e0014eac:	e34e3003 	movt	r3, #57347	; 0xe003
e0014eb0:	e5930000 	ldr	r0, [r3]
e0014eb4:	e5903050 	ldr	r3, [r0, #80]	; 0x50
e0014eb8:	e203300f 	and	r3, r3, #15
e0014ebc:	e3530002 	cmp	r3, #2
e0014ec0:	0a000004 	beq	e0014ed8 <activateThread+0x34>
e0014ec4:	e3530007 	cmp	r3, #7
e0014ec8:	08bd8010 	popeq	{r4, pc}
e0014ecc:	e3530001 	cmp	r3, #1
e0014ed0:	08bd8010 	popeq	{r4, pc}
e0014ed4:	ebffee65 	bl	e0010870 <halt>
e0014ed8:	e5903044 	ldr	r3, [r0, #68]	; 0x44
e0014edc:	e580303c 	str	r3, [r0, #60]	; 0x3c
e0014ee0:	e3a01001 	mov	r1, #1
e0014ee4:	ebffff87 	bl	e0014d08 <setThreadState>
e0014ee8:	e8bd8010 	pop	{r4, pc}

e0014eec <decodeIRQControlInvocation>:
e0014eec:	e24dd008 	sub	sp, sp, #8
e0014ef0:	e92d4070 	push	{r4, r5, r6, lr}
e0014ef4:	e24dd020 	sub	sp, sp, #32
e0014ef8:	e1a0e001 	mov	lr, r1
e0014efc:	e1a04002 	mov	r4, r2
e0014f00:	e58d3034 	str	r3, [sp, #52]	; 0x34
e0014f04:	e3500019 	cmp	r0, #25
e0014f08:	1a000041 	bne	e0015014 <decodeIRQControlInvocation+0x128>
e0014f0c:	e1a02003 	mov	r2, r3
e0014f10:	e3530000 	cmp	r3, #0
e0014f14:	13510002 	cmpne	r1, #2
e0014f18:	8a000005 	bhi	e0014f34 <decodeIRQControlInvocation+0x48>
e0014f1c:	e3093030 	movw	r3, #36912	; 0x9030
e0014f20:	e34e3002 	movt	r3, #57346	; 0xe002
e0014f24:	e3a02007 	mov	r2, #7
e0014f28:	e5832018 	str	r2, [r3, #24]
e0014f2c:	e3a00003 	mov	r0, #3
e0014f30:	ea000041 	b	e001503c <decodeIRQControlInvocation+0x150>
e0014f34:	e3013b34 	movw	r3, #6964	; 0x1b34
e0014f38:	e34e3003 	movt	r3, #57347	; 0xe003
e0014f3c:	e5931000 	ldr	r1, [r3]
e0014f40:	e5915008 	ldr	r5, [r1, #8]
e0014f44:	e591300c 	ldr	r3, [r1, #12]
e0014f48:	e591e010 	ldr	lr, [r1, #16]
e0014f4c:	e28dc010 	add	ip, sp, #16
e0014f50:	e8920003 	ldm	r2, {r0, r1}
e0014f54:	e88c0003 	stm	ip, {r0, r1}
e0014f58:	e355009f 	cmp	r5, #159	; 0x9f
e0014f5c:	8a00000b 	bhi	e0014f90 <decodeIRQControlInvocation+0xa4>
e0014f60:	e3092058 	movw	r2, #36952	; 0x9058
e0014f64:	e34e2002 	movt	r2, #57346	; 0xe002
e0014f68:	e6ff1075 	uxth	r1, r5
e0014f6c:	e7922101 	ldr	r2, [r2, r1, lsl #2]
e0014f70:	e3520000 	cmp	r2, #0
e0014f74:	0a00000f 	beq	e0014fb8 <decodeIRQControlInvocation+0xcc>
e0014f78:	e3093030 	movw	r3, #36912	; 0x9030
e0014f7c:	e34e3002 	movt	r3, #57346	; 0xe002
e0014f80:	e3a02009 	mov	r2, #9
e0014f84:	e5832018 	str	r2, [r3, #24]
e0014f88:	e3a00003 	mov	r0, #3
e0014f8c:	ea00002a 	b	e001503c <decodeIRQControlInvocation+0x150>
e0014f90:	e3093030 	movw	r3, #36912	; 0x9030
e0014f94:	e34e3002 	movt	r3, #57346	; 0xe002
e0014f98:	e3a02004 	mov	r2, #4
e0014f9c:	e5832018 	str	r2, [r3, #24]
e0014fa0:	e3a02000 	mov	r2, #0
e0014fa4:	e5832008 	str	r2, [r3, #8]
e0014fa8:	e3a0209f 	mov	r2, #159	; 0x9f
e0014fac:	e583200c 	str	r2, [r3, #12]
e0014fb0:	e3a00003 	mov	r0, #3
e0014fb4:	ea000020 	b	e001503c <decodeIRQControlInvocation+0x150>
e0014fb8:	e58de000 	str	lr, [sp]
e0014fbc:	e28d2010 	add	r2, sp, #16
e0014fc0:	e8920006 	ldm	r2, {r1, r2}
e0014fc4:	e28d0018 	add	r0, sp, #24
e0014fc8:	ebfff832 	bl	e0013098 <lookupTargetSlot>
e0014fcc:	e59d0018 	ldr	r0, [sp, #24]
e0014fd0:	e3500000 	cmp	r0, #0
e0014fd4:	1a000018 	bne	e001503c <decodeIRQControlInvocation+0x150>
e0014fd8:	e59d601c 	ldr	r6, [sp, #28]
e0014fdc:	e1a00006 	mov	r0, r6
e0014fe0:	ebfff9d5 	bl	e001373c <ensureEmptySlot>
e0014fe4:	e3500000 	cmp	r0, #0
e0014fe8:	1a000013 	bne	e001503c <decodeIRQControlInvocation+0x150>
e0014fec:	e3013b34 	movw	r3, #6964	; 0x1b34
e0014ff0:	e34e3003 	movt	r3, #57347	; 0xe003
e0014ff4:	e3a01002 	mov	r1, #2
e0014ff8:	e5930000 	ldr	r0, [r3]
e0014ffc:	ebffff41 	bl	e0014d08 <setThreadState>
e0015000:	e1a02004 	mov	r2, r4
e0015004:	e1a01006 	mov	r1, r6
e0015008:	e6ff0075 	uxth	r0, r5
e001500c:	ebfffa29 	bl	e00138b8 <invokeIRQControl>
e0015010:	ea000009 	b	e001503c <decodeIRQControlInvocation+0x150>
e0015014:	e1a0c000 	mov	ip, r0
e0015018:	e59d3040 	ldr	r3, [sp, #64]	; 0x40
e001501c:	e58d3008 	str	r3, [sp, #8]
e0015020:	e28d3038 	add	r3, sp, #56	; 0x38
e0015024:	e8930003 	ldm	r3, {r0, r1}
e0015028:	e88d0003 	stm	sp, {r0, r1}
e001502c:	e59d3034 	ldr	r3, [sp, #52]	; 0x34
e0015030:	e1a0100e 	mov	r1, lr
e0015034:	e1a0000c 	mov	r0, ip
e0015038:	ebffff3a 	bl	e0014d28 <Arch_decodeIRQControlInvocation>
e001503c:	e28dd020 	add	sp, sp, #32
e0015040:	e8bd4070 	pop	{r4, r5, r6, lr}
e0015044:	e28dd008 	add	sp, sp, #8
e0015048:	e12fff1e 	bx	lr

e001504c <receiveSignal>:
e001504c:	e92d4030 	push	{r4, r5, lr}
e0015050:	e24dd00c 	sub	sp, sp, #12
e0015054:	e28dc008 	add	ip, sp, #8
e0015058:	e90c0006 	stmdb	ip, {r1, r2}
e001505c:	e59d4000 	ldr	r4, [sp]
e0015060:	e3c4400f 	bic	r4, r4, #15
e0015064:	e5942000 	ldr	r2, [r4]
e0015068:	e2022003 	and	r2, r2, #3
e001506c:	e3520001 	cmp	r2, #1
e0015070:	9a000003 	bls	e0015084 <receiveSignal+0x38>
e0015074:	e3520002 	cmp	r2, #2
e0015078:	0a00001e 	beq	e00150f8 <receiveSignal+0xac>
e001507c:	e28dd00c 	add	sp, sp, #12
e0015080:	e8bd8030 	pop	{r4, r5, pc}
e0015084:	e3530000 	cmp	r3, #0
e0015088:	03a03000 	moveq	r3, #0
e001508c:	05803000 	streq	r3, [r0]
e0015090:	0afffff9 	beq	e001507c <receiveSignal+0x30>
e0015094:	e1a05000 	mov	r5, r0
e0015098:	e3843006 	orr	r3, r4, #6
e001509c:	e5803050 	str	r3, [r0, #80]	; 0x50
e00150a0:	ebffff06 	bl	e0014cc0 <scheduleTCB>
e00150a4:	e5943004 	ldr	r3, [r4, #4]
e00150a8:	e5942000 	ldr	r2, [r4]
e00150ac:	e3c2200f 	bic	r2, r2, #15
e00150b0:	e3d3300f 	bics	r3, r3, #15
e00150b4:	15825090 	strne	r5, [r2, #144]	; 0x90
e00150b8:	01a03005 	moveq	r3, r5
e00150bc:	e5852094 	str	r2, [r5, #148]	; 0x94
e00150c0:	e3a02000 	mov	r2, #0
e00150c4:	e5852090 	str	r2, [r5, #144]	; 0x90
e00150c8:	e5940000 	ldr	r0, [r4]
e00150cc:	e5942004 	ldr	r2, [r4, #4]
e00150d0:	e202200f 	and	r2, r2, #15
e00150d4:	e3c3300f 	bic	r3, r3, #15
e00150d8:	e1823003 	orr	r3, r2, r3
e00150dc:	e5843004 	str	r3, [r4, #4]
e00150e0:	e200000c 	and	r0, r0, #12
e00150e4:	e3803001 	orr	r3, r0, #1
e00150e8:	e3c5000f 	bic	r0, r5, #15
e00150ec:	e1830000 	orr	r0, r3, r0
e00150f0:	e5840000 	str	r0, [r4]
e00150f4:	eaffffe0 	b	e001507c <receiveSignal+0x30>
e00150f8:	e5943008 	ldr	r3, [r4, #8]
e00150fc:	e5803000 	str	r3, [r0]
e0015100:	e5943000 	ldr	r3, [r4]
e0015104:	e3c33003 	bic	r3, r3, #3
e0015108:	e5843000 	str	r3, [r4]
e001510c:	eaffffda 	b	e001507c <receiveSignal+0x30>

e0015110 <possibleSwitchTo>:
e0015110:	e92d4010 	push	{r4, lr}
e0015114:	e1a04000 	mov	r4, r0
e0015118:	e30134e4 	movw	r3, #5348	; 0x14e4
e001511c:	e34e3003 	movt	r3, #57347	; 0xe003
e0015120:	e5902070 	ldr	r2, [r0, #112]	; 0x70
e0015124:	e5933000 	ldr	r3, [r3]
e0015128:	e1520003 	cmp	r2, r3
e001512c:	1a000008 	bne	e0015154 <possibleSwitchTo+0x44>
e0015130:	e309302c 	movw	r3, #36908	; 0x902c
e0015134:	e34e3002 	movt	r3, #57346	; 0xe002
e0015138:	e5933000 	ldr	r3, [r3]
e001513c:	e3530000 	cmp	r3, #0
e0015140:	1a000005 	bne	e001515c <possibleSwitchTo+0x4c>
e0015144:	e309302c 	movw	r3, #36908	; 0x902c
e0015148:	e34e3002 	movt	r3, #57346	; 0xe002
e001514c:	e5830000 	str	r0, [r3]
e0015150:	e8bd8010 	pop	{r4, pc}
e0015154:	ebfffe9f 	bl	e0014bd8 <tcbSchedEnqueue>
e0015158:	e8bd8010 	pop	{r4, pc}
e001515c:	ebfffec6 	bl	e0014c7c <rescheduleRequired>
e0015160:	e1a00004 	mov	r0, r4
e0015164:	ebfffe9b 	bl	e0014bd8 <tcbSchedEnqueue>
e0015168:	e8bd8010 	pop	{r4, pc}

e001516c <cancelAllIPC>:
e001516c:	e5903000 	ldr	r3, [r0]
e0015170:	e3130003 	tst	r3, #3
e0015174:	012fff1e 	bxeq	lr
e0015178:	e92d4070 	push	{r4, r5, r6, lr}
e001517c:	e5904004 	ldr	r4, [r0, #4]
e0015180:	e204200f 	and	r2, r4, #15
e0015184:	e5802004 	str	r2, [r0, #4]
e0015188:	e203300c 	and	r3, r3, #12
e001518c:	e5803000 	str	r3, [r0]
e0015190:	e3d4400f 	bics	r4, r4, #15
e0015194:	0a000008 	beq	e00151bc <cancelAllIPC+0x50>
e0015198:	e3a05002 	mov	r5, #2
e001519c:	e1a01005 	mov	r1, r5
e00151a0:	e1a00004 	mov	r0, r4
e00151a4:	ebfffed7 	bl	e0014d08 <setThreadState>
e00151a8:	e1a00004 	mov	r0, r4
e00151ac:	ebfffe89 	bl	e0014bd8 <tcbSchedEnqueue>
e00151b0:	e5944090 	ldr	r4, [r4, #144]	; 0x90
e00151b4:	e3540000 	cmp	r4, #0
e00151b8:	1afffff7 	bne	e001519c <cancelAllIPC+0x30>
e00151bc:	ebfffeae 	bl	e0014c7c <rescheduleRequired>
e00151c0:	e8bd8070 	pop	{r4, r5, r6, pc}

e00151c4 <cancelAllSignals>:
e00151c4:	e5903000 	ldr	r3, [r0]
e00151c8:	e2032003 	and	r2, r3, #3
e00151cc:	e3520001 	cmp	r2, #1
e00151d0:	112fff1e 	bxne	lr
e00151d4:	e92d4070 	push	{r4, r5, r6, lr}
e00151d8:	e5904004 	ldr	r4, [r0, #4]
e00151dc:	e204200f 	and	r2, r4, #15
e00151e0:	e5802004 	str	r2, [r0, #4]
e00151e4:	e203300c 	and	r3, r3, #12
e00151e8:	e5803000 	str	r3, [r0]
e00151ec:	e3d4400f 	bics	r4, r4, #15
e00151f0:	0a000008 	beq	e0015218 <cancelAllSignals+0x54>
e00151f4:	e3a05002 	mov	r5, #2
e00151f8:	e1a01005 	mov	r1, r5
e00151fc:	e1a00004 	mov	r0, r4
e0015200:	ebfffec0 	bl	e0014d08 <setThreadState>
e0015204:	e1a00004 	mov	r0, r4
e0015208:	ebfffe72 	bl	e0014bd8 <tcbSchedEnqueue>
e001520c:	e5944090 	ldr	r4, [r4, #144]	; 0x90
e0015210:	e3540000 	cmp	r4, #0
e0015214:	1afffff7 	bne	e00151f8 <cancelAllSignals+0x34>
e0015218:	ebfffe97 	bl	e0014c7c <rescheduleRequired>
e001521c:	e8bd8070 	pop	{r4, r5, r6, pc}

e0015220 <tcbSchedAppend>:
e0015220:	e5903054 	ldr	r3, [r0, #84]	; 0x54
e0015224:	e3130001 	tst	r3, #1
e0015228:	112fff1e 	bxne	lr
e001522c:	e92d43f0 	push	{r4, r5, r6, r7, r8, r9, lr}
e0015230:	e5904070 	ldr	r4, [r0, #112]	; 0x70
e0015234:	e590c078 	ldr	ip, [r0, #120]	; 0x78
e0015238:	e08c2404 	add	r2, ip, r4, lsl #8
e001523c:	e30934dc 	movw	r3, #38108	; 0x94dc
e0015240:	e34e3002 	movt	r3, #57346	; 0xe002
e0015244:	e083e182 	add	lr, r3, r2, lsl #3
e0015248:	e7931182 	ldr	r1, [r3, r2, lsl #3]
e001524c:	e59e5004 	ldr	r5, [lr, #4]
e0015250:	e3510000 	cmp	r1, #0
e0015254:	15850088 	strne	r0, [r5, #136]	; 0x88
e0015258:	0a000008 	beq	e0015280 <tcbSchedAppend+0x60>
e001525c:	e580508c 	str	r5, [r0, #140]	; 0x8c
e0015260:	e3a0c000 	mov	ip, #0
e0015264:	e580c088 	str	ip, [r0, #136]	; 0x88
e0015268:	e7831182 	str	r1, [r3, r2, lsl #3]
e001526c:	e58e0004 	str	r0, [lr, #4]
e0015270:	e5903054 	ldr	r3, [r0, #84]	; 0x54
e0015274:	e3833001 	orr	r3, r3, #1
e0015278:	e5803054 	str	r3, [r0, #84]	; 0x54
e001527c:	e8bd83f0 	pop	{r4, r5, r6, r7, r8, r9, pc}
e0015280:	e1a092ac 	lsr	r9, ip, #5
e0015284:	e2696007 	rsb	r6, r9, #7
e0015288:	e30116f0 	movw	r1, #5872	; 0x16f0
e001528c:	e34e1003 	movt	r1, #57347	; 0xe003
e0015290:	e3a07001 	mov	r7, #1
e0015294:	e7918104 	ldr	r8, [r1, r4, lsl #2]
e0015298:	e1888917 	orr	r8, r8, r7, lsl r9
e001529c:	e7818104 	str	r8, [r1, r4, lsl #2]
e00152a0:	e30114ec 	movw	r1, #5356	; 0x14ec
e00152a4:	e34e1003 	movt	r1, #57347	; 0xe003
e00152a8:	e0864184 	add	r4, r6, r4, lsl #3
e00152ac:	e20cc01f 	and	ip, ip, #31
e00152b0:	e7916104 	ldr	r6, [r1, r4, lsl #2]
e00152b4:	e186cc17 	orr	ip, r6, r7, lsl ip
e00152b8:	e781c104 	str	ip, [r1, r4, lsl #2]
e00152bc:	e1a01000 	mov	r1, r0
e00152c0:	eaffffe5 	b	e001525c <tcbSchedAppend+0x3c>

e00152c4 <timerTick>:
e00152c4:	e92d4010 	push	{r4, lr}
e00152c8:	e3013b34 	movw	r3, #6964	; 0x1b34
e00152cc:	e34e3003 	movt	r3, #57347	; 0xe003
e00152d0:	e5930000 	ldr	r0, [r3]
e00152d4:	e5903050 	ldr	r3, [r0, #80]	; 0x50
e00152d8:	e203300f 	and	r3, r3, #15
e00152dc:	e3530001 	cmp	r3, #1
e00152e0:	1a000004 	bne	e00152f8 <timerTick+0x34>
e00152e4:	e590307c 	ldr	r3, [r0, #124]	; 0x7c
e00152e8:	e3530001 	cmp	r3, #1
e00152ec:	9a00000a 	bls	e001531c <timerTick+0x58>
e00152f0:	e2433001 	sub	r3, r3, #1
e00152f4:	e580307c 	str	r3, [r0, #124]	; 0x7c
e00152f8:	e30124dc 	movw	r2, #5340	; 0x14dc
e00152fc:	e34e2003 	movt	r2, #57347	; 0xe003
e0015300:	e5923000 	ldr	r3, [r2]
e0015304:	e2433001 	sub	r3, r3, #1
e0015308:	e5823000 	str	r3, [r2]
e001530c:	e3530000 	cmp	r3, #0
e0015310:	18bd8010 	popne	{r4, pc}
e0015314:	ebfffe58 	bl	e0014c7c <rescheduleRequired>
e0015318:	e8bd8010 	pop	{r4, pc}
e001531c:	e3a03005 	mov	r3, #5
e0015320:	e580307c 	str	r3, [r0, #124]	; 0x7c
e0015324:	ebffffbd 	bl	e0015220 <tcbSchedAppend>
e0015328:	ebfffe53 	bl	e0014c7c <rescheduleRequired>
e001532c:	eafffff1 	b	e00152f8 <timerTick+0x34>

e0015330 <tcbSchedDequeue>:
e0015330:	e5903054 	ldr	r3, [r0, #84]	; 0x54
e0015334:	e3130001 	tst	r3, #1
e0015338:	012fff1e 	bxeq	lr
e001533c:	e92d47f0 	push	{r4, r5, r6, r7, r8, r9, sl, lr}
e0015340:	e5905070 	ldr	r5, [r0, #112]	; 0x70
e0015344:	e5901078 	ldr	r1, [r0, #120]	; 0x78
e0015348:	e0812405 	add	r2, r1, r5, lsl #8
e001534c:	e30934dc 	movw	r3, #38108	; 0x94dc
e0015350:	e34e3002 	movt	r3, #57346	; 0xe002
e0015354:	e083c182 	add	ip, r3, r2, lsl #3
e0015358:	e59c6004 	ldr	r6, [ip, #4]
e001535c:	e590e08c 	ldr	lr, [r0, #140]	; 0x8c
e0015360:	e35e0000 	cmp	lr, #0
e0015364:	0a00000d 	beq	e00153a0 <tcbSchedDequeue+0x70>
e0015368:	e7934182 	ldr	r4, [r3, r2, lsl #3]
e001536c:	e5901088 	ldr	r1, [r0, #136]	; 0x88
e0015370:	e58e1088 	str	r1, [lr, #136]	; 0x88
e0015374:	e5901088 	ldr	r1, [r0, #136]	; 0x88
e0015378:	e3510000 	cmp	r1, #0
e001537c:	0a00001f 	beq	e0015400 <tcbSchedDequeue+0xd0>
e0015380:	e590e08c 	ldr	lr, [r0, #140]	; 0x8c
e0015384:	e581e08c 	str	lr, [r1, #140]	; 0x8c
e0015388:	e7834182 	str	r4, [r3, r2, lsl #3]
e001538c:	e58c6004 	str	r6, [ip, #4]
e0015390:	e5903054 	ldr	r3, [r0, #84]	; 0x54
e0015394:	e3c33001 	bic	r3, r3, #1
e0015398:	e5803054 	str	r3, [r0, #84]	; 0x54
e001539c:	e8bd87f0 	pop	{r4, r5, r6, r7, r8, r9, sl, pc}
e00153a0:	e5904088 	ldr	r4, [r0, #136]	; 0x88
e00153a4:	e3540000 	cmp	r4, #0
e00153a8:	1a000012 	bne	e00153f8 <tcbSchedDequeue+0xc8>
e00153ac:	e1a092a1 	lsr	r9, r1, #5
e00153b0:	e2698007 	rsb	r8, r9, #7
e00153b4:	e201101f 	and	r1, r1, #31
e00153b8:	e30174ec 	movw	r7, #5356	; 0x14ec
e00153bc:	e34e7003 	movt	r7, #57347	; 0xe003
e00153c0:	e0888185 	add	r8, r8, r5, lsl #3
e00153c4:	e797e108 	ldr	lr, [r7, r8, lsl #2]
e00153c8:	e3a0a001 	mov	sl, #1
e00153cc:	e1ce111a 	bic	r1, lr, sl, lsl r1
e00153d0:	e7871108 	str	r1, [r7, r8, lsl #2]
e00153d4:	e3510000 	cmp	r1, #0
e00153d8:	1affffe5 	bne	e0015374 <tcbSchedDequeue+0x44>
e00153dc:	e30116f0 	movw	r1, #5872	; 0x16f0
e00153e0:	e34e1003 	movt	r1, #57347	; 0xe003
e00153e4:	e791e105 	ldr	lr, [r1, r5, lsl #2]
e00153e8:	e1a0700a 	mov	r7, sl
e00153ec:	e1ce991a 	bic	r9, lr, sl, lsl r9
e00153f0:	e7819105 	str	r9, [r1, r5, lsl #2]
e00153f4:	eaffffde 	b	e0015374 <tcbSchedDequeue+0x44>
e00153f8:	e1a01004 	mov	r1, r4
e00153fc:	eaffffdf 	b	e0015380 <tcbSchedDequeue+0x50>
e0015400:	e590608c 	ldr	r6, [r0, #140]	; 0x8c
e0015404:	eaffffdf 	b	e0015388 <tcbSchedDequeue+0x58>

e0015408 <switchToThread>:
e0015408:	e92d4010 	push	{r4, lr}
e001540c:	e1a04000 	mov	r4, r0
e0015410:	ebfff01c 	bl	e0011488 <Arch_switchToThread>
e0015414:	e1a00004 	mov	r0, r4
e0015418:	ebffffc4 	bl	e0015330 <tcbSchedDequeue>
e001541c:	e3013b34 	movw	r3, #6964	; 0x1b34
e0015420:	e34e3003 	movt	r3, #57347	; 0xe003
e0015424:	e5834000 	str	r4, [r3]
e0015428:	e8bd8010 	pop	{r4, pc}

e001542c <chooseThread>:
e001542c:	e92d4010 	push	{r4, lr}
e0015430:	e30134e4 	movw	r3, #5348	; 0x14e4
e0015434:	e34e3003 	movt	r3, #57347	; 0xe003
e0015438:	e5931000 	ldr	r1, [r3]
e001543c:	e30126f0 	movw	r2, #5872	; 0x16f0
e0015440:	e34e2003 	movt	r2, #57347	; 0xe003
e0015444:	e7922101 	ldr	r2, [r2, r1, lsl #2]
e0015448:	e3520000 	cmp	r2, #0
e001544c:	0a00000f 	beq	e0015490 <chooseThread+0x64>
e0015450:	e16f2f12 	clz	r2, r2
e0015454:	e262201f 	rsb	r2, r2, #31
e0015458:	e30134ec 	movw	r3, #5356	; 0x14ec
e001545c:	e34e3003 	movt	r3, #57347	; 0xe003
e0015460:	e2620007 	rsb	r0, r2, #7
e0015464:	e0800181 	add	r0, r0, r1, lsl #3
e0015468:	e7933100 	ldr	r3, [r3, r0, lsl #2]
e001546c:	e16f3f13 	clz	r3, r3
e0015470:	e30904dc 	movw	r0, #38108	; 0x94dc
e0015474:	e34e0002 	movt	r0, #57346	; 0xe002
e0015478:	e263301f 	rsb	r3, r3, #31
e001547c:	e1833282 	orr	r3, r3, r2, lsl #5
e0015480:	e0833401 	add	r3, r3, r1, lsl #8
e0015484:	e7900183 	ldr	r0, [r0, r3, lsl #3]
e0015488:	ebffffde 	bl	e0015408 <switchToThread>
e001548c:	e8bd8010 	pop	{r4, pc}
e0015490:	ebfff72f 	bl	e0013154 <switchToIdleThread>
e0015494:	e8bd8010 	pop	{r4, pc}

e0015498 <scheduleChooseNewThread>:
e0015498:	e92d4010 	push	{r4, lr}
e001549c:	e30134dc 	movw	r3, #5340	; 0x14dc
e00154a0:	e34e3003 	movt	r3, #57347	; 0xe003
e00154a4:	e5933000 	ldr	r3, [r3]
e00154a8:	e3530000 	cmp	r3, #0
e00154ac:	0a000001 	beq	e00154b8 <scheduleChooseNewThread+0x20>
e00154b0:	ebffffdd 	bl	e001542c <chooseThread>
e00154b4:	e8bd8010 	pop	{r4, pc}
e00154b8:	e3013b38 	movw	r3, #6968	; 0x1b38
e00154bc:	e34e3003 	movt	r3, #57347	; 0xe003
e00154c0:	e5933000 	ldr	r3, [r3]
e00154c4:	e2833001 	add	r3, r3, #1
e00154c8:	e3530002 	cmp	r3, #2
e00154cc:	93012b38 	movwls	r2, #6968	; 0x1b38
e00154d0:	934e2003 	movtls	r2, #57347	; 0xe003
e00154d4:	95823000 	strls	r3, [r2]
e00154d8:	83013b38 	movwhi	r3, #6968	; 0x1b38
e00154dc:	834e3003 	movthi	r3, #57347	; 0xe003
e00154e0:	83a02000 	movhi	r2, #0
e00154e4:	85832000 	strhi	r2, [r3]
e00154e8:	e30136ec 	movw	r3, #5868	; 0x16ec
e00154ec:	e34e3003 	movt	r3, #57347	; 0xe003
e00154f0:	e3a02000 	mov	r2, #0
e00154f4:	e5832000 	str	r2, [r3]
e00154f8:	e3013b38 	movw	r3, #6968	; 0x1b38
e00154fc:	e34e3003 	movt	r3, #57347	; 0xe003
e0015500:	e5931000 	ldr	r1, [r3]
e0015504:	e30124e4 	movw	r2, #5348	; 0x14e4
e0015508:	e34e2003 	movt	r2, #57347	; 0xe003
e001550c:	e30b3768 	movw	r3, #46952	; 0xb768
e0015510:	e34e3001 	movt	r3, #57345	; 0xe001
e0015514:	e0833181 	add	r3, r3, r1, lsl #3
e0015518:	e5931070 	ldr	r1, [r3, #112]	; 0x70
e001551c:	e5821000 	str	r1, [r2]
e0015520:	e30124dc 	movw	r2, #5340	; 0x14dc
e0015524:	e34e2003 	movt	r2, #57347	; 0xe003
e0015528:	e5933074 	ldr	r3, [r3, #116]	; 0x74
e001552c:	e5823000 	str	r3, [r2]
e0015530:	eaffffde 	b	e00154b0 <scheduleChooseNewThread+0x18>

e0015534 <schedule>:
e0015534:	e309302c 	movw	r3, #36908	; 0x902c
e0015538:	e34e3002 	movt	r3, #57346	; 0xe002
e001553c:	e5933000 	ldr	r3, [r3]
e0015540:	e3530000 	cmp	r3, #0
e0015544:	0a00004e 	beq	e0015684 <schedule+0x150>
e0015548:	e92d4010 	push	{r4, lr}
e001554c:	e3013b34 	movw	r3, #6964	; 0x1b34
e0015550:	e34e3003 	movt	r3, #57347	; 0xe003
e0015554:	e5930000 	ldr	r0, [r3]
e0015558:	e5903050 	ldr	r3, [r0, #80]	; 0x50
e001555c:	e203300f 	and	r3, r3, #15
e0015560:	e2433001 	sub	r3, r3, #1
e0015564:	e3530001 	cmp	r3, #1
e0015568:	83a0c000 	movhi	ip, #0
e001556c:	9a00002c 	bls	e0015624 <schedule+0xf0>
e0015570:	e309302c 	movw	r3, #36908	; 0x902c
e0015574:	e34e3002 	movt	r3, #57346	; 0xe002
e0015578:	e5930000 	ldr	r0, [r3]
e001557c:	e3500001 	cmp	r0, #1
e0015580:	0a00002a 	beq	e0015630 <schedule+0xfc>
e0015584:	e3013b34 	movw	r3, #6964	; 0x1b34
e0015588:	e34e3003 	movt	r3, #57347	; 0xe003
e001558c:	e5932000 	ldr	r2, [r3]
e0015590:	e3093020 	movw	r3, #36896	; 0x9020
e0015594:	e34e3002 	movt	r3, #57346	; 0xe002
e0015598:	e5933000 	ldr	r3, [r3]
e001559c:	e1520003 	cmp	r2, r3
e00155a0:	0a000003 	beq	e00155b4 <schedule+0x80>
e00155a4:	e5901078 	ldr	r1, [r0, #120]	; 0x78
e00155a8:	e5923078 	ldr	r3, [r2, #120]	; 0x78
e00155ac:	e1510003 	cmp	r1, r3
e00155b0:	2a000020 	bcs	e0015638 <schedule+0x104>
e00155b4:	e30134e4 	movw	r3, #5348	; 0x14e4
e00155b8:	e34e3003 	movt	r3, #57347	; 0xe003
e00155bc:	e5931000 	ldr	r1, [r3]
e00155c0:	e30136f0 	movw	r3, #5872	; 0x16f0
e00155c4:	e34e3003 	movt	r3, #57347	; 0xe003
e00155c8:	e7933101 	ldr	r3, [r3, r1, lsl #2]
e00155cc:	e3530000 	cmp	r3, #0
e00155d0:	0a000018 	beq	e0015638 <schedule+0x104>
e00155d4:	e16f3f13 	clz	r3, r3
e00155d8:	e263301f 	rsb	r3, r3, #31
e00155dc:	e301e4ec 	movw	lr, #5356	; 0x14ec
e00155e0:	e34ee003 	movt	lr, #57347	; 0xe003
e00155e4:	e2634007 	rsb	r4, r3, #7
e00155e8:	e0841181 	add	r1, r4, r1, lsl #3
e00155ec:	e79e1101 	ldr	r1, [lr, r1, lsl #2]
e00155f0:	e16f1f11 	clz	r1, r1
e00155f4:	e261101f 	rsb	r1, r1, #31
e00155f8:	e1813283 	orr	r3, r1, r3, lsl #5
e00155fc:	e5901078 	ldr	r1, [r0, #120]	; 0x78
e0015600:	e1510003 	cmp	r1, r3
e0015604:	2a00000b 	bcs	e0015638 <schedule+0x104>
e0015608:	ebfffd72 	bl	e0014bd8 <tcbSchedEnqueue>
e001560c:	e309302c 	movw	r3, #36908	; 0x902c
e0015610:	e34e3002 	movt	r3, #57346	; 0xe002
e0015614:	e3a02001 	mov	r2, #1
e0015618:	e5832000 	str	r2, [r3]
e001561c:	ebffff9d 	bl	e0015498 <scheduleChooseNewThread>
e0015620:	ea00000b 	b	e0015654 <schedule+0x120>
e0015624:	ebfffd6b 	bl	e0014bd8 <tcbSchedEnqueue>
e0015628:	e3a0c001 	mov	ip, #1
e001562c:	eaffffcf 	b	e0015570 <schedule+0x3c>
e0015630:	ebffff98 	bl	e0015498 <scheduleChooseNewThread>
e0015634:	ea000006 	b	e0015654 <schedule+0x120>
e0015638:	e35c0000 	cmp	ip, #0
e001563c:	0a000003 	beq	e0015650 <schedule+0x11c>
e0015640:	e5901078 	ldr	r1, [r0, #120]	; 0x78
e0015644:	e5923078 	ldr	r3, [r2, #120]	; 0x78
e0015648:	e1510003 	cmp	r1, r3
e001564c:	0a000005 	beq	e0015668 <schedule+0x134>
e0015650:	ebffff6c 	bl	e0015408 <switchToThread>
e0015654:	e309302c 	movw	r3, #36908	; 0x902c
e0015658:	e34e3002 	movt	r3, #57346	; 0xe002
e001565c:	e3a02000 	mov	r2, #0
e0015660:	e5832000 	str	r2, [r3]
e0015664:	e8bd8010 	pop	{r4, pc}
e0015668:	ebfffeec 	bl	e0015220 <tcbSchedAppend>
e001566c:	e309302c 	movw	r3, #36908	; 0x902c
e0015670:	e34e3002 	movt	r3, #57346	; 0xe002
e0015674:	e3a02001 	mov	r2, #1
e0015678:	e5832000 	str	r2, [r3]
e001567c:	ebffff85 	bl	e0015498 <scheduleChooseNewThread>
e0015680:	eafffff3 	b	e0015654 <schedule+0x120>
e0015684:	e309302c 	movw	r3, #36908	; 0x902c
e0015688:	e34e3002 	movt	r3, #57346	; 0xe002
e001568c:	e3a02000 	mov	r2, #0
e0015690:	e5832000 	str	r2, [r3]
e0015694:	e12fff1e 	bx	lr

e0015698 <setDomain>:
e0015698:	e92d4070 	push	{r4, r5, r6, lr}
e001569c:	e1a04000 	mov	r4, r0
e00156a0:	e1a05001 	mov	r5, r1
e00156a4:	ebffff21 	bl	e0015330 <tcbSchedDequeue>
e00156a8:	e5845070 	str	r5, [r4, #112]	; 0x70
e00156ac:	e5943050 	ldr	r3, [r4, #80]	; 0x50
e00156b0:	e203300f 	and	r3, r3, #15
e00156b4:	e2433001 	sub	r3, r3, #1
e00156b8:	e3530001 	cmp	r3, #1
e00156bc:	9a000006 	bls	e00156dc <setDomain+0x44>
e00156c0:	e3013b34 	movw	r3, #6964	; 0x1b34
e00156c4:	e34e3003 	movt	r3, #57347	; 0xe003
e00156c8:	e5933000 	ldr	r3, [r3]
e00156cc:	e1530004 	cmp	r3, r4
e00156d0:	18bd8070 	popne	{r4, r5, r6, pc}
e00156d4:	ebfffd68 	bl	e0014c7c <rescheduleRequired>
e00156d8:	e8bd8070 	pop	{r4, r5, r6, pc}
e00156dc:	e1a00004 	mov	r0, r4
e00156e0:	ebfffd3c 	bl	e0014bd8 <tcbSchedEnqueue>
e00156e4:	eafffff5 	b	e00156c0 <setDomain+0x28>

e00156e8 <setPriority>:
e00156e8:	e92d4070 	push	{r4, r5, r6, lr}
e00156ec:	e1a04000 	mov	r4, r0
e00156f0:	e1a05001 	mov	r5, r1
e00156f4:	ebffff0d 	bl	e0015330 <tcbSchedDequeue>
e00156f8:	e5845078 	str	r5, [r4, #120]	; 0x78
e00156fc:	e5943050 	ldr	r3, [r4, #80]	; 0x50
e0015700:	e203300f 	and	r3, r3, #15
e0015704:	e2433001 	sub	r3, r3, #1
e0015708:	e3530001 	cmp	r3, #1
e001570c:	88bd8070 	pophi	{r4, r5, r6, pc}
e0015710:	e1a00004 	mov	r0, r4
e0015714:	ebfffd2f 	bl	e0014bd8 <tcbSchedEnqueue>
e0015718:	ebfffd57 	bl	e0014c7c <rescheduleRequired>
e001571c:	e8bd8070 	pop	{r4, r5, r6, pc}

e0015720 <tcbEPAppend>:
e0015720:	e24dd008 	sub	sp, sp, #8
e0015724:	e28dc008 	add	ip, sp, #8
e0015728:	e90c000c 	stmdb	ip, {r2, r3}
e001572c:	e59d3000 	ldr	r3, [sp]
e0015730:	e59d2004 	ldr	r2, [sp, #4]
e0015734:	e3530000 	cmp	r3, #0
e0015738:	15821090 	strne	r1, [r2, #144]	; 0x90
e001573c:	01a03001 	moveq	r3, r1
e0015740:	e5812094 	str	r2, [r1, #148]	; 0x94
e0015744:	e3a02000 	mov	r2, #0
e0015748:	e5812090 	str	r2, [r1, #144]	; 0x90
e001574c:	e5803000 	str	r3, [r0]
e0015750:	e5801004 	str	r1, [r0, #4]
e0015754:	e28dd008 	add	sp, sp, #8
e0015758:	e12fff1e 	bx	lr

e001575c <tcbEPDequeue>:
e001575c:	e52de004 	push	{lr}		; (str lr, [sp, #-4]!)
e0015760:	e24dd00c 	sub	sp, sp, #12
e0015764:	e28dc008 	add	ip, sp, #8
e0015768:	e90c000c 	stmdb	ip, {r2, r3}
e001576c:	e59d2004 	ldr	r2, [sp, #4]
e0015770:	e5913094 	ldr	r3, [r1, #148]	; 0x94
e0015774:	e3530000 	cmp	r3, #0
e0015778:	159dc000 	ldrne	ip, [sp]
e001577c:	1591e090 	ldrne	lr, [r1, #144]	; 0x90
e0015780:	1583e090 	strne	lr, [r3, #144]	; 0x90
e0015784:	0591c090 	ldreq	ip, [r1, #144]	; 0x90
e0015788:	e5913090 	ldr	r3, [r1, #144]	; 0x90
e001578c:	e3530000 	cmp	r3, #0
e0015790:	15911094 	ldrne	r1, [r1, #148]	; 0x94
e0015794:	15831094 	strne	r1, [r3, #148]	; 0x94
e0015798:	05912094 	ldreq	r2, [r1, #148]	; 0x94
e001579c:	e580c000 	str	ip, [r0]
e00157a0:	e5802004 	str	r2, [r0, #4]
e00157a4:	e28dd00c 	add	sp, sp, #12
e00157a8:	e49df004 	pop	{pc}		; (ldr pc, [sp], #4)

e00157ac <cancelBadgedSends>:
e00157ac:	e92d4ff0 	push	{r4, r5, r6, r7, r8, r9, sl, fp, lr}
e00157b0:	e24dd014 	sub	sp, sp, #20
e00157b4:	e5903000 	ldr	r3, [r0]
e00157b8:	e2032003 	and	r2, r3, #3
e00157bc:	e3520001 	cmp	r2, #1
e00157c0:	0a000003 	beq	e00157d4 <cancelBadgedSends+0x28>
e00157c4:	3a000035 	bcc	e00158a0 <cancelBadgedSends+0xf4>
e00157c8:	e3520002 	cmp	r2, #2
e00157cc:	0a000033 	beq	e00158a0 <cancelBadgedSends+0xf4>
e00157d0:	ebffec26 	bl	e0010870 <halt>
e00157d4:	e1a06000 	mov	r6, r0
e00157d8:	e1a07001 	mov	r7, r1
e00157dc:	e5904004 	ldr	r4, [r0, #4]
e00157e0:	e3c3800f 	bic	r8, r3, #15
e00157e4:	e204200f 	and	r2, r4, #15
e00157e8:	e5802004 	str	r2, [r0, #4]
e00157ec:	e203200c 	and	r2, r3, #12
e00157f0:	e5802000 	str	r2, [r0]
e00157f4:	e3d4400f 	bics	r4, r4, #15
e00157f8:	0a00002a 	beq	e00158a8 <cancelBadgedSends+0xfc>
e00157fc:	e1a0a004 	mov	sl, r4
e0015800:	e1a0b00d 	mov	fp, sp
e0015804:	e28d9008 	add	r9, sp, #8
e0015808:	ea000002 	b	e0015818 <cancelBadgedSends+0x6c>
e001580c:	e1a04005 	mov	r4, r5
e0015810:	e3550000 	cmp	r5, #0
e0015814:	0a000013 	beq	e0015868 <cancelBadgedSends+0xbc>
e0015818:	e5945090 	ldr	r5, [r4, #144]	; 0x90
e001581c:	e5943058 	ldr	r3, [r4, #88]	; 0x58
e0015820:	e1570223 	cmp	r7, r3, lsr #4
e0015824:	1afffff8 	bne	e001580c <cancelBadgedSends+0x60>
e0015828:	e3a01002 	mov	r1, #2
e001582c:	e1a00004 	mov	r0, r4
e0015830:	ebfffd34 	bl	e0014d08 <setThreadState>
e0015834:	e1a00004 	mov	r0, r4
e0015838:	ebfffce6 	bl	e0014bd8 <tcbSchedEnqueue>
e001583c:	e58da008 	str	sl, [sp, #8]
e0015840:	e58d800c 	str	r8, [sp, #12]
e0015844:	e899000c 	ldm	r9, {r2, r3}
e0015848:	e1a01004 	mov	r1, r4
e001584c:	e1a0000b 	mov	r0, fp
e0015850:	ebffffc1 	bl	e001575c <tcbEPDequeue>
e0015854:	e89b0003 	ldm	fp, {r0, r1}
e0015858:	e8890003 	stm	r9, {r0, r1}
e001585c:	e59da008 	ldr	sl, [sp, #8]
e0015860:	e59d800c 	ldr	r8, [sp, #12]
e0015864:	eaffffe8 	b	e001580c <cancelBadgedSends+0x60>
e0015868:	e5963004 	ldr	r3, [r6, #4]
e001586c:	e203300f 	and	r3, r3, #15
e0015870:	e3ca200f 	bic	r2, sl, #15
e0015874:	e1833002 	orr	r3, r3, r2
e0015878:	e5863004 	str	r3, [r6, #4]
e001587c:	e5963000 	ldr	r3, [r6]
e0015880:	e203300f 	and	r3, r3, #15
e0015884:	e3c8800f 	bic	r8, r8, #15
e0015888:	e1833008 	orr	r3, r3, r8
e001588c:	e35a0000 	cmp	sl, #0
e0015890:	13c33003 	bicne	r3, r3, #3
e0015894:	13833001 	orrne	r3, r3, #1
e0015898:	e5863000 	str	r3, [r6]
e001589c:	ebfffcf6 	bl	e0014c7c <rescheduleRequired>
e00158a0:	e28dd014 	add	sp, sp, #20
e00158a4:	e8bd8ff0 	pop	{r4, r5, r6, r7, r8, r9, sl, fp, pc}
e00158a8:	e3c33003 	bic	r3, r3, #3
e00158ac:	e5803000 	str	r3, [r0]
e00158b0:	eafffff9 	b	e001589c <cancelBadgedSends+0xf0>

e00158b4 <invokeCNodeCancelBadgedSends>:
e00158b4:	e52de004 	push	{lr}		; (str lr, [sp, #-4]!)
e00158b8:	e24dd00c 	sub	sp, sp, #12
e00158bc:	e28d3008 	add	r3, sp, #8
e00158c0:	e9030003 	stmdb	r3, {r0, r1}
e00158c4:	e59d1000 	ldr	r1, [sp]
e00158c8:	e1b01221 	lsrs	r1, r1, #4
e00158cc:	1a000002 	bne	e00158dc <invokeCNodeCancelBadgedSends+0x28>
e00158d0:	e3a00000 	mov	r0, #0
e00158d4:	e28dd00c 	add	sp, sp, #12
e00158d8:	e49df004 	pop	{pc}		; (ldr pc, [sp], #4)
e00158dc:	e59d0004 	ldr	r0, [sp, #4]
e00158e0:	e3c0000f 	bic	r0, r0, #15
e00158e4:	ebffffb0 	bl	e00157ac <cancelBadgedSends>
e00158e8:	eafffff8 	b	e00158d0 <invokeCNodeCancelBadgedSends+0x1c>

e00158ec <cancelSignal>:
e00158ec:	e92d40f0 	push	{r4, r5, r6, r7, lr}
e00158f0:	e24dd014 	sub	sp, sp, #20
e00158f4:	e1a05000 	mov	r5, r0
e00158f8:	e1a04001 	mov	r4, r1
e00158fc:	e5913000 	ldr	r3, [r1]
e0015900:	e3c3300f 	bic	r3, r3, #15
e0015904:	e5912004 	ldr	r2, [r1, #4]
e0015908:	e3c2200f 	bic	r2, r2, #15
e001590c:	e58d2008 	str	r2, [sp, #8]
e0015910:	e58d300c 	str	r3, [sp, #12]
e0015914:	e1a0700d 	mov	r7, sp
e0015918:	e28d6008 	add	r6, sp, #8
e001591c:	e896000c 	ldm	r6, {r2, r3}
e0015920:	e1a01000 	mov	r1, r0
e0015924:	e1a00007 	mov	r0, r7
e0015928:	ebffff8b 	bl	e001575c <tcbEPDequeue>
e001592c:	e8970003 	ldm	r7, {r0, r1}
e0015930:	e8860003 	stm	r6, {r0, r1}
e0015934:	e59d1008 	ldr	r1, [sp, #8]
e0015938:	e5943004 	ldr	r3, [r4, #4]
e001593c:	e203300f 	and	r3, r3, #15
e0015940:	e3c1200f 	bic	r2, r1, #15
e0015944:	e1833002 	orr	r3, r3, r2
e0015948:	e5843004 	str	r3, [r4, #4]
e001594c:	e5943000 	ldr	r3, [r4]
e0015950:	e203300f 	and	r3, r3, #15
e0015954:	e59d200c 	ldr	r2, [sp, #12]
e0015958:	e3c2200f 	bic	r2, r2, #15
e001595c:	e1833002 	orr	r3, r3, r2
e0015960:	e3510000 	cmp	r1, #0
e0015964:	03c33003 	biceq	r3, r3, #3
e0015968:	e5843000 	str	r3, [r4]
e001596c:	e3a01000 	mov	r1, #0
e0015970:	e1a00005 	mov	r0, r5
e0015974:	ebfffce3 	bl	e0014d08 <setThreadState>
e0015978:	e28dd014 	add	sp, sp, #20
e001597c:	e8bd80f0 	pop	{r4, r5, r6, r7, pc}

e0015980 <cancelIPC>:
e0015980:	e92d40f0 	push	{r4, r5, r6, r7, lr}
e0015984:	e24dd014 	sub	sp, sp, #20
e0015988:	e1a04000 	mov	r4, r0
e001598c:	e5901050 	ldr	r1, [r0, #80]	; 0x50
e0015990:	e201300f 	and	r3, r1, #15
e0015994:	e2433003 	sub	r3, r3, #3
e0015998:	e3530003 	cmp	r3, #3
e001599c:	979ff103 	ldrls	pc, [pc, r3, lsl #2]
e00159a0:	ea000023 	b	e0015a34 <cancelIPC+0xb4>
e00159a4:	e00159b4 	.word	0xe00159b4
e00159a8:	e00159b4 	.word	0xe00159b4
e00159ac:	e0015a48 	.word	0xe0015a48
e00159b0:	e0015a3c 	.word	0xe0015a3c
e00159b4:	e3c1500f 	bic	r5, r1, #15
e00159b8:	e5953000 	ldr	r3, [r5]
e00159bc:	e3c3300f 	bic	r3, r3, #15
e00159c0:	e5952004 	ldr	r2, [r5, #4]
e00159c4:	e3c2200f 	bic	r2, r2, #15
e00159c8:	e58d2008 	str	r2, [sp, #8]
e00159cc:	e58d300c 	str	r3, [sp, #12]
e00159d0:	e1a0700d 	mov	r7, sp
e00159d4:	e28d6008 	add	r6, sp, #8
e00159d8:	e896000c 	ldm	r6, {r2, r3}
e00159dc:	e1a01000 	mov	r1, r0
e00159e0:	e1a00007 	mov	r0, r7
e00159e4:	ebffff5c 	bl	e001575c <tcbEPDequeue>
e00159e8:	e8970003 	ldm	r7, {r0, r1}
e00159ec:	e8860003 	stm	r6, {r0, r1}
e00159f0:	e59d1008 	ldr	r1, [sp, #8]
e00159f4:	e5953004 	ldr	r3, [r5, #4]
e00159f8:	e203300f 	and	r3, r3, #15
e00159fc:	e3c1200f 	bic	r2, r1, #15
e0015a00:	e1833002 	orr	r3, r3, r2
e0015a04:	e5853004 	str	r3, [r5, #4]
e0015a08:	e5953000 	ldr	r3, [r5]
e0015a0c:	e203300f 	and	r3, r3, #15
e0015a10:	e59d200c 	ldr	r2, [sp, #12]
e0015a14:	e3c2200f 	bic	r2, r2, #15
e0015a18:	e1833002 	orr	r3, r3, r2
e0015a1c:	e3510000 	cmp	r1, #0
e0015a20:	03c33003 	biceq	r3, r3, #3
e0015a24:	e5853000 	str	r3, [r5]
e0015a28:	e3a01000 	mov	r1, #0
e0015a2c:	e1a00004 	mov	r0, r4
e0015a30:	ebfffcb4 	bl	e0014d08 <setThreadState>
e0015a34:	e28dd014 	add	sp, sp, #20
e0015a38:	e8bd80f0 	pop	{r4, r5, r6, r7, pc}
e0015a3c:	e3c1100f 	bic	r1, r1, #15
e0015a40:	ebffffa9 	bl	e00158ec <cancelSignal>
e0015a44:	eafffffa 	b	e0015a34 <cancelIPC+0xb4>
e0015a48:	e3a03000 	mov	r3, #0
e0015a4c:	e5803060 	str	r3, [r0, #96]	; 0x60
e0015a50:	e5803064 	str	r3, [r0, #100]	; 0x64
e0015a54:	e3c04f7f 	bic	r4, r0, #508	; 0x1fc
e0015a58:	e3c44003 	bic	r4, r4, #3
e0015a5c:	e594002c 	ldr	r0, [r4, #44]	; 0x2c
e0015a60:	e3d00007 	bics	r0, r0, #7
e0015a64:	0afffff2 	beq	e0015a34 <cancelIPC+0xb4>
e0015a68:	eb000326 	bl	e0016708 <cteDeleteOne>
e0015a6c:	eafffff0 	b	e0015a34 <cancelIPC+0xb4>

e0015a70 <suspend>:
e0015a70:	e92d4010 	push	{r4, lr}
e0015a74:	e1a04000 	mov	r4, r0
e0015a78:	ebffffc0 	bl	e0015980 <cancelIPC>
e0015a7c:	e3a01000 	mov	r1, #0
e0015a80:	e1a00004 	mov	r0, r4
e0015a84:	ebfffc9f 	bl	e0014d08 <setThreadState>
e0015a88:	e1a00004 	mov	r0, r4
e0015a8c:	ebfffe27 	bl	e0015330 <tcbSchedDequeue>
e0015a90:	e8bd8010 	pop	{r4, pc}

e0015a94 <finaliseCap>:
e0015a94:	e92d4070 	push	{r4, r5, r6, lr}
e0015a98:	e24dd008 	sub	sp, sp, #8
e0015a9c:	e1a04000 	mov	r4, r0
e0015aa0:	e28d0008 	add	r0, sp, #8
e0015aa4:	e9000006 	stmdb	r0, {r1, r2}
e0015aa8:	e59d5000 	ldr	r5, [sp]
e0015aac:	e205200e 	and	r2, r5, #14
e0015ab0:	e352000e 	cmp	r2, #14
e0015ab4:	1205200f 	andne	r2, r5, #15
e0015ab8:	06ef2075 	uxtbeq	r2, r5
e0015abc:	e3120001 	tst	r2, #1
e0015ac0:	1a00000f 	bne	e0015b04 <finaliseCap+0x70>
e0015ac4:	e59d6004 	ldr	r6, [sp, #4]
e0015ac8:	e3520006 	cmp	r2, #6
e0015acc:	0a000046 	beq	e0015bec <finaliseCap+0x158>
e0015ad0:	8a000012 	bhi	e0015b20 <finaliseCap+0x8c>
e0015ad4:	e3520000 	cmp	r2, #0
e0015ad8:	0a000051 	beq	e0015c24 <finaliseCap+0x190>
e0015adc:	e3520004 	cmp	r2, #4
e0015ae0:	1a000012 	bne	e0015b30 <finaliseCap+0x9c>
e0015ae4:	e3530000 	cmp	r3, #0
e0015ae8:	1a00003c 	bne	e0015be0 <finaliseCap+0x14c>
e0015aec:	e3a03000 	mov	r3, #0
e0015af0:	e5843000 	str	r3, [r4]
e0015af4:	e5843004 	str	r3, [r4, #4]
e0015af8:	e5843008 	str	r3, [r4, #8]
e0015afc:	e584300c 	str	r3, [r4, #12]
e0015b00:	ea000003 	b	e0015b14 <finaliseCap+0x80>
e0015b04:	e28d2008 	add	r2, sp, #8
e0015b08:	e9120006 	ldmdb	r2, {r1, r2}
e0015b0c:	e1a00004 	mov	r0, r4
e0015b10:	ebfff3ac 	bl	e00129c8 <Arch_finaliseCap>
e0015b14:	e1a00004 	mov	r0, r4
e0015b18:	e28dd008 	add	sp, sp, #8
e0015b1c:	e8bd8070 	pop	{r4, r5, r6, pc}
e0015b20:	e3520008 	cmp	r2, #8
e0015b24:	0a00003e 	beq	e0015c24 <finaliseCap+0x190>
e0015b28:	e352003e 	cmp	r2, #62	; 0x3e
e0015b2c:	0a00003c 	beq	e0015c24 <finaliseCap+0x190>
e0015b30:	e59d1018 	ldr	r1, [sp, #24]
e0015b34:	e3510000 	cmp	r1, #0
e0015b38:	1a00003f 	bne	e0015c3c <finaliseCap+0x1a8>
e0015b3c:	e242200a 	sub	r2, r2, #10
e0015b40:	e3520024 	cmp	r2, #36	; 0x24
e0015b44:	979ff102 	ldrls	pc, [pc, r2, lsl #2]
e0015b48:	ea000050 	b	e0015c90 <finaliseCap+0x1fc>
e0015b4c:	e0015c40 	.word	0xe0015c40
e0015b50:	e0015c90 	.word	0xe0015c90
e0015b54:	e0015c88 	.word	0xe0015c88
e0015b58:	e0015c90 	.word	0xe0015c90
e0015b5c:	e0015c90 	.word	0xe0015c90
e0015b60:	e0015c90 	.word	0xe0015c90
e0015b64:	e0015c90 	.word	0xe0015c90
e0015b68:	e0015c90 	.word	0xe0015c90
e0015b6c:	e0015c90 	.word	0xe0015c90
e0015b70:	e0015c90 	.word	0xe0015c90
e0015b74:	e0015c90 	.word	0xe0015c90
e0015b78:	e0015c90 	.word	0xe0015c90
e0015b7c:	e0015c90 	.word	0xe0015c90
e0015b80:	e0015c90 	.word	0xe0015c90
e0015b84:	e0015c90 	.word	0xe0015c90
e0015b88:	e0015c90 	.word	0xe0015c90
e0015b8c:	e0015c90 	.word	0xe0015c90
e0015b90:	e0015c90 	.word	0xe0015c90
e0015b94:	e0015c90 	.word	0xe0015c90
e0015b98:	e0015c90 	.word	0xe0015c90
e0015b9c:	e0015cfc 	.word	0xe0015cfc
e0015ba0:	e0015c90 	.word	0xe0015c90
e0015ba4:	e0015c90 	.word	0xe0015c90
e0015ba8:	e0015c90 	.word	0xe0015c90
e0015bac:	e0015c90 	.word	0xe0015c90
e0015bb0:	e0015c90 	.word	0xe0015c90
e0015bb4:	e0015c90 	.word	0xe0015c90
e0015bb8:	e0015c90 	.word	0xe0015c90
e0015bbc:	e0015c90 	.word	0xe0015c90
e0015bc0:	e0015c90 	.word	0xe0015c90
e0015bc4:	e0015c90 	.word	0xe0015c90
e0015bc8:	e0015c90 	.word	0xe0015c90
e0015bcc:	e0015c90 	.word	0xe0015c90
e0015bd0:	e0015c90 	.word	0xe0015c90
e0015bd4:	e0015c90 	.word	0xe0015c90
e0015bd8:	e0015c90 	.word	0xe0015c90
e0015bdc:	e0015ce4 	.word	0xe0015ce4
e0015be0:	e3c6000f 	bic	r0, r6, #15
e0015be4:	ebfffd60 	bl	e001516c <cancelAllIPC>
e0015be8:	eaffffbf 	b	e0015aec <finaliseCap+0x58>
e0015bec:	e3530000 	cmp	r3, #0
e0015bf0:	1a000005 	bne	e0015c0c <finaliseCap+0x178>
e0015bf4:	e3a03000 	mov	r3, #0
e0015bf8:	e5843000 	str	r3, [r4]
e0015bfc:	e5843004 	str	r3, [r4, #4]
e0015c00:	e5843008 	str	r3, [r4, #8]
e0015c04:	e584300c 	str	r3, [r4, #12]
e0015c08:	eaffffc1 	b	e0015b14 <finaliseCap+0x80>
e0015c0c:	e3c5500f 	bic	r5, r5, #15
e0015c10:	e1a00005 	mov	r0, r5
e0015c14:	ebfff77e 	bl	e0013a14 <unbindMaybeNotification>
e0015c18:	e1a00005 	mov	r0, r5
e0015c1c:	ebfffd68 	bl	e00151c4 <cancelAllSignals>
e0015c20:	eafffff3 	b	e0015bf4 <finaliseCap+0x160>
e0015c24:	e3a03000 	mov	r3, #0
e0015c28:	e5843000 	str	r3, [r4]
e0015c2c:	e5843004 	str	r3, [r4, #4]
e0015c30:	e5843008 	str	r3, [r4, #8]
e0015c34:	e584300c 	str	r3, [r4, #12]
e0015c38:	eaffffb5 	b	e0015b14 <finaliseCap+0x80>
e0015c3c:	ebffeb0b 	bl	e0010870 <halt>
e0015c40:	e3530000 	cmp	r3, #0
e0015c44:	0a000011 	beq	e0015c90 <finaliseCap+0x1fc>
e0015c48:	e7e46956 	ubfx	r6, r6, #18, #5
e0015c4c:	e3c5501f 	bic	r5, r5, #31
e0015c50:	e1a03406 	lsl	r3, r6, #8
e0015c54:	e383302e 	orr	r3, r3, #46	; 0x2e
e0015c58:	e5843000 	str	r3, [r4]
e0015c5c:	e2862001 	add	r2, r6, #1
e0015c60:	e3a03001 	mov	r3, #1
e0015c64:	e0256613 	eor	r6, r5, r3, lsl r6
e0015c68:	e3e03000 	mvn	r3, #0
e0015c6c:	e1c66213 	bic	r6, r6, r3, lsl r2
e0015c70:	e0255006 	eor	r5, r5, r6
e0015c74:	e5845004 	str	r5, [r4, #4]
e0015c78:	e3a03000 	mov	r3, #0
e0015c7c:	e5843008 	str	r3, [r4, #8]
e0015c80:	e584300c 	str	r3, [r4, #12]
e0015c84:	eaffffa2 	b	e0015b14 <finaliseCap+0x80>
e0015c88:	e3530000 	cmp	r3, #0
e0015c8c:	1a000005 	bne	e0015ca8 <finaliseCap+0x214>
e0015c90:	e3a03000 	mov	r3, #0
e0015c94:	e5843000 	str	r3, [r4]
e0015c98:	e5843004 	str	r3, [r4, #4]
e0015c9c:	e5843008 	str	r3, [r4, #8]
e0015ca0:	e584300c 	str	r3, [r4, #12]
e0015ca4:	eaffff9a 	b	e0015b14 <finaliseCap+0x80>
e0015ca8:	e3c5600f 	bic	r6, r5, #15
e0015cac:	e1a00006 	mov	r0, r6
e0015cb0:	ebfff75e 	bl	e0013a30 <unbindNotification>
e0015cb4:	e1a00006 	mov	r0, r6
e0015cb8:	ebffff6c 	bl	e0015a70 <suspend>
e0015cbc:	e302302e 	movw	r3, #8238	; 0x202e
e0015cc0:	e5843000 	str	r3, [r4]
e0015cc4:	e3c55f7f 	bic	r5, r5, #508	; 0x1fc
e0015cc8:	e3c55003 	bic	r5, r5, #3
e0015ccc:	e2255005 	eor	r5, r5, #5
e0015cd0:	e5845004 	str	r5, [r4, #4]
e0015cd4:	e3a03000 	mov	r3, #0
e0015cd8:	e5843008 	str	r3, [r4, #8]
e0015cdc:	e584300c 	str	r3, [r4, #12]
e0015ce0:	eaffff8b 	b	e0015b14 <finaliseCap+0x80>
e0015ce4:	e5845000 	str	r5, [r4]
e0015ce8:	e5846004 	str	r6, [r4, #4]
e0015cec:	e3a03000 	mov	r3, #0
e0015cf0:	e5843008 	str	r3, [r4, #8]
e0015cf4:	e584300c 	str	r3, [r4, #12]
e0015cf8:	eaffff85 	b	e0015b14 <finaliseCap+0x80>
e0015cfc:	e3530000 	cmp	r3, #0
e0015d00:	0affffe2 	beq	e0015c90 <finaliseCap+0x1fc>
e0015d04:	e6ef0076 	uxtb	r0, r6
e0015d08:	eb000302 	bl	e0016918 <deletingIRQHandler>
e0015d0c:	e3a03000 	mov	r3, #0
e0015d10:	e5843000 	str	r3, [r4]
e0015d14:	e5843004 	str	r3, [r4, #4]
e0015d18:	e5845008 	str	r5, [r4, #8]
e0015d1c:	e584600c 	str	r6, [r4, #12]
e0015d20:	eaffff7b 	b	e0015b14 <finaliseCap+0x80>

e0015d24 <cteDelete>:
e0015d24:	e92d4ff0 	push	{r4, r5, r6, r7, r8, r9, sl, fp, lr}
e0015d28:	e24dd02c 	sub	sp, sp, #44	; 0x2c
e0015d2c:	e1a04000 	mov	r4, r0
e0015d30:	e1a05001 	mov	r5, r1
e0015d34:	e3a06000 	mov	r6, #0
e0015d38:	e3a07004 	mov	r7, #4
e0015d3c:	ea00002a 	b	e0015dec <cteDelete+0xc8>
e0015d40:	ebffeaca 	bl	e0010870 <halt>
e0015d44:	e58d9020 	str	r9, [sp, #32]
e0015d48:	e58de024 	str	lr, [sp, #36]	; 0x24
e0015d4c:	ea00000c 	b	e0015d84 <cteDelete+0x60>
e0015d50:	e3580020 	cmp	r8, #32
e0015d54:	0a000018 	beq	e0015dbc <cteDelete+0x98>
e0015d58:	e202301f 	and	r3, r2, #31
e0015d5c:	e2830001 	add	r0, r3, #1
e0015d60:	e3e03000 	mvn	r3, #0
e0015d64:	e0013013 	and	r3, r1, r3, lsl r0
e0015d68:	e1540003 	cmp	r4, r3
e0015d6c:	1a000051 	bne	e0015eb8 <cteDelete+0x194>
e0015d70:	e3a00000 	mov	r0, #0
e0015d74:	ea000007 	b	e0015d98 <cteDelete+0x74>
e0015d78:	ebffeabc 	bl	e0010870 <halt>
e0015d7c:	e58d3020 	str	r3, [sp, #32]
e0015d80:	e58d3024 	str	r3, [sp, #36]	; 0x24
e0015d84:	e28d3028 	add	r3, sp, #40	; 0x28
e0015d88:	e9130006 	ldmdb	r3, {r1, r2}
e0015d8c:	e1a00004 	mov	r0, r4
e0015d90:	ebfff6e1 	bl	e001391c <emptySlot>
e0015d94:	e3a00000 	mov	r0, #0
e0015d98:	e28dd02c 	add	sp, sp, #44	; 0x2c
e0015d9c:	e8bd8ff0 	pop	{r4, r5, r6, r7, r8, r9, sl, fp, pc}
e0015da0:	e3a00000 	mov	r0, #0
e0015da4:	eafffffb 	b	e0015d98 <cteDelete+0x74>
e0015da8:	e3580020 	cmp	r8, #32
e0015dac:	1a000041 	bne	e0015eb8 <cteDelete+0x194>
e0015db0:	e3c1901f 	bic	r9, r1, #31
e0015db4:	e201a01f 	and	sl, r1, #31
e0015db8:	ea000046 	b	e0015ed8 <cteDelete+0x1b4>
e0015dbc:	e3c1301f 	bic	r3, r1, #31
e0015dc0:	e1540003 	cmp	r4, r3
e0015dc4:	0afffff5 	beq	e0015da0 <cteDelete+0x7c>
e0015dc8:	e3c1901f 	bic	r9, r1, #31
e0015dcc:	ea000000 	b	e0015dd4 <cteDelete+0xb0>
e0015dd0:	e3c1901f 	bic	r9, r1, #31
e0015dd4:	e1a01004 	mov	r1, r4
e0015dd8:	e1a00009 	mov	r0, r9
e0015ddc:	ebfff614 	bl	e0013634 <capSwapForDelete>
e0015de0:	ebfff4e6 	bl	e0013180 <preemptionPoint>
e0015de4:	e3500000 	cmp	r0, #0
e0015de8:	1affffea 	bne	e0015d98 <cteDelete+0x74>
e0015dec:	e5943000 	ldr	r3, [r4]
e0015df0:	e203200e 	and	r2, r3, #14
e0015df4:	e352000e 	cmp	r2, #14
e0015df8:	1203300f 	andne	r3, r3, #15
e0015dfc:	06ef3073 	uxtbeq	r3, r3
e0015e00:	e3530000 	cmp	r3, #0
e0015e04:	0affffdc 	beq	e0015d7c <cteDelete+0x58>
e0015e08:	e1a00004 	mov	r0, r4
e0015e0c:	ebfffa19 	bl	e0014678 <isFinalCapability>
e0015e10:	e58d6000 	str	r6, [sp]
e0015e14:	e1a03000 	mov	r3, r0
e0015e18:	e8940006 	ldm	r4, {r1, r2}
e0015e1c:	e28d0008 	add	r0, sp, #8
e0015e20:	ebffff1b 	bl	e0015a94 <finaliseCap>
e0015e24:	e59d3008 	ldr	r3, [sp, #8]
e0015e28:	e59d9010 	ldr	r9, [sp, #16]
e0015e2c:	e59de014 	ldr	lr, [sp, #20]
e0015e30:	e203c00e 	and	ip, r3, #14
e0015e34:	e35c000e 	cmp	ip, #14
e0015e38:	1203200f 	andne	r2, r3, #15
e0015e3c:	06ef2073 	uxtbeq	r2, r3
e0015e40:	e3520000 	cmp	r2, #0
e0015e44:	0affffbe 	beq	e0015d44 <cteDelete+0x20>
e0015e48:	e352002e 	cmp	r2, #46	; 0x2e
e0015e4c:	1affffbb 	bne	e0015d40 <cteDelete+0x1c>
e0015e50:	e1a02423 	lsr	r2, r3, #8
e0015e54:	e202803f 	and	r8, r2, #63	; 0x3f
e0015e58:	e3580020 	cmp	r8, #32
e0015e5c:	1202001f 	andne	r0, r2, #31
e0015e60:	01a00007 	moveq	r0, r7
e0015e64:	e59d100c 	ldr	r1, [sp, #12]
e0015e68:	e2800001 	add	r0, r0, #1
e0015e6c:	e3e0a000 	mvn	sl, #0
e0015e70:	e1d1a01a 	bics	sl, r1, sl, lsl r0
e0015e74:	0affffb2 	beq	e0015d44 <cteDelete+0x20>
e0015e78:	e3e0b000 	mvn	fp, #0
e0015e7c:	e001001b 	and	r0, r1, fp, lsl r0
e0015e80:	e1540000 	cmp	r4, r0
e0015e84:	035a0001 	cmpeq	sl, #1
e0015e88:	0affffad 	beq	e0015d44 <cteDelete+0x20>
e0015e8c:	e5843000 	str	r3, [r4]
e0015e90:	e5841004 	str	r1, [r4, #4]
e0015e94:	e3550000 	cmp	r5, #0
e0015e98:	1affffc2 	bne	e0015da8 <cteDelete+0x84>
e0015e9c:	e35c000e 	cmp	ip, #14
e0015ea0:	1203300f 	andne	r3, r3, #15
e0015ea4:	06ef3073 	uxtbeq	r3, r3
e0015ea8:	e353002e 	cmp	r3, #46	; 0x2e
e0015eac:	0affffa7 	beq	e0015d50 <cteDelete+0x2c>
e0015eb0:	e3580020 	cmp	r8, #32
e0015eb4:	0affffc5 	beq	e0015dd0 <cteDelete+0xac>
e0015eb8:	e202201f 	and	r2, r2, #31
e0015ebc:	e2822001 	add	r2, r2, #1
e0015ec0:	e3e09000 	mvn	r9, #0
e0015ec4:	e0019219 	and	r9, r1, r9, lsl r2
e0015ec8:	e3550000 	cmp	r5, #0
e0015ecc:	0affffc0 	beq	e0015dd4 <cteDelete+0xb0>
e0015ed0:	e3e0a000 	mvn	sl, #0
e0015ed4:	e1c1a21a 	bic	sl, r1, sl, lsl r2
e0015ed8:	e24a021f 	sub	r0, sl, #-268435455	; 0xf0000001
e0015edc:	e1a01006 	mov	r1, r6
e0015ee0:	e0890200 	add	r0, r9, r0, lsl #4
e0015ee4:	ebffff8e 	bl	e0015d24 <cteDelete>
e0015ee8:	e3500000 	cmp	r0, #0
e0015eec:	1affffa9 	bne	e0015d98 <cteDelete+0x74>
e0015ef0:	e5943000 	ldr	r3, [r4]
e0015ef4:	e203200e 	and	r2, r3, #14
e0015ef8:	e352000e 	cmp	r2, #14
e0015efc:	1203200f 	andne	r2, r3, #15
e0015f00:	06ef2073 	uxtbeq	r2, r3
e0015f04:	e3520000 	cmp	r2, #0
e0015f08:	0affffb4 	beq	e0015de0 <cteDelete+0xbc>
e0015f0c:	e352002e 	cmp	r2, #46	; 0x2e
e0015f10:	1affff98 	bne	e0015d78 <cteDelete+0x54>
e0015f14:	e5942004 	ldr	r2, [r4, #4]
e0015f18:	e1a03423 	lsr	r3, r3, #8
e0015f1c:	e203103f 	and	r1, r3, #63	; 0x3f
e0015f20:	e3510020 	cmp	r1, #32
e0015f24:	1203301f 	andne	r3, r3, #31
e0015f28:	01a03007 	moveq	r3, r7
e0015f2c:	e2833001 	add	r3, r3, #1
e0015f30:	e3e00000 	mvn	r0, #0
e0015f34:	e0020310 	and	r0, r2, r0, lsl r3
e0015f38:	e1590000 	cmp	r9, r0
e0015f3c:	1affffa7 	bne	e0015de0 <cteDelete+0xbc>
e0015f40:	e3e0c000 	mvn	ip, #0
e0015f44:	e1e0331c 	mvn	r3, ip, lsl r3
e0015f48:	e0022003 	and	r2, r2, r3
e0015f4c:	e152000a 	cmp	r2, sl
e0015f50:	01510008 	cmpeq	r1, r8
e0015f54:	008a200c 	addeq	r2, sl, ip
e0015f58:	00033002 	andeq	r3, r3, r2
e0015f5c:	01830000 	orreq	r0, r3, r0
e0015f60:	05840004 	streq	r0, [r4, #4]
e0015f64:	eaffff9d 	b	e0015de0 <cteDelete+0xbc>

e0015f68 <invokeCNodeDelete>:
e0015f68:	e92d4010 	push	{r4, lr}
e0015f6c:	e3a01001 	mov	r1, #1
e0015f70:	ebffff6b 	bl	e0015d24 <cteDelete>
e0015f74:	e8bd8010 	pop	{r4, pc}

e0015f78 <cteRevoke>:
e0015f78:	e92d4070 	push	{r4, r5, r6, lr}
e0015f7c:	e590400c 	ldr	r4, [r0, #12]
e0015f80:	e3d44007 	bics	r4, r4, #7
e0015f84:	0a000012 	beq	e0015fd4 <cteRevoke+0x5c>
e0015f88:	e1a05000 	mov	r5, r0
e0015f8c:	e3a06001 	mov	r6, #1
e0015f90:	e1a01004 	mov	r1, r4
e0015f94:	e1a00005 	mov	r0, r5
e0015f98:	ebfff91d 	bl	e0014414 <isMDBParentOf>
e0015f9c:	e3500000 	cmp	r0, #0
e0015fa0:	08bd8070 	popeq	{r4, r5, r6, pc}
e0015fa4:	e1a01006 	mov	r1, r6
e0015fa8:	e1a00004 	mov	r0, r4
e0015fac:	ebffff5c 	bl	e0015d24 <cteDelete>
e0015fb0:	e3500000 	cmp	r0, #0
e0015fb4:	18bd8070 	popne	{r4, r5, r6, pc}
e0015fb8:	ebfff470 	bl	e0013180 <preemptionPoint>
e0015fbc:	e3500000 	cmp	r0, #0
e0015fc0:	18bd8070 	popne	{r4, r5, r6, pc}
e0015fc4:	e595400c 	ldr	r4, [r5, #12]
e0015fc8:	e3d44007 	bics	r4, r4, #7
e0015fcc:	1affffef 	bne	e0015f90 <cteRevoke+0x18>
e0015fd0:	e8bd8070 	pop	{r4, r5, r6, pc}
e0015fd4:	e3a00000 	mov	r0, #0
e0015fd8:	e8bd8070 	pop	{r4, r5, r6, pc}

e0015fdc <invokeCNodeRevoke>:
e0015fdc:	e92d4010 	push	{r4, lr}
e0015fe0:	ebffffe4 	bl	e0015f78 <cteRevoke>
e0015fe4:	e8bd8010 	pop	{r4, pc}

e0015fe8 <decodeCNodeInvocation>:
e0015fe8:	e92d4ff0 	push	{r4, r5, r6, r7, r8, r9, sl, fp, lr}
e0015fec:	e24dd06c 	sub	sp, sp, #108	; 0x6c
e0015ff0:	e28dc018 	add	ip, sp, #24
e0015ff4:	e88c000c 	stm	ip, {r2, r3}
e0015ff8:	e2403010 	sub	r3, r0, #16
e0015ffc:	e3530008 	cmp	r3, #8
e0016000:	8a00001f 	bhi	e0016084 <decodeCNodeInvocation+0x9c>
e0016004:	e3510001 	cmp	r1, #1
e0016008:	9a000024 	bls	e00160a0 <decodeCNodeInvocation+0xb8>
e001600c:	e1a09001 	mov	r9, r1
e0016010:	e1a08000 	mov	r8, r0
e0016014:	e59d5090 	ldr	r5, [sp, #144]	; 0x90
e0016018:	e59d6094 	ldr	r6, [sp, #148]	; 0x94
e001601c:	e3013b34 	movw	r3, #6964	; 0x1b34
e0016020:	e34e3003 	movt	r3, #57347	; 0xe003
e0016024:	e5932000 	ldr	r2, [r3]
e0016028:	e5923008 	ldr	r3, [r2, #8]
e001602c:	e592200c 	ldr	r2, [r2, #12]
e0016030:	e58d2000 	str	r2, [sp]
e0016034:	e28d2018 	add	r2, sp, #24
e0016038:	e8920006 	ldm	r2, {r1, r2}
e001603c:	e28d0058 	add	r0, sp, #88	; 0x58
e0016040:	ebfff414 	bl	e0013098 <lookupTargetSlot>
e0016044:	e59d4058 	ldr	r4, [sp, #88]	; 0x58
e0016048:	e3540000 	cmp	r4, #0
e001604c:	1a000010 	bne	e0016094 <decodeCNodeInvocation+0xac>
e0016050:	e59d705c 	ldr	r7, [sp, #92]	; 0x5c
e0016054:	e2483013 	sub	r3, r8, #19
e0016058:	e3530003 	cmp	r3, #3
e001605c:	8a0000c8 	bhi	e0016384 <decodeCNodeInvocation+0x39c>
e0016060:	e3550000 	cmp	r5, #0
e0016064:	13590003 	cmpne	r9, #3
e0016068:	8a000012 	bhi	e00160b8 <decodeCNodeInvocation+0xd0>
e001606c:	e3093030 	movw	r3, #36912	; 0x9030
e0016070:	e34e3002 	movt	r3, #57346	; 0xe002
e0016074:	e3a02007 	mov	r2, #7
e0016078:	e5832018 	str	r2, [r3, #24]
e001607c:	e3a04003 	mov	r4, #3
e0016080:	ea000003 	b	e0016094 <decodeCNodeInvocation+0xac>
e0016084:	e3093030 	movw	r3, #36912	; 0x9030
e0016088:	e34e3002 	movt	r3, #57346	; 0xe002
e001608c:	e3a04003 	mov	r4, #3
e0016090:	e5834018 	str	r4, [r3, #24]
e0016094:	e1a00004 	mov	r0, r4
e0016098:	e28dd06c 	add	sp, sp, #108	; 0x6c
e001609c:	e8bd8ff0 	pop	{r4, r5, r6, r7, r8, r9, sl, fp, pc}
e00160a0:	e3093030 	movw	r3, #36912	; 0x9030
e00160a4:	e34e3002 	movt	r3, #57346	; 0xe002
e00160a8:	e3a02007 	mov	r2, #7
e00160ac:	e5832018 	str	r2, [r3, #24]
e00160b0:	e3a04003 	mov	r4, #3
e00160b4:	eafffff6 	b	e0016094 <decodeCNodeInvocation+0xac>
e00160b8:	e3013b34 	movw	r3, #6964	; 0x1b34
e00160bc:	e34e3003 	movt	r3, #57347	; 0xe003
e00160c0:	e5933000 	ldr	r3, [r3]
e00160c4:	e5936010 	ldr	r6, [r3, #16]
e00160c8:	e593a014 	ldr	sl, [r3, #20]
e00160cc:	e28d3024 	add	r3, sp, #36	; 0x24
e00160d0:	e8950003 	ldm	r5, {r0, r1}
e00160d4:	e8830003 	stm	r3, {r0, r1}
e00160d8:	e1a00007 	mov	r0, r7
e00160dc:	ebfff596 	bl	e001373c <ensureEmptySlot>
e00160e0:	e2504000 	subs	r4, r0, #0
e00160e4:	1affffea 	bne	e0016094 <decodeCNodeInvocation+0xac>
e00160e8:	e58da000 	str	sl, [sp]
e00160ec:	e1a03006 	mov	r3, r6
e00160f0:	e28d2024 	add	r2, sp, #36	; 0x24
e00160f4:	e8920006 	ldm	r2, {r1, r2}
e00160f8:	e28d0058 	add	r0, sp, #88	; 0x58
e00160fc:	ebfff3d7 	bl	e0013060 <lookupSourceSlot>
e0016100:	e59d4058 	ldr	r4, [sp, #88]	; 0x58
e0016104:	e3540000 	cmp	r4, #0
e0016108:	1affffe1 	bne	e0016094 <decodeCNodeInvocation+0xac>
e001610c:	e59d605c 	ldr	r6, [sp, #92]	; 0x5c
e0016110:	e5965000 	ldr	r5, [r6]
e0016114:	e205300e 	and	r3, r5, #14
e0016118:	e353000e 	cmp	r3, #14
e001611c:	1205300f 	andne	r3, r5, #15
e0016120:	06ef3075 	uxtbeq	r3, r5
e0016124:	e3530000 	cmp	r3, #0
e0016128:	1a00000f 	bne	e001616c <decodeCNodeInvocation+0x184>
e001612c:	e3093030 	movw	r3, #36912	; 0x9030
e0016130:	e34e3002 	movt	r3, #57346	; 0xe002
e0016134:	e3a02006 	mov	r2, #6
e0016138:	e5832018 	str	r2, [r3, #24]
e001613c:	e3a02001 	mov	r2, #1
e0016140:	e5832014 	str	r2, [r3, #20]
e0016144:	e3092024 	movw	r2, #36900	; 0x9024
e0016148:	e34e2002 	movt	r2, #57346	; 0xe002
e001614c:	e1a0310a 	lsl	r3, sl, #2
e0016150:	e6ef3073 	uxtb	r3, r3
e0016154:	e3833001 	orr	r3, r3, #1
e0016158:	e5823000 	str	r3, [r2]
e001615c:	e3a03000 	mov	r3, #0
e0016160:	e5823004 	str	r3, [r2, #4]
e0016164:	e3a04003 	mov	r4, #3
e0016168:	eaffffc9 	b	e0016094 <decodeCNodeInvocation+0xac>
e001616c:	e2480013 	sub	r0, r8, #19
e0016170:	e3500003 	cmp	r0, #3
e0016174:	979ff100 	ldrls	pc, [pc, r0, lsl #2]
e0016178:	eaffffc5 	b	e0016094 <decodeCNodeInvocation+0xac>
e001617c:	e001618c 	.word	0xe001618c
e0016180:	e0016200 	.word	0xe0016200
e0016184:	e0016298 	.word	0xe0016298
e0016188:	e00162d4 	.word	0xe00162d4
e001618c:	e3590004 	cmp	r9, #4
e0016190:	8a000005 	bhi	e00161ac <decodeCNodeInvocation+0x1c4>
e0016194:	e3093030 	movw	r3, #36912	; 0x9030
e0016198:	e34e3002 	movt	r3, #57346	; 0xe002
e001619c:	e3a02007 	mov	r2, #7
e00161a0:	e5832018 	str	r2, [r3, #24]
e00161a4:	e3a04003 	mov	r4, #3
e00161a8:	eaffffb9 	b	e0016094 <decodeCNodeInvocation+0xac>
e00161ac:	e28d5034 	add	r5, sp, #52	; 0x34
e00161b0:	e896000c 	ldm	r6, {r2, r3}
e00161b4:	e59d109c 	ldr	r1, [sp, #156]	; 0x9c
e00161b8:	e5911014 	ldr	r1, [r1, #20]
e00161bc:	e1a00005 	mov	r0, r5
e00161c0:	ebfff99e 	bl	e0014840 <maskCapRights>
e00161c4:	e895000c 	ldm	r5, {r2, r3}
e00161c8:	e1a01006 	mov	r1, r6
e00161cc:	e28d004c 	add	r0, sp, #76	; 0x4c
e00161d0:	ebfff8cf 	bl	e0014514 <deriveCap>
e00161d4:	e59d304c 	ldr	r3, [sp, #76]	; 0x4c
e00161d8:	e3530000 	cmp	r3, #0
e00161dc:	11a04003 	movne	r4, r3
e00161e0:	1affffab 	bne	e0016094 <decodeCNodeInvocation+0xac>
e00161e4:	e28d302c 	add	r3, sp, #44	; 0x2c
e00161e8:	e28d2050 	add	r2, sp, #80	; 0x50
e00161ec:	e8920003 	ldm	r2, {r0, r1}
e00161f0:	e8830003 	stm	r3, {r0, r1}
e00161f4:	e1a05000 	mov	r5, r0
e00161f8:	e3a08000 	mov	r8, #0
e00161fc:	ea000029 	b	e00162a8 <decodeCNodeInvocation+0x2c0>
e0016200:	e3590005 	cmp	r9, #5
e0016204:	8a000005 	bhi	e0016220 <decodeCNodeInvocation+0x238>
e0016208:	e3093030 	movw	r3, #36912	; 0x9030
e001620c:	e34e3002 	movt	r3, #57346	; 0xe002
e0016210:	e3a02007 	mov	r2, #7
e0016214:	e5832018 	str	r2, [r3, #24]
e0016218:	e3a04003 	mov	r4, #3
e001621c:	eaffff9c 	b	e0016094 <decodeCNodeInvocation+0xac>
e0016220:	e59d309c 	ldr	r3, [sp, #156]	; 0x9c
e0016224:	e5938018 	ldr	r8, [r3, #24]
e0016228:	e896000c 	ldm	r6, {r2, r3}
e001622c:	e59d109c 	ldr	r1, [sp, #156]	; 0x9c
e0016230:	e5911014 	ldr	r1, [r1, #20]
e0016234:	e28d0034 	add	r0, sp, #52	; 0x34
e0016238:	ebfff980 	bl	e0014840 <maskCapRights>
e001623c:	e28d5060 	add	r5, sp, #96	; 0x60
e0016240:	e59d3038 	ldr	r3, [sp, #56]	; 0x38
e0016244:	e58d3000 	str	r3, [sp]
e0016248:	e59d3034 	ldr	r3, [sp, #52]	; 0x34
e001624c:	e1a02008 	mov	r2, r8
e0016250:	e3a01000 	mov	r1, #0
e0016254:	e1a00005 	mov	r0, r5
e0016258:	ebfff934 	bl	e0014730 <updateCapData>
e001625c:	e895000c 	ldm	r5, {r2, r3}
e0016260:	e1a01006 	mov	r1, r6
e0016264:	e28d004c 	add	r0, sp, #76	; 0x4c
e0016268:	ebfff8a9 	bl	e0014514 <deriveCap>
e001626c:	e59d304c 	ldr	r3, [sp, #76]	; 0x4c
e0016270:	e3530000 	cmp	r3, #0
e0016274:	11a04003 	movne	r4, r3
e0016278:	1affff85 	bne	e0016094 <decodeCNodeInvocation+0xac>
e001627c:	e28d302c 	add	r3, sp, #44	; 0x2c
e0016280:	e28d2050 	add	r2, sp, #80	; 0x50
e0016284:	e8920003 	ldm	r2, {r0, r1}
e0016288:	e8830003 	stm	r3, {r0, r1}
e001628c:	e1a05000 	mov	r5, r0
e0016290:	e3a08000 	mov	r8, #0
e0016294:	ea000003 	b	e00162a8 <decodeCNodeInvocation+0x2c0>
e0016298:	e28d302c 	add	r3, sp, #44	; 0x2c
e001629c:	e8960003 	ldm	r6, {r0, r1}
e00162a0:	e8830003 	stm	r3, {r0, r1}
e00162a4:	e3a08001 	mov	r8, #1
e00162a8:	e205300e 	and	r3, r5, #14
e00162ac:	e353000e 	cmp	r3, #14
e00162b0:	1205300f 	andne	r3, r5, #15
e00162b4:	06ef3075 	uxtbeq	r3, r5
e00162b8:	e3530000 	cmp	r3, #0
e00162bc:	1a000017 	bne	e0016320 <decodeCNodeInvocation+0x338>
e00162c0:	e3093030 	movw	r3, #36912	; 0x9030
e00162c4:	e34e3002 	movt	r3, #57346	; 0xe002
e00162c8:	e3a04003 	mov	r4, #3
e00162cc:	e5834018 	str	r4, [r3, #24]
e00162d0:	eaffff6f 	b	e0016094 <decodeCNodeInvocation+0xac>
e00162d4:	e3590004 	cmp	r9, #4
e00162d8:	8a000005 	bhi	e00162f4 <decodeCNodeInvocation+0x30c>
e00162dc:	e3093030 	movw	r3, #36912	; 0x9030
e00162e0:	e34e3002 	movt	r3, #57346	; 0xe002
e00162e4:	e3a02007 	mov	r2, #7
e00162e8:	e5832018 	str	r2, [r3, #24]
e00162ec:	e3a04003 	mov	r4, #3
e00162f0:	eaffff67 	b	e0016094 <decodeCNodeInvocation+0xac>
e00162f4:	e5963004 	ldr	r3, [r6, #4]
e00162f8:	e58d3000 	str	r3, [sp]
e00162fc:	e5963000 	ldr	r3, [r6]
e0016300:	e59d209c 	ldr	r2, [sp, #156]	; 0x9c
e0016304:	e5922014 	ldr	r2, [r2, #20]
e0016308:	e3a01001 	mov	r1, #1
e001630c:	e28d002c 	add	r0, sp, #44	; 0x2c
e0016310:	ebfff906 	bl	e0014730 <updateCapData>
e0016314:	e59d502c 	ldr	r5, [sp, #44]	; 0x2c
e0016318:	e3a08001 	mov	r8, #1
e001631c:	eaffffe1 	b	e00162a8 <decodeCNodeInvocation+0x2c0>
e0016320:	e3013b34 	movw	r3, #6964	; 0x1b34
e0016324:	e34e3003 	movt	r3, #57347	; 0xe003
e0016328:	e3a01002 	mov	r1, #2
e001632c:	e5930000 	ldr	r0, [r3]
e0016330:	ebfffa74 	bl	e0014d08 <setThreadState>
e0016334:	e3580000 	cmp	r8, #0
e0016338:	0a000008 	beq	e0016360 <decodeCNodeInvocation+0x378>
e001633c:	e58d502c 	str	r5, [sp, #44]	; 0x2c
e0016340:	e28dc03c 	add	ip, sp, #60	; 0x3c
e0016344:	e28d302c 	add	r3, sp, #44	; 0x2c
e0016348:	e8930003 	ldm	r3, {r0, r1}
e001634c:	e88c0003 	stm	ip, {r0, r1}
e0016350:	e1a03007 	mov	r3, r7
e0016354:	e1a02006 	mov	r2, r6
e0016358:	ebfff421 	bl	e00133e4 <cteMove>
e001635c:	eaffff4c 	b	e0016094 <decodeCNodeInvocation+0xac>
e0016360:	e58d502c 	str	r5, [sp, #44]	; 0x2c
e0016364:	e28dc044 	add	ip, sp, #68	; 0x44
e0016368:	e28d302c 	add	r3, sp, #44	; 0x2c
e001636c:	e8930003 	ldm	r3, {r0, r1}
e0016370:	e88c0003 	stm	ip, {r0, r1}
e0016374:	e1a03007 	mov	r3, r7
e0016378:	e1a02006 	mov	r2, r6
e001637c:	ebfff396 	bl	e00131dc <cteInsert>
e0016380:	eaffff43 	b	e0016094 <decodeCNodeInvocation+0xac>
e0016384:	e3580010 	cmp	r8, #16
e0016388:	0a000016 	beq	e00163e8 <decodeCNodeInvocation+0x400>
e001638c:	e3580011 	cmp	r8, #17
e0016390:	0a00001d 	beq	e001640c <decodeCNodeInvocation+0x424>
e0016394:	e3580018 	cmp	r8, #24
e0016398:	0a000024 	beq	e0016430 <decodeCNodeInvocation+0x448>
e001639c:	e3580012 	cmp	r8, #18
e00163a0:	0a00002f 	beq	e0016464 <decodeCNodeInvocation+0x47c>
e00163a4:	e3580017 	cmp	r8, #23
e00163a8:	1affff39 	bne	e0016094 <decodeCNodeInvocation+0xac>
e00163ac:	e16f3f15 	clz	r3, r5
e00163b0:	e1a032a3 	lsr	r3, r3, #5
e00163b4:	e3560000 	cmp	r6, #0
e00163b8:	11a01003 	movne	r1, r3
e00163bc:	03a01001 	moveq	r1, #1
e00163c0:	e3590007 	cmp	r9, #7
e00163c4:	93811001 	orrls	r1, r1, #1
e00163c8:	e3510000 	cmp	r1, #0
e00163cc:	0a000039 	beq	e00164b8 <decodeCNodeInvocation+0x4d0>
e00163d0:	e3093030 	movw	r3, #36912	; 0x9030
e00163d4:	e34e3002 	movt	r3, #57346	; 0xe002
e00163d8:	e3a02007 	mov	r2, #7
e00163dc:	e5832018 	str	r2, [r3, #24]
e00163e0:	e3a04003 	mov	r4, #3
e00163e4:	eaffff2a 	b	e0016094 <decodeCNodeInvocation+0xac>
e00163e8:	e3013b34 	movw	r3, #6964	; 0x1b34
e00163ec:	e34e3003 	movt	r3, #57347	; 0xe003
e00163f0:	e3a01002 	mov	r1, #2
e00163f4:	e5930000 	ldr	r0, [r3]
e00163f8:	ebfffa42 	bl	e0014d08 <setThreadState>
e00163fc:	e1a00007 	mov	r0, r7
e0016400:	ebfffedc 	bl	e0015f78 <cteRevoke>
e0016404:	e1a04000 	mov	r4, r0
e0016408:	eaffff21 	b	e0016094 <decodeCNodeInvocation+0xac>
e001640c:	e3013b34 	movw	r3, #6964	; 0x1b34
e0016410:	e34e3003 	movt	r3, #57347	; 0xe003
e0016414:	e3a01002 	mov	r1, #2
e0016418:	e5930000 	ldr	r0, [r3]
e001641c:	ebfffa39 	bl	e0014d08 <setThreadState>
e0016420:	e1a00007 	mov	r0, r7
e0016424:	ebfffecf 	bl	e0015f68 <invokeCNodeDelete>
e0016428:	e1a04000 	mov	r4, r0
e001642c:	eaffff18 	b	e0016094 <decodeCNodeInvocation+0xac>
e0016430:	e1a00007 	mov	r0, r7
e0016434:	ebfff4c0 	bl	e001373c <ensureEmptySlot>
e0016438:	e2504000 	subs	r4, r0, #0
e001643c:	1affff14 	bne	e0016094 <decodeCNodeInvocation+0xac>
e0016440:	e3013b34 	movw	r3, #6964	; 0x1b34
e0016444:	e34e3003 	movt	r3, #57347	; 0xe003
e0016448:	e3a01002 	mov	r1, #2
e001644c:	e5930000 	ldr	r0, [r3]
e0016450:	ebfffa2c 	bl	e0014d08 <setThreadState>
e0016454:	e1a00007 	mov	r0, r7
e0016458:	ebfff407 	bl	e001347c <invokeCNodeSaveCaller>
e001645c:	e1a04000 	mov	r4, r0
e0016460:	eaffff0b 	b	e0016094 <decodeCNodeInvocation+0xac>
e0016464:	e28d304c 	add	r3, sp, #76	; 0x4c
e0016468:	e8970003 	ldm	r7, {r0, r1}
e001646c:	e8830003 	stm	r3, {r0, r1}
e0016470:	ebfff593 	bl	e0013ac4 <hasCancelSendRights>
e0016474:	e3500000 	cmp	r0, #0
e0016478:	1a000004 	bne	e0016490 <decodeCNodeInvocation+0x4a8>
e001647c:	e3093030 	movw	r3, #36912	; 0x9030
e0016480:	e34e3002 	movt	r3, #57346	; 0xe002
e0016484:	e3a04003 	mov	r4, #3
e0016488:	e5834018 	str	r4, [r3, #24]
e001648c:	eaffff00 	b	e0016094 <decodeCNodeInvocation+0xac>
e0016490:	e3013b34 	movw	r3, #6964	; 0x1b34
e0016494:	e34e3003 	movt	r3, #57347	; 0xe003
e0016498:	e3a01002 	mov	r1, #2
e001649c:	e5930000 	ldr	r0, [r3]
e00164a0:	ebfffa18 	bl	e0014d08 <setThreadState>
e00164a4:	e28d304c 	add	r3, sp, #76	; 0x4c
e00164a8:	e8930003 	ldm	r3, {r0, r1}
e00164ac:	ebfffd00 	bl	e00158b4 <invokeCNodeCancelBadgedSends>
e00164b0:	e1a04000 	mov	r4, r0
e00164b4:	eafffef6 	b	e0016094 <decodeCNodeInvocation+0xac>
e00164b8:	e3013b34 	movw	r3, #6964	; 0x1b34
e00164bc:	e34e3003 	movt	r3, #57347	; 0xe003
e00164c0:	e5933000 	ldr	r3, [r3]
e00164c4:	e5932010 	ldr	r2, [r3, #16]
e00164c8:	e58d2014 	str	r2, [sp, #20]
e00164cc:	e593b014 	ldr	fp, [r3, #20]
e00164d0:	e59d309c 	ldr	r3, [sp, #156]	; 0x9c
e00164d4:	e5939014 	ldr	r9, [r3, #20]
e00164d8:	e593a018 	ldr	sl, [r3, #24]
e00164dc:	e593301c 	ldr	r3, [r3, #28]
e00164e0:	e59d209c 	ldr	r2, [sp, #156]	; 0x9c
e00164e4:	e5928020 	ldr	r8, [r2, #32]
e00164e8:	e28d2034 	add	r2, sp, #52	; 0x34
e00164ec:	e8950003 	ldm	r5, {r0, r1}
e00164f0:	e8820003 	stm	r2, {r0, r1}
e00164f4:	e28d203c 	add	r2, sp, #60	; 0x3c
e00164f8:	e8960003 	ldm	r6, {r0, r1}
e00164fc:	e8820003 	stm	r2, {r0, r1}
e0016500:	e58d8000 	str	r8, [sp]
e0016504:	e8920006 	ldm	r2, {r1, r2}
e0016508:	e28d0058 	add	r0, sp, #88	; 0x58
e001650c:	ebfff2d3 	bl	e0013060 <lookupSourceSlot>
e0016510:	e59d4058 	ldr	r4, [sp, #88]	; 0x58
e0016514:	e3540000 	cmp	r4, #0
e0016518:	1afffedd 	bne	e0016094 <decodeCNodeInvocation+0xac>
e001651c:	e59d505c 	ldr	r5, [sp, #92]	; 0x5c
e0016520:	e58d9000 	str	r9, [sp]
e0016524:	e1a0300b 	mov	r3, fp
e0016528:	e28d2034 	add	r2, sp, #52	; 0x34
e001652c:	e8920006 	ldm	r2, {r1, r2}
e0016530:	e28d0058 	add	r0, sp, #88	; 0x58
e0016534:	ebfff2e5 	bl	e00130d0 <lookupPivotSlot>
e0016538:	e59d4058 	ldr	r4, [sp, #88]	; 0x58
e001653c:	e3540000 	cmp	r4, #0
e0016540:	1afffed3 	bne	e0016094 <decodeCNodeInvocation+0xac>
e0016544:	e59d605c 	ldr	r6, [sp, #92]	; 0x5c
e0016548:	e1570006 	cmp	r7, r6
e001654c:	11550006 	cmpne	r5, r6
e0016550:	1a000004 	bne	e0016568 <decodeCNodeInvocation+0x580>
e0016554:	e3093030 	movw	r3, #36912	; 0x9030
e0016558:	e34e3002 	movt	r3, #57346	; 0xe002
e001655c:	e3a04003 	mov	r4, #3
e0016560:	e5834018 	str	r4, [r3, #24]
e0016564:	eafffeca 	b	e0016094 <decodeCNodeInvocation+0xac>
e0016568:	e1570005 	cmp	r7, r5
e001656c:	0a000003 	beq	e0016580 <decodeCNodeInvocation+0x598>
e0016570:	e1a00007 	mov	r0, r7
e0016574:	ebfff470 	bl	e001373c <ensureEmptySlot>
e0016578:	e2504000 	subs	r4, r0, #0
e001657c:	1afffec4 	bne	e0016094 <decodeCNodeInvocation+0xac>
e0016580:	e5953000 	ldr	r3, [r5]
e0016584:	e203200e 	and	r2, r3, #14
e0016588:	e352000e 	cmp	r2, #14
e001658c:	1203300f 	andne	r3, r3, #15
e0016590:	06ef3073 	uxtbeq	r3, r3
e0016594:	e3530000 	cmp	r3, #0
e0016598:	1a00000f 	bne	e00165dc <decodeCNodeInvocation+0x5f4>
e001659c:	e3093030 	movw	r3, #36912	; 0x9030
e00165a0:	e34e3002 	movt	r3, #57346	; 0xe002
e00165a4:	e3a02006 	mov	r2, #6
e00165a8:	e5832018 	str	r2, [r3, #24]
e00165ac:	e3a02001 	mov	r2, #1
e00165b0:	e5832014 	str	r2, [r3, #20]
e00165b4:	e3092024 	movw	r2, #36900	; 0x9024
e00165b8:	e34e2002 	movt	r2, #57346	; 0xe002
e00165bc:	e1a03108 	lsl	r3, r8, #2
e00165c0:	e6ef3073 	uxtb	r3, r3
e00165c4:	e3833001 	orr	r3, r3, #1
e00165c8:	e5823000 	str	r3, [r2]
e00165cc:	e3a03000 	mov	r3, #0
e00165d0:	e5823004 	str	r3, [r2, #4]
e00165d4:	e3a04003 	mov	r4, #3
e00165d8:	eafffead 	b	e0016094 <decodeCNodeInvocation+0xac>
e00165dc:	e5963000 	ldr	r3, [r6]
e00165e0:	e203200e 	and	r2, r3, #14
e00165e4:	e352000e 	cmp	r2, #14
e00165e8:	1203300f 	andne	r3, r3, #15
e00165ec:	06ef3073 	uxtbeq	r3, r3
e00165f0:	e3530000 	cmp	r3, #0
e00165f4:	1a00000e 	bne	e0016634 <decodeCNodeInvocation+0x64c>
e00165f8:	e3093030 	movw	r3, #36912	; 0x9030
e00165fc:	e34e3002 	movt	r3, #57346	; 0xe002
e0016600:	e3a02006 	mov	r2, #6
e0016604:	e5832018 	str	r2, [r3, #24]
e0016608:	e3a01000 	mov	r1, #0
e001660c:	e5831014 	str	r1, [r3, #20]
e0016610:	e3092024 	movw	r2, #36900	; 0x9024
e0016614:	e34e2002 	movt	r2, #57346	; 0xe002
e0016618:	e1a03109 	lsl	r3, r9, #2
e001661c:	e6ef3073 	uxtb	r3, r3
e0016620:	e3833001 	orr	r3, r3, #1
e0016624:	e5823000 	str	r3, [r2]
e0016628:	e5821004 	str	r1, [r2, #4]
e001662c:	e3a04003 	mov	r4, #3
e0016630:	eafffe97 	b	e0016094 <decodeCNodeInvocation+0xac>
e0016634:	e5953004 	ldr	r3, [r5, #4]
e0016638:	e58d3000 	str	r3, [sp]
e001663c:	e5953000 	ldr	r3, [r5]
e0016640:	e1a0200a 	mov	r2, sl
e0016644:	e3a01001 	mov	r1, #1
e0016648:	e28d0044 	add	r0, sp, #68	; 0x44
e001664c:	ebfff837 	bl	e0014730 <updateCapData>
e0016650:	e5963004 	ldr	r3, [r6, #4]
e0016654:	e58d3000 	str	r3, [sp]
e0016658:	e5963000 	ldr	r3, [r6]
e001665c:	e59d2014 	ldr	r2, [sp, #20]
e0016660:	e3a01001 	mov	r1, #1
e0016664:	e28d004c 	add	r0, sp, #76	; 0x4c
e0016668:	ebfff830 	bl	e0014730 <updateCapData>
e001666c:	e59d3044 	ldr	r3, [sp, #68]	; 0x44
e0016670:	e203200e 	and	r2, r3, #14
e0016674:	e352000e 	cmp	r2, #14
e0016678:	1203300f 	andne	r3, r3, #15
e001667c:	06ef3073 	uxtbeq	r3, r3
e0016680:	e3530000 	cmp	r3, #0
e0016684:	1a000004 	bne	e001669c <decodeCNodeInvocation+0x6b4>
e0016688:	e3093030 	movw	r3, #36912	; 0x9030
e001668c:	e34e3002 	movt	r3, #57346	; 0xe002
e0016690:	e3a04003 	mov	r4, #3
e0016694:	e5834018 	str	r4, [r3, #24]
e0016698:	eafffe7d 	b	e0016094 <decodeCNodeInvocation+0xac>
e001669c:	e59d304c 	ldr	r3, [sp, #76]	; 0x4c
e00166a0:	e203200e 	and	r2, r3, #14
e00166a4:	e352000e 	cmp	r2, #14
e00166a8:	1203300f 	andne	r3, r3, #15
e00166ac:	06ef3073 	uxtbeq	r3, r3
e00166b0:	e3530000 	cmp	r3, #0
e00166b4:	1a000004 	bne	e00166cc <decodeCNodeInvocation+0x6e4>
e00166b8:	e3093030 	movw	r3, #36912	; 0x9030
e00166bc:	e34e3002 	movt	r3, #57346	; 0xe002
e00166c0:	e3a04003 	mov	r4, #3
e00166c4:	e5834018 	str	r4, [r3, #24]
e00166c8:	eafffe71 	b	e0016094 <decodeCNodeInvocation+0xac>
e00166cc:	e3013b34 	movw	r3, #6964	; 0x1b34
e00166d0:	e34e3003 	movt	r3, #57347	; 0xe003
e00166d4:	e3a01002 	mov	r1, #2
e00166d8:	e5930000 	ldr	r0, [r3]
e00166dc:	ebfff989 	bl	e0014d08 <setThreadState>
e00166e0:	e58d7008 	str	r7, [sp, #8]
e00166e4:	e58d6004 	str	r6, [sp, #4]
e00166e8:	e58d5000 	str	r5, [sp]
e00166ec:	e28d304c 	add	r3, sp, #76	; 0x4c
e00166f0:	e893000c 	ldm	r3, {r2, r3}
e00166f4:	e28d1044 	add	r1, sp, #68	; 0x44
e00166f8:	e8910003 	ldm	r1, {r0, r1}
e00166fc:	ebfff3ad 	bl	e00135b8 <invokeCNodeRotate>
e0016700:	e1a04000 	mov	r4, r0
e0016704:	eafffe62 	b	e0016094 <decodeCNodeInvocation+0xac>

e0016708 <cteDeleteOne>:
e0016708:	e5903000 	ldr	r3, [r0]
e001670c:	e203200e 	and	r2, r3, #14
e0016710:	e352000e 	cmp	r2, #14
e0016714:	1203300f 	andne	r3, r3, #15
e0016718:	06ef3073 	uxtbeq	r3, r3
e001671c:	e3530000 	cmp	r3, #0
e0016720:	012fff1e 	bxeq	lr
e0016724:	e92d4010 	push	{r4, lr}
e0016728:	e24dd020 	sub	sp, sp, #32
e001672c:	e1a04000 	mov	r4, r0
e0016730:	ebfff7d0 	bl	e0014678 <isFinalCapability>
e0016734:	e3a03001 	mov	r3, #1
e0016738:	e58d3000 	str	r3, [sp]
e001673c:	e1a03000 	mov	r3, r0
e0016740:	e8940006 	ldm	r4, {r1, r2}
e0016744:	e28d0008 	add	r0, sp, #8
e0016748:	ebfffcd1 	bl	e0015a94 <finaliseCap>
e001674c:	e3a03000 	mov	r3, #0
e0016750:	e58d3018 	str	r3, [sp, #24]
e0016754:	e58d301c 	str	r3, [sp, #28]
e0016758:	e28d3020 	add	r3, sp, #32
e001675c:	e9130006 	ldmdb	r3, {r1, r2}
e0016760:	e1a00004 	mov	r0, r4
e0016764:	ebfff46c 	bl	e001391c <emptySlot>
e0016768:	e28dd020 	add	sp, sp, #32
e001676c:	e8bd8010 	pop	{r4, pc}

e0016770 <invokeIRQHandler_SetIRQHandler>:
e0016770:	e92d4070 	push	{r4, r5, r6, lr}
e0016774:	e24dd008 	sub	sp, sp, #8
e0016778:	e1a0400d 	mov	r4, sp
e001677c:	e8840006 	stm	r4, {r1, r2}
e0016780:	e1a06003 	mov	r6, r3
e0016784:	e30134e0 	movw	r3, #5344	; 0x14e0
e0016788:	e34e3003 	movt	r3, #57347	; 0xe003
e001678c:	e5935000 	ldr	r5, [r3]
e0016790:	e0855200 	add	r5, r5, r0, lsl #4
e0016794:	e1a00005 	mov	r0, r5
e0016798:	ebffffda 	bl	e0016708 <cteDeleteOne>
e001679c:	e1a03005 	mov	r3, r5
e00167a0:	e1a02006 	mov	r2, r6
e00167a4:	e8940003 	ldm	r4, {r0, r1}
e00167a8:	ebfff28b 	bl	e00131dc <cteInsert>
e00167ac:	e28dd008 	add	sp, sp, #8
e00167b0:	e8bd8070 	pop	{r4, r5, r6, pc}

e00167b4 <invokeIRQHandler_ClearIRQHandler>:
e00167b4:	e92d4010 	push	{r4, lr}
e00167b8:	e30134e0 	movw	r3, #5344	; 0x14e0
e00167bc:	e34e3003 	movt	r3, #57347	; 0xe003
e00167c0:	e5933000 	ldr	r3, [r3]
e00167c4:	e0830200 	add	r0, r3, r0, lsl #4
e00167c8:	ebffffce 	bl	e0016708 <cteDeleteOne>
e00167cc:	e8bd8010 	pop	{r4, pc}

e00167d0 <decodeIRQHandlerInvocation>:
e00167d0:	e24dd008 	sub	sp, sp, #8
e00167d4:	e92d40f0 	push	{r4, r5, r6, r7, lr}
e00167d8:	e24dd00c 	sub	sp, sp, #12
e00167dc:	e1a04001 	mov	r4, r1
e00167e0:	e28d101c 	add	r1, sp, #28
e00167e4:	e981000c 	stmib	r1, {r2, r3}
e00167e8:	e350001b 	cmp	r0, #27
e00167ec:	0a000014 	beq	e0016844 <decodeIRQHandlerInvocation+0x74>
e00167f0:	e350001c 	cmp	r0, #28
e00167f4:	0a00003e 	beq	e00168f4 <decodeIRQHandlerInvocation+0x124>
e00167f8:	e350001a 	cmp	r0, #26
e00167fc:	0a000004 	beq	e0016814 <decodeIRQHandlerInvocation+0x44>
e0016800:	e3093030 	movw	r3, #36912	; 0x9030
e0016804:	e34e3002 	movt	r3, #57346	; 0xe002
e0016808:	e3a00003 	mov	r0, #3
e001680c:	e5830018 	str	r0, [r3, #24]
e0016810:	ea000007 	b	e0016834 <decodeIRQHandlerInvocation+0x64>
e0016814:	e3013b34 	movw	r3, #6964	; 0x1b34
e0016818:	e34e3003 	movt	r3, #57347	; 0xe003
e001681c:	e3a01002 	mov	r1, #2
e0016820:	e5930000 	ldr	r0, [r3]
e0016824:	ebfff937 	bl	e0014d08 <setThreadState>
e0016828:	e1a00004 	mov	r0, r4
e001682c:	ebfff402 	bl	e001383c <invokeIRQHandler_AckIRQ>
e0016830:	e3a00000 	mov	r0, #0
e0016834:	e28dd00c 	add	sp, sp, #12
e0016838:	e8bd40f0 	pop	{r4, r5, r6, r7, lr}
e001683c:	e28dd008 	add	sp, sp, #8
e0016840:	e12fff1e 	bx	lr
e0016844:	e59d5020 	ldr	r5, [sp, #32]
e0016848:	e3550000 	cmp	r5, #0
e001684c:	0a000011 	beq	e0016898 <decodeIRQHandlerInvocation+0xc8>
e0016850:	e8950003 	ldm	r5, {r0, r1}
e0016854:	e28d3008 	add	r3, sp, #8
e0016858:	e9030003 	stmdb	r3, {r0, r1}
e001685c:	e1a06000 	mov	r6, r0
e0016860:	e200300e 	and	r3, r0, #14
e0016864:	e353000e 	cmp	r3, #14
e0016868:	1200300f 	andne	r3, r0, #15
e001686c:	06ef3070 	uxtbeq	r3, r0
e0016870:	e3530006 	cmp	r3, #6
e0016874:	0a00000d 	beq	e00168b0 <decodeIRQHandlerInvocation+0xe0>
e0016878:	e3093030 	movw	r3, #36912	; 0x9030
e001687c:	e34e3002 	movt	r3, #57346	; 0xe002
e0016880:	e3a02002 	mov	r2, #2
e0016884:	e5832018 	str	r2, [r3, #24]
e0016888:	e3a02000 	mov	r2, #0
e001688c:	e5832004 	str	r2, [r3, #4]
e0016890:	e3a00003 	mov	r0, #3
e0016894:	eaffffe6 	b	e0016834 <decodeIRQHandlerInvocation+0x64>
e0016898:	e3093030 	movw	r3, #36912	; 0x9030
e001689c:	e34e3002 	movt	r3, #57346	; 0xe002
e00168a0:	e3a02007 	mov	r2, #7
e00168a4:	e5832018 	str	r2, [r3, #24]
e00168a8:	e3a00003 	mov	r0, #3
e00168ac:	eaffffe0 	b	e0016834 <decodeIRQHandlerInvocation+0x64>
e00168b0:	e5957004 	ldr	r7, [r5, #4]
e00168b4:	e3170001 	tst	r7, #1
e00168b8:	0affffee 	beq	e0016878 <decodeIRQHandlerInvocation+0xa8>
e00168bc:	e3013b34 	movw	r3, #6964	; 0x1b34
e00168c0:	e34e3003 	movt	r3, #57347	; 0xe003
e00168c4:	e3a01002 	mov	r1, #2
e00168c8:	e5930000 	ldr	r0, [r3]
e00168cc:	ebfff90d 	bl	e0014d08 <setThreadState>
e00168d0:	e58d6000 	str	r6, [sp]
e00168d4:	e58d7004 	str	r7, [sp, #4]
e00168d8:	e1a03005 	mov	r3, r5
e00168dc:	e28d2008 	add	r2, sp, #8
e00168e0:	e9120006 	ldmdb	r2, {r1, r2}
e00168e4:	e1a00004 	mov	r0, r4
e00168e8:	ebffffa0 	bl	e0016770 <invokeIRQHandler_SetIRQHandler>
e00168ec:	e3a00000 	mov	r0, #0
e00168f0:	eaffffcf 	b	e0016834 <decodeIRQHandlerInvocation+0x64>
e00168f4:	e3013b34 	movw	r3, #6964	; 0x1b34
e00168f8:	e34e3003 	movt	r3, #57347	; 0xe003
e00168fc:	e3a01002 	mov	r1, #2
e0016900:	e5930000 	ldr	r0, [r3]
e0016904:	ebfff8ff 	bl	e0014d08 <setThreadState>
e0016908:	e1a00004 	mov	r0, r4
e001690c:	ebffffa8 	bl	e00167b4 <invokeIRQHandler_ClearIRQHandler>
e0016910:	e3a00000 	mov	r0, #0
e0016914:	eaffffc6 	b	e0016834 <decodeIRQHandlerInvocation+0x64>

e0016918 <deletingIRQHandler>:
e0016918:	e92d4010 	push	{r4, lr}
e001691c:	e30134e0 	movw	r3, #5344	; 0x14e0
e0016920:	e34e3003 	movt	r3, #57347	; 0xe003
e0016924:	e5933000 	ldr	r3, [r3]
e0016928:	e0830200 	add	r0, r3, r0, lsl #4
e001692c:	ebffff75 	bl	e0016708 <cteDeleteOne>
e0016930:	e8bd8010 	pop	{r4, pc}

e0016934 <restart>:
e0016934:	e5903050 	ldr	r3, [r0, #80]	; 0x50
e0016938:	e213300f 	ands	r3, r3, #15
e001693c:	0a000002 	beq	e001694c <restart+0x18>
e0016940:	e2433003 	sub	r3, r3, #3
e0016944:	e3530003 	cmp	r3, #3
e0016948:	812fff1e 	bxhi	lr
e001694c:	e92d4010 	push	{r4, lr}
e0016950:	e1a04000 	mov	r4, r0
e0016954:	ebfffc09 	bl	e0015980 <cancelIPC>
e0016958:	e1a00004 	mov	r0, r4
e001695c:	ebfff363 	bl	e00136f0 <setupReplyMaster>
e0016960:	e3a01002 	mov	r1, #2
e0016964:	e1a00004 	mov	r0, r4
e0016968:	ebfff8e6 	bl	e0014d08 <setThreadState>
e001696c:	e1a00004 	mov	r0, r4
e0016970:	ebfff898 	bl	e0014bd8 <tcbSchedEnqueue>
e0016974:	e1a00004 	mov	r0, r4
e0016978:	ebfff9e4 	bl	e0015110 <possibleSwitchTo>
e001697c:	e8bd8010 	pop	{r4, pc}

e0016980 <sendSignal>:
e0016980:	e92d41f0 	push	{r4, r5, r6, r7, r8, lr}
e0016984:	e24dd010 	sub	sp, sp, #16
e0016988:	e1a04000 	mov	r4, r0
e001698c:	e1a05001 	mov	r5, r1
e0016990:	e5903000 	ldr	r3, [r0]
e0016994:	e2032003 	and	r2, r3, #3
e0016998:	e3520001 	cmp	r2, #1
e001699c:	0a00001e 	beq	e0016a1c <sendSignal+0x9c>
e00169a0:	3a000003 	bcc	e00169b4 <sendSignal+0x34>
e00169a4:	e3520002 	cmp	r2, #2
e00169a8:	0a00003d 	beq	e0016aa4 <sendSignal+0x124>
e00169ac:	e28dd010 	add	sp, sp, #16
e00169b0:	e8bd81f0 	pop	{r4, r5, r6, r7, r8, pc}
e00169b4:	e590000c 	ldr	r0, [r0, #12]
e00169b8:	e3d0600f 	bics	r6, r0, #15
e00169bc:	0a000011 	beq	e0016a08 <sendSignal+0x88>
e00169c0:	e5962050 	ldr	r2, [r6, #80]	; 0x50
e00169c4:	e202200f 	and	r2, r2, #15
e00169c8:	e3520003 	cmp	r2, #3
e00169cc:	0a000004 	beq	e00169e4 <sendSignal+0x64>
e00169d0:	e3c33003 	bic	r3, r3, #3
e00169d4:	e3833002 	orr	r3, r3, #2
e00169d8:	e5843000 	str	r3, [r4]
e00169dc:	e5841008 	str	r1, [r4, #8]
e00169e0:	eafffff1 	b	e00169ac <sendSignal+0x2c>
e00169e4:	e1a00006 	mov	r0, r6
e00169e8:	ebfffbe4 	bl	e0015980 <cancelIPC>
e00169ec:	e3a01001 	mov	r1, #1
e00169f0:	e1a00006 	mov	r0, r6
e00169f4:	ebfff8c3 	bl	e0014d08 <setThreadState>
e00169f8:	e5865000 	str	r5, [r6]
e00169fc:	e1a00006 	mov	r0, r6
e0016a00:	ebfff9c2 	bl	e0015110 <possibleSwitchTo>
e0016a04:	eaffffe8 	b	e00169ac <sendSignal+0x2c>
e0016a08:	e3c33003 	bic	r3, r3, #3
e0016a0c:	e3833002 	orr	r3, r3, #2
e0016a10:	e5843000 	str	r3, [r4]
e0016a14:	e5841008 	str	r1, [r4, #8]
e0016a18:	eaffffe3 	b	e00169ac <sendSignal+0x2c>
e0016a1c:	e5906004 	ldr	r6, [r0, #4]
e0016a20:	e3c6600f 	bic	r6, r6, #15
e0016a24:	e58d6008 	str	r6, [sp, #8]
e0016a28:	e3c3300f 	bic	r3, r3, #15
e0016a2c:	e58d300c 	str	r3, [sp, #12]
e0016a30:	e1a0800d 	mov	r8, sp
e0016a34:	e28d7008 	add	r7, sp, #8
e0016a38:	e897000c 	ldm	r7, {r2, r3}
e0016a3c:	e1a01006 	mov	r1, r6
e0016a40:	e1a00008 	mov	r0, r8
e0016a44:	ebfffb44 	bl	e001575c <tcbEPDequeue>
e0016a48:	e8980003 	ldm	r8, {r0, r1}
e0016a4c:	e8870003 	stm	r7, {r0, r1}
e0016a50:	e59d1008 	ldr	r1, [sp, #8]
e0016a54:	e5943004 	ldr	r3, [r4, #4]
e0016a58:	e203300f 	and	r3, r3, #15
e0016a5c:	e3c1200f 	bic	r2, r1, #15
e0016a60:	e1833002 	orr	r3, r3, r2
e0016a64:	e5843004 	str	r3, [r4, #4]
e0016a68:	e5943000 	ldr	r3, [r4]
e0016a6c:	e203300f 	and	r3, r3, #15
e0016a70:	e59d200c 	ldr	r2, [sp, #12]
e0016a74:	e3c2200f 	bic	r2, r2, #15
e0016a78:	e1833002 	orr	r3, r3, r2
e0016a7c:	e3510000 	cmp	r1, #0
e0016a80:	03c33003 	biceq	r3, r3, #3
e0016a84:	e5843000 	str	r3, [r4]
e0016a88:	e3a01001 	mov	r1, #1
e0016a8c:	e1a00006 	mov	r0, r6
e0016a90:	ebfff89c 	bl	e0014d08 <setThreadState>
e0016a94:	e5865000 	str	r5, [r6]
e0016a98:	e1a00006 	mov	r0, r6
e0016a9c:	ebfff99b 	bl	e0015110 <possibleSwitchTo>
e0016aa0:	eaffffc1 	b	e00169ac <sendSignal+0x2c>
e0016aa4:	e5903008 	ldr	r3, [r0, #8]
e0016aa8:	e1835001 	orr	r5, r3, r1
e0016aac:	e5805008 	str	r5, [r0, #8]
e0016ab0:	eaffffbd 	b	e00169ac <sendSignal+0x2c>

e0016ab4 <handleInterrupt>:
e0016ab4:	e350009f 	cmp	r0, #159	; 0x9f
e0016ab8:	8a00000b 	bhi	e0016aec <handleInterrupt+0x38>
e0016abc:	e92d4010 	push	{r4, lr}
e0016ac0:	e1a04000 	mov	r4, r0
e0016ac4:	e3093058 	movw	r3, #36952	; 0x9058
e0016ac8:	e34e3002 	movt	r3, #57346	; 0xe002
e0016acc:	e7933100 	ldr	r3, [r3, r0, lsl #2]
e0016ad0:	e3530003 	cmp	r3, #3
e0016ad4:	979ff103 	ldrls	pc, [pc, r3, lsl #2]
e0016ad8:	ea000068 	b	e0016c80 <handleInterrupt+0x1cc>
e0016adc:	e0016c58 	.word	0xe0016c58
e0016ae0:	e0016b5c 	.word	0xe0016b5c
e0016ae4:	e0016c40 	.word	0xe0016c40
e0016ae8:	e0016bac 	.word	0xe0016bac
e0016aec:	e200301f 	and	r3, r0, #31
e0016af0:	e3a01001 	mov	r1, #1
e0016af4:	e1a01311 	lsl	r1, r1, r3
e0016af8:	e1a032a0 	lsr	r3, r0, #5
e0016afc:	e1a03103 	lsl	r3, r3, #2
e0016b00:	e2433aff 	sub	r3, r3, #1044480	; 0xff000
e0016b04:	e5831180 	str	r1, [r3, #384]	; 0x180
e0016b08:	e1a0c220 	lsr	ip, r0, #4
e0016b0c:	e1a0c10c 	lsl	ip, ip, #2
e0016b10:	e3012cff 	movw	r2, #7423	; 0x1cff
e0016b14:	e34f2ff0 	movt	r2, #65520	; 0xfff0
e0016b18:	e08c2002 	add	r2, ip, r2
e0016b1c:	e51220ff 	ldr	r2, [r2, #-255]	; 0xffffff01
e0016b20:	e200000f 	and	r0, r0, #15
e0016b24:	e1a00080 	lsl	r0, r0, #1
e0016b28:	e2800001 	add	r0, r0, #1
e0016b2c:	e1a00032 	lsr	r0, r2, r0
e0016b30:	e3100001 	tst	r0, #1
e0016b34:	15831280 	strne	r1, [r3, #640]	; 0x280
e0016b38:	e30b3858 	movw	r3, #47192	; 0xb858
e0016b3c:	e34e3001 	movt	r3, #57345	; 0xe001
e0016b40:	e5931000 	ldr	r1, [r3]
e0016b44:	e30021ff 	movw	r2, #511	; 0x1ff
e0016b48:	e34f2ff0 	movt	r2, #65520	; 0xfff0
e0016b4c:	e50210ef 	str	r1, [r2, #-239]	; 0xffffff11
e0016b50:	e30023ff 	movw	r2, #1023	; 0x3ff
e0016b54:	e5832000 	str	r2, [r3]
e0016b58:	e12fff1e 	bx	lr
e0016b5c:	e30134e0 	movw	r3, #5344	; 0x14e0
e0016b60:	e34e3003 	movt	r3, #57347	; 0xe003
e0016b64:	e5933000 	ldr	r3, [r3]
e0016b68:	e0832200 	add	r2, r3, r0, lsl #4
e0016b6c:	e7930200 	ldr	r0, [r3, r0, lsl #4]
e0016b70:	e200300e 	and	r3, r0, #14
e0016b74:	e353000e 	cmp	r3, #14
e0016b78:	1200300f 	andne	r3, r0, #15
e0016b7c:	06ef3070 	uxtbeq	r3, r0
e0016b80:	e3530006 	cmp	r3, #6
e0016b84:	0a000026 	beq	e0016c24 <handleInterrupt+0x170>
e0016b88:	e1a032a4 	lsr	r3, r4, #5
e0016b8c:	e204201f 	and	r2, r4, #31
e0016b90:	e3a01001 	mov	r1, #1
e0016b94:	e1a01211 	lsl	r1, r1, r2
e0016b98:	e1a03103 	lsl	r3, r3, #2
e0016b9c:	e301227f 	movw	r2, #4735	; 0x127f
e0016ba0:	e34f2ff0 	movt	r2, #65520	; 0xfff0
e0016ba4:	e0832002 	add	r2, r3, r2
e0016ba8:	e50210ff 	str	r1, [r2, #-255]	; 0xffffff01
e0016bac:	e1a02224 	lsr	r2, r4, #4
e0016bb0:	e1a02102 	lsl	r2, r2, #2
e0016bb4:	e3013cff 	movw	r3, #7423	; 0x1cff
e0016bb8:	e34f3ff0 	movt	r3, #65520	; 0xfff0
e0016bbc:	e0823003 	add	r3, r2, r3
e0016bc0:	e51320ff 	ldr	r2, [r3, #-255]	; 0xffffff01
e0016bc4:	e204300f 	and	r3, r4, #15
e0016bc8:	e1a03083 	lsl	r3, r3, #1
e0016bcc:	e2833001 	add	r3, r3, #1
e0016bd0:	e1a03332 	lsr	r3, r2, r3
e0016bd4:	e3130001 	tst	r3, #1
e0016bd8:	0a000008 	beq	e0016c00 <handleInterrupt+0x14c>
e0016bdc:	e1a022a4 	lsr	r2, r4, #5
e0016be0:	e204401f 	and	r4, r4, #31
e0016be4:	e3a00001 	mov	r0, #1
e0016be8:	e1a04410 	lsl	r4, r0, r4
e0016bec:	e1a02102 	lsl	r2, r2, #2
e0016bf0:	e301337f 	movw	r3, #4991	; 0x137f
e0016bf4:	e34f3ff0 	movt	r3, #65520	; 0xfff0
e0016bf8:	e0823003 	add	r3, r2, r3
e0016bfc:	e50340ff 	str	r4, [r3, #-255]	; 0xffffff01
e0016c00:	e30b3858 	movw	r3, #47192	; 0xb858
e0016c04:	e34e3001 	movt	r3, #57345	; 0xe001
e0016c08:	e5931000 	ldr	r1, [r3]
e0016c0c:	e30021ff 	movw	r2, #511	; 0x1ff
e0016c10:	e34f2ff0 	movt	r2, #65520	; 0xfff0
e0016c14:	e50210ef 	str	r1, [r2, #-239]	; 0xffffff11
e0016c18:	e30023ff 	movw	r2, #1023	; 0x3ff
e0016c1c:	e5832000 	str	r2, [r3]
e0016c20:	e8bd8010 	pop	{r4, pc}
e0016c24:	e5921004 	ldr	r1, [r2, #4]
e0016c28:	e3110001 	tst	r1, #1
e0016c2c:	0affffd5 	beq	e0016b88 <handleInterrupt+0xd4>
e0016c30:	e1a01221 	lsr	r1, r1, #4
e0016c34:	e3c0000f 	bic	r0, r0, #15
e0016c38:	ebffff50 	bl	e0016980 <sendSignal>
e0016c3c:	eaffffd1 	b	e0016b88 <handleInterrupt+0xd4>
e0016c40:	ebfff99f 	bl	e00152c4 <timerTick>
e0016c44:	e30036ff 	movw	r3, #1791	; 0x6ff
e0016c48:	e34f3ff0 	movt	r3, #65520	; 0xfff0
e0016c4c:	e3a02001 	mov	r2, #1
e0016c50:	e50320f3 	str	r2, [r3, #-243]	; 0xffffff0d
e0016c54:	eaffffd4 	b	e0016bac <handleInterrupt+0xf8>
e0016c58:	e1a032a0 	lsr	r3, r0, #5
e0016c5c:	e200201f 	and	r2, r0, #31
e0016c60:	e3a01001 	mov	r1, #1
e0016c64:	e1a01211 	lsl	r1, r1, r2
e0016c68:	e1a03103 	lsl	r3, r3, #2
e0016c6c:	e301227f 	movw	r2, #4735	; 0x127f
e0016c70:	e34f2ff0 	movt	r2, #65520	; 0xfff0
e0016c74:	e0832002 	add	r2, r3, r2
e0016c78:	e50210ff 	str	r1, [r2, #-255]	; 0xffffff01
e0016c7c:	eaffffca 	b	e0016bac <handleInterrupt+0xf8>
e0016c80:	ebffe6fa 	bl	e0010870 <halt>

e0016c84 <handleInterruptEntry>:
e0016c84:	e92d4010 	push	{r4, lr}
e0016c88:	e30b3858 	movw	r3, #47192	; 0xb858
e0016c8c:	e34e3001 	movt	r3, #57345	; 0xe001
e0016c90:	e5930000 	ldr	r0, [r3]
e0016c94:	e7e90050 	ubfx	r0, r0, #0, #10
e0016c98:	e3500fff 	cmp	r0, #1020	; 0x3fc
e0016c9c:	3a000008 	bcc	e0016cc4 <handleInterruptEntry+0x40>
e0016ca0:	e30031ff 	movw	r3, #511	; 0x1ff
e0016ca4:	e34f3ff0 	movt	r3, #65520	; 0xfff0
e0016ca8:	e51300f3 	ldr	r0, [r3, #-243]	; 0xffffff0d
e0016cac:	e30b3858 	movw	r3, #47192	; 0xb858
e0016cb0:	e34e3001 	movt	r3, #57345	; 0xe001
e0016cb4:	e5830000 	str	r0, [r3]
e0016cb8:	e7e90050 	ubfx	r0, r0, #0, #10
e0016cbc:	e3500fff 	cmp	r0, #1020	; 0x3fc
e0016cc0:	2a000000 	bcs	e0016cc8 <handleInterruptEntry+0x44>
e0016cc4:	ebffff7a 	bl	e0016ab4 <handleInterrupt>
e0016cc8:	ebfffa19 	bl	e0015534 <schedule>
e0016ccc:	ebfff874 	bl	e0014ea4 <activateThread>
e0016cd0:	e3a00000 	mov	r0, #0
e0016cd4:	e8bd8010 	pop	{r4, pc}

e0016cd8 <performInvocation_Notification>:
e0016cd8:	e92d4010 	push	{r4, lr}
e0016cdc:	ebffff27 	bl	e0016980 <sendSignal>
e0016ce0:	e3a00000 	mov	r0, #0
e0016ce4:	e8bd8010 	pop	{r4, pc}

e0016ce8 <getExtraCPtr>:
e0016ce8:	e281107a 	add	r1, r1, #122	; 0x7a
e0016cec:	e7900101 	ldr	r0, [r0, r1, lsl #2]
e0016cf0:	e12fff1e 	bx	lr

e0016cf4 <setExtraBadge>:
e0016cf4:	e282207a 	add	r2, r2, #122	; 0x7a
e0016cf8:	e7801102 	str	r1, [r0, r2, lsl #2]
e0016cfc:	e12fff1e 	bx	lr

e0016d00 <setupCallerCap>:
e0016d00:	e92d4070 	push	{r4, r5, r6, lr}
e0016d04:	e24dd008 	sub	sp, sp, #8
e0016d08:	e1a05000 	mov	r5, r0
e0016d0c:	e1a06001 	mov	r6, r1
e0016d10:	e1a04002 	mov	r4, r2
e0016d14:	e3a01005 	mov	r1, #5
e0016d18:	ebfff7fa 	bl	e0014d08 <setThreadState>
e0016d1c:	e1a04284 	lsl	r4, r4, #5
e0016d20:	e2044020 	and	r4, r4, #32
e0016d24:	e3844008 	orr	r4, r4, #8
e0016d28:	e3c5303f 	bic	r3, r5, #63	; 0x3f
e0016d2c:	e1844003 	orr	r4, r4, r3
e0016d30:	e58d4000 	str	r4, [sp]
e0016d34:	e3a03000 	mov	r3, #0
e0016d38:	e58d3004 	str	r3, [sp, #4]
e0016d3c:	e3c63f7f 	bic	r3, r6, #508	; 0x1fc
e0016d40:	e3c33003 	bic	r3, r3, #3
e0016d44:	e3c52f7f 	bic	r2, r5, #508	; 0x1fc
e0016d48:	e3c22003 	bic	r2, r2, #3
e0016d4c:	e2833030 	add	r3, r3, #48	; 0x30
e0016d50:	e2822020 	add	r2, r2, #32
e0016d54:	e28d1008 	add	r1, sp, #8
e0016d58:	e9110003 	ldmdb	r1, {r0, r1}
e0016d5c:	ebfff11e 	bl	e00131dc <cteInsert>
e0016d60:	e28dd008 	add	sp, sp, #8
e0016d64:	e8bd8070 	pop	{r4, r5, r6, pc}

e0016d68 <deleteCallerCap>:
e0016d68:	e92d4010 	push	{r4, lr}
e0016d6c:	e3c00f7f 	bic	r0, r0, #508	; 0x1fc
e0016d70:	e3c00003 	bic	r0, r0, #3
e0016d74:	e2800030 	add	r0, r0, #48	; 0x30
e0016d78:	ebfffe62 	bl	e0016708 <cteDeleteOne>
e0016d7c:	e8bd8010 	pop	{r4, pc}

e0016d80 <lookupExtraCaps>:
e0016d80:	e92d43f0 	push	{r4, r5, r6, r7, r8, r9, lr}
e0016d84:	e24dd00c 	sub	sp, sp, #12
e0016d88:	e2515000 	subs	r5, r1, #0
e0016d8c:	0a00001b 	beq	e0016e00 <lookupExtraCaps+0x80>
e0016d90:	e7e173d2 	ubfx	r7, r2, #7, #2
e0016d94:	e3570000 	cmp	r7, #0
e0016d98:	0a000024 	beq	e0016e30 <lookupExtraCaps+0xb0>
e0016d9c:	e1a08000 	mov	r8, r0
e0016da0:	e2855f79 	add	r5, r5, #484	; 0x1e4
e0016da4:	e3a04000 	mov	r4, #0
e0016da8:	e309904c 	movw	r9, #36940	; 0x904c
e0016dac:	e34e9002 	movt	r9, #57346	; 0xe002
e0016db0:	e5b56004 	ldr	r6, [r5, #4]!
e0016db4:	e1a02006 	mov	r2, r6
e0016db8:	e1a01008 	mov	r1, r8
e0016dbc:	e1a0000d 	mov	r0, sp
e0016dc0:	ebfff00d 	bl	e0012dfc <lookupSlot>
e0016dc4:	e59d0000 	ldr	r0, [sp]
e0016dc8:	e3500000 	cmp	r0, #0
e0016dcc:	1a000010 	bne	e0016e14 <lookupExtraCaps+0x94>
e0016dd0:	e59d3004 	ldr	r3, [sp, #4]
e0016dd4:	e7893104 	str	r3, [r9, r4, lsl #2]
e0016dd8:	e2844001 	add	r4, r4, #1
e0016ddc:	e1540007 	cmp	r4, r7
e0016de0:	1afffff2 	bne	e0016db0 <lookupExtraCaps+0x30>
e0016de4:	e3540002 	cmp	r4, #2
e0016de8:	8a00000e 	bhi	e0016e28 <lookupExtraCaps+0xa8>
e0016dec:	e309304c 	movw	r3, #36940	; 0x904c
e0016df0:	e34e3002 	movt	r3, #57346	; 0xe002
e0016df4:	e3a00000 	mov	r0, #0
e0016df8:	e7830104 	str	r0, [r3, r4, lsl #2]
e0016dfc:	ea000009 	b	e0016e28 <lookupExtraCaps+0xa8>
e0016e00:	e309304c 	movw	r3, #36940	; 0x904c
e0016e04:	e34e3002 	movt	r3, #57346	; 0xe002
e0016e08:	e3a00000 	mov	r0, #0
e0016e0c:	e5830000 	str	r0, [r3]
e0016e10:	ea000004 	b	e0016e28 <lookupExtraCaps+0xa8>
e0016e14:	e3083000 	movw	r3, #32768	; 0x8000
e0016e18:	e34e3002 	movt	r3, #57346	; 0xe002
e0016e1c:	e3a02001 	mov	r2, #1
e0016e20:	e5832000 	str	r2, [r3]
e0016e24:	e5836004 	str	r6, [r3, #4]
e0016e28:	e28dd00c 	add	sp, sp, #12
e0016e2c:	e8bd83f0 	pop	{r4, r5, r6, r7, r8, r9, pc}
e0016e30:	e1a04007 	mov	r4, r7
e0016e34:	eaffffec 	b	e0016dec <lookupExtraCaps+0x6c>

e0016e38 <copyMRs>:
e0016e38:	e92d4070 	push	{r4, r5, r6, lr}
e0016e3c:	e1a06000 	mov	r6, r0
e0016e40:	e59d0010 	ldr	r0, [sp, #16]
e0016e44:	e3500000 	cmp	r0, #0
e0016e48:	08bd8070 	popeq	{r4, r5, r6, pc}
e0016e4c:	e59f4074 	ldr	r4, [pc, #116]	; e0016ec8 <copyMRs+0x90>
e0016e50:	e3a0c000 	mov	ip, #0
e0016e54:	e494e004 	ldr	lr, [r4], #4
e0016e58:	e796510e 	ldr	r5, [r6, lr, lsl #2]
e0016e5c:	e782510e 	str	r5, [r2, lr, lsl #2]
e0016e60:	e28cc001 	add	ip, ip, #1
e0016e64:	e150000c 	cmp	r0, ip
e0016e68:	93a0e000 	movls	lr, #0
e0016e6c:	83a0e001 	movhi	lr, #1
e0016e70:	e35c0003 	cmp	ip, #3
e0016e74:	83a0e000 	movhi	lr, #0
e0016e78:	e35e0000 	cmp	lr, #0
e0016e7c:	1afffff4 	bne	e0016e54 <copyMRs+0x1c>
e0016e80:	e3510000 	cmp	r1, #0
e0016e84:	13530000 	cmpne	r3, #0
e0016e88:	0a00000a 	beq	e0016eb8 <copyMRs+0x80>
e0016e8c:	e150000c 	cmp	r0, ip
e0016e90:	9a00000a 	bls	e0016ec0 <copyMRs+0x88>
e0016e94:	e1a0c10c 	lsl	ip, ip, #2
e0016e98:	e081200c 	add	r2, r1, ip
e0016e9c:	e083c00c 	add	ip, r3, ip
e0016ea0:	e0811100 	add	r1, r1, r0, lsl #2
e0016ea4:	e5b23004 	ldr	r3, [r2, #4]!
e0016ea8:	e5ac3004 	str	r3, [ip, #4]!
e0016eac:	e1520001 	cmp	r2, r1
e0016eb0:	1afffffb 	bne	e0016ea4 <copyMRs+0x6c>
e0016eb4:	e8bd8070 	pop	{r4, r5, r6, pc}
e0016eb8:	e1a0000c 	mov	r0, ip
e0016ebc:	e8bd8070 	pop	{r4, r5, r6, pc}
e0016ec0:	e1a0000c 	mov	r0, ip
e0016ec4:	e8bd8070 	pop	{r4, r5, r6, pc}
e0016ec8:	e001b7c8 	.word	0xe001b7c8

e0016ecc <doNormalTransfer>:
e0016ecc:	e92d4ff0 	push	{r4, r5, r6, r7, r8, r9, sl, fp, lr}
e0016ed0:	e24dd03c 	sub	sp, sp, #60	; 0x3c
e0016ed4:	e1a06000 	mov	r6, r0
e0016ed8:	e1a0b001 	mov	fp, r1
e0016edc:	e1a0a002 	mov	sl, r2
e0016ee0:	e1a09003 	mov	r9, r3
e0016ee4:	e59d5064 	ldr	r5, [sp, #100]	; 0x64
e0016ee8:	e59d7068 	ldr	r7, [sp, #104]	; 0x68
e0016eec:	e5904004 	ldr	r4, [r0, #4]
e0016ef0:	e204307f 	and	r3, r4, #127	; 0x7f
e0016ef4:	e3530078 	cmp	r3, #120	; 0x78
e0016ef8:	83c4407f 	bichi	r4, r4, #127	; 0x7f
e0016efc:	83844078 	orrhi	r4, r4, #120	; 0x78
e0016f00:	e59d3060 	ldr	r3, [sp, #96]	; 0x60
e0016f04:	e3530000 	cmp	r3, #0
e0016f08:	1a00001e 	bne	e0016f88 <doNormalTransfer+0xbc>
e0016f0c:	e309304c 	movw	r3, #36940	; 0x904c
e0016f10:	e34e3002 	movt	r3, #57346	; 0xe002
e0016f14:	e8930007 	ldm	r3, {r0, r1, r2}
e0016f18:	e28d3038 	add	r3, sp, #56	; 0x38
e0016f1c:	e9030007 	stmdb	r3, {r0, r1, r2}
e0016f20:	e3a08000 	mov	r8, #0
e0016f24:	e204307f 	and	r3, r4, #127	; 0x7f
e0016f28:	e58d3000 	str	r3, [sp]
e0016f2c:	e1a03007 	mov	r3, r7
e0016f30:	e1a02005 	mov	r2, r5
e0016f34:	e1a0100b 	mov	r1, fp
e0016f38:	e1a00006 	mov	r0, r6
e0016f3c:	ebffffbd 	bl	e0016e38 <copyMRs>
e0016f40:	e1a06000 	mov	r6, r0
e0016f44:	e58d802c 	str	r8, [sp, #44]	; 0x2c
e0016f48:	e28d3014 	add	r3, sp, #20
e0016f4c:	e28d2038 	add	r2, sp, #56	; 0x38
e0016f50:	e9120007 	ldmdb	r2, {r0, r1, r2}
e0016f54:	e8830007 	stm	r3, {r0, r1, r2}
e0016f58:	e3c44d3e 	bic	r4, r4, #3968	; 0xf80
e0016f5c:	e1a08000 	mov	r8, r0
e0016f60:	e3500000 	cmp	r0, #0
e0016f64:	13570000 	cmpne	r7, #0
e0016f68:	1a000012 	bne	e0016fb8 <doNormalTransfer+0xec>
e0016f6c:	e3c4407f 	bic	r4, r4, #127	; 0x7f
e0016f70:	e206607f 	and	r6, r6, #127	; 0x7f
e0016f74:	e1844006 	orr	r4, r4, r6
e0016f78:	e5854004 	str	r4, [r5, #4]
e0016f7c:	e5859000 	str	r9, [r5]
e0016f80:	e28dd03c 	add	sp, sp, #60	; 0x3c
e0016f84:	e8bd8ff0 	pop	{r4, r5, r6, r7, r8, r9, sl, fp, pc}
e0016f88:	e1a02004 	mov	r2, r4
e0016f8c:	ebffff7b 	bl	e0016d80 <lookupExtraCaps>
e0016f90:	e1a0c000 	mov	ip, r0
e0016f94:	e309304c 	movw	r3, #36940	; 0x904c
e0016f98:	e34e3002 	movt	r3, #57346	; 0xe002
e0016f9c:	e8930007 	ldm	r3, {r0, r1, r2}
e0016fa0:	e28d3038 	add	r3, sp, #56	; 0x38
e0016fa4:	e9030007 	stmdb	r3, {r0, r1, r2}
e0016fa8:	e35c0000 	cmp	ip, #0
e0016fac:	01a08000 	moveq	r8, r0
e0016fb0:	13a08000 	movne	r8, #0
e0016fb4:	eaffffda 	b	e0016f24 <doNormalTransfer+0x58>
e0016fb8:	e1a01007 	mov	r1, r7
e0016fbc:	e1a00005 	mov	r0, r5
e0016fc0:	ebfff1ea 	bl	e0013770 <getReceiveSlots>
e0016fc4:	e3580000 	cmp	r8, #0
e0016fc8:	0a00003b 	beq	e00170bc <doNormalTransfer+0x1f0>
e0016fcc:	e3a0b000 	mov	fp, #0
e0016fd0:	e58d7068 	str	r7, [sp, #104]	; 0x68
e0016fd4:	e1a07000 	mov	r7, r0
e0016fd8:	ea00001f 	b	e001705c <doNormalTransfer+0x190>
e0016fdc:	e3570000 	cmp	r7, #0
e0016fe0:	0a000036 	beq	e00170c0 <doNormalTransfer+0x1f4>
e0016fe4:	e58d000c 	str	r0, [sp, #12]
e0016fe8:	e58d1010 	str	r1, [sp, #16]
e0016fec:	e28d300c 	add	r3, sp, #12
e0016ff0:	e893000c 	ldm	r3, {r2, r3}
e0016ff4:	e1a01008 	mov	r1, r8
e0016ff8:	e28d0020 	add	r0, sp, #32
e0016ffc:	ebfff544 	bl	e0014514 <deriveCap>
e0017000:	e59d3020 	ldr	r3, [sp, #32]
e0017004:	e3530000 	cmp	r3, #0
e0017008:	1a00002c 	bne	e00170c0 <doNormalTransfer+0x1f4>
e001700c:	e59d3024 	ldr	r3, [sp, #36]	; 0x24
e0017010:	e203200e 	and	r2, r3, #14
e0017014:	e352000e 	cmp	r2, #14
e0017018:	1203300f 	andne	r3, r3, #15
e001701c:	06ef3073 	uxtbeq	r3, r3
e0017020:	e3530000 	cmp	r3, #0
e0017024:	0a000025 	beq	e00170c0 <doNormalTransfer+0x1f4>
e0017028:	e1a03007 	mov	r3, r7
e001702c:	e1a02008 	mov	r2, r8
e0017030:	e28d1024 	add	r1, sp, #36	; 0x24
e0017034:	e8910003 	ldm	r1, {r0, r1}
e0017038:	ebfff067 	bl	e00131dc <cteInsert>
e001703c:	e3a07000 	mov	r7, #0
e0017040:	e28bb001 	add	fp, fp, #1
e0017044:	e35b0003 	cmp	fp, #3
e0017048:	0a00001c 	beq	e00170c0 <doNormalTransfer+0x1f4>
e001704c:	e28d3014 	add	r3, sp, #20
e0017050:	e793810b 	ldr	r8, [r3, fp, lsl #2]
e0017054:	e3580000 	cmp	r8, #0
e0017058:	0a000018 	beq	e00170c0 <doNormalTransfer+0x1f4>
e001705c:	e8980003 	ldm	r8, {r0, r1}
e0017060:	e28d300c 	add	r3, sp, #12
e0017064:	e8830003 	stm	r3, {r0, r1}
e0017068:	e200300e 	and	r3, r0, #14
e001706c:	e353000e 	cmp	r3, #14
e0017070:	1200300f 	andne	r3, r0, #15
e0017074:	06ef3070 	uxtbeq	r3, r0
e0017078:	e3530004 	cmp	r3, #4
e001707c:	1affffd6 	bne	e0016fdc <doNormalTransfer+0x110>
e0017080:	e3c1300f 	bic	r3, r1, #15
e0017084:	e15a0003 	cmp	sl, r3
e0017088:	1affffd3 	bne	e0016fdc <doNormalTransfer+0x110>
e001708c:	e59d3068 	ldr	r3, [sp, #104]	; 0x68
e0017090:	e083310b 	add	r3, r3, fp, lsl #2
e0017094:	e1a00220 	lsr	r0, r0, #4
e0017098:	e58301e8 	str	r0, [r3, #488]	; 0x1e8
e001709c:	e7e234d4 	ubfx	r3, r4, #9, #3
e00170a0:	e3a02001 	mov	r2, #1
e00170a4:	e1833b12 	orr	r3, r3, r2, lsl fp
e00170a8:	e1a03483 	lsl	r3, r3, #9
e00170ac:	e2033c0e 	and	r3, r3, #3584	; 0xe00
e00170b0:	e3c44c0e 	bic	r4, r4, #3584	; 0xe00
e00170b4:	e1834004 	orr	r4, r3, r4
e00170b8:	eaffffe0 	b	e0017040 <doNormalTransfer+0x174>
e00170bc:	e3a0b000 	mov	fp, #0
e00170c0:	e1a0338b 	lsl	r3, fp, #7
e00170c4:	e2033d06 	and	r3, r3, #384	; 0x180
e00170c8:	e1844003 	orr	r4, r4, r3
e00170cc:	eaffffa6 	b	e0016f6c <doNormalTransfer+0xa0>

e00170d0 <doIPCTransfer>:
e00170d0:	e92d43f0 	push	{r4, r5, r6, r7, r8, r9, lr}
e00170d4:	e24dd014 	sub	sp, sp, #20
e00170d8:	e1a04000 	mov	r4, r0
e00170dc:	e1a08001 	mov	r8, r1
e00170e0:	e1a06002 	mov	r6, r2
e00170e4:	e1a09003 	mov	r9, r3
e00170e8:	e59d5030 	ldr	r5, [sp, #48]	; 0x30
e00170ec:	e1a01005 	mov	r1, r5
e00170f0:	e3a00001 	mov	r0, #1
e00170f4:	ebffe6b5 	bl	e0010bd0 <lookupIPCBuffer>
e00170f8:	e1a07000 	mov	r7, r0
e00170fc:	e5943060 	ldr	r3, [r4, #96]	; 0x60
e0017100:	e3130007 	tst	r3, #7
e0017104:	1a00000c 	bne	e001713c <doIPCTransfer+0x6c>
e0017108:	e1a01004 	mov	r1, r4
e001710c:	e3a00000 	mov	r0, #0
e0017110:	ebffe6ae 	bl	e0010bd0 <lookupIPCBuffer>
e0017114:	e58d7008 	str	r7, [sp, #8]
e0017118:	e58d5004 	str	r5, [sp, #4]
e001711c:	e58d9000 	str	r9, [sp]
e0017120:	e1a03006 	mov	r3, r6
e0017124:	e1a02008 	mov	r2, r8
e0017128:	e1a01000 	mov	r1, r0
e001712c:	e1a00004 	mov	r0, r4
e0017130:	ebffff65 	bl	e0016ecc <doNormalTransfer>
e0017134:	e28dd014 	add	sp, sp, #20
e0017138:	e8bd83f0 	pop	{r4, r5, r6, r7, r8, r9, pc}
e001713c:	e1a03000 	mov	r3, r0
e0017140:	e1a02005 	mov	r2, r5
e0017144:	e1a01004 	mov	r1, r4
e0017148:	e1a00006 	mov	r0, r6
e001714c:	ebffefed 	bl	e0013108 <doFaultTransfer>
e0017150:	eafffff7 	b	e0017134 <doIPCTransfer+0x64>

e0017154 <doReplyTransfer>:
e0017154:	e92d4070 	push	{r4, r5, r6, lr}
e0017158:	e24dd008 	sub	sp, sp, #8
e001715c:	e1a05000 	mov	r5, r0
e0017160:	e1a04001 	mov	r4, r1
e0017164:	e1a06002 	mov	r6, r2
e0017168:	e5912060 	ldr	r2, [r1, #96]	; 0x60
e001716c:	e3120007 	tst	r2, #7
e0017170:	1a00000c 	bne	e00171a8 <doReplyTransfer+0x54>
e0017174:	e58d1000 	str	r1, [sp]
e0017178:	e3a02000 	mov	r2, #0
e001717c:	e1a01002 	mov	r1, r2
e0017180:	ebffffd2 	bl	e00170d0 <doIPCTransfer>
e0017184:	e1a00006 	mov	r0, r6
e0017188:	ebfffd5e 	bl	e0016708 <cteDeleteOne>
e001718c:	e3a01001 	mov	r1, #1
e0017190:	e1a00004 	mov	r0, r4
e0017194:	ebfff6db 	bl	e0014d08 <setThreadState>
e0017198:	e1a00004 	mov	r0, r4
e001719c:	ebfff7db 	bl	e0015110 <possibleSwitchTo>
e00171a0:	e28dd008 	add	sp, sp, #8
e00171a4:	e8bd8070 	pop	{r4, r5, r6, pc}
e00171a8:	e1a00006 	mov	r0, r6
e00171ac:	ebfffd55 	bl	e0016708 <cteDeleteOne>
e00171b0:	e1a01005 	mov	r1, r5
e00171b4:	e1a00004 	mov	r0, r4
e00171b8:	ebffe6cd 	bl	e0010cf4 <handleFaultReply>
e00171bc:	e3a03000 	mov	r3, #0
e00171c0:	e5843060 	str	r3, [r4, #96]	; 0x60
e00171c4:	e5843064 	str	r3, [r4, #100]	; 0x64
e00171c8:	e1500003 	cmp	r0, r3
e00171cc:	1a000003 	bne	e00171e0 <doReplyTransfer+0x8c>
e00171d0:	e3a01000 	mov	r1, #0
e00171d4:	e1a00004 	mov	r0, r4
e00171d8:	ebfff6ca 	bl	e0014d08 <setThreadState>
e00171dc:	eaffffef 	b	e00171a0 <doReplyTransfer+0x4c>
e00171e0:	e3a01002 	mov	r1, #2
e00171e4:	e1a00004 	mov	r0, r4
e00171e8:	ebfff6c6 	bl	e0014d08 <setThreadState>
e00171ec:	e1a00004 	mov	r0, r4
e00171f0:	ebfff7c6 	bl	e0015110 <possibleSwitchTo>
e00171f4:	eaffffe9 	b	e00171a0 <doReplyTransfer+0x4c>

e00171f8 <handleReply>:
e00171f8:	e3013b34 	movw	r3, #6964	; 0x1b34
e00171fc:	e34e3003 	movt	r3, #57347	; 0xe003
e0017200:	e5930000 	ldr	r0, [r3]
e0017204:	e3c03f7f 	bic	r3, r0, #508	; 0x1fc
e0017208:	e3c33003 	bic	r3, r3, #3
e001720c:	e2832030 	add	r2, r3, #48	; 0x30
e0017210:	e5931030 	ldr	r1, [r3, #48]	; 0x30
e0017214:	e201300e 	and	r3, r1, #14
e0017218:	e353000e 	cmp	r3, #14
e001721c:	1201300f 	andne	r3, r1, #15
e0017220:	06ef3071 	uxtbeq	r3, r1
e0017224:	e3530000 	cmp	r3, #0
e0017228:	012fff1e 	bxeq	lr
e001722c:	e92d4010 	push	{r4, lr}
e0017230:	e3530008 	cmp	r3, #8
e0017234:	1a000005 	bne	e0017250 <handleReply+0x58>
e0017238:	e3110010 	tst	r1, #16
e001723c:	1a000003 	bne	e0017250 <handleReply+0x58>
e0017240:	e7e032d1 	ubfx	r3, r1, #5, #1
e0017244:	e3c1103f 	bic	r1, r1, #63	; 0x3f
e0017248:	ebffffc1 	bl	e0017154 <doReplyTransfer>
e001724c:	e8bd8010 	pop	{r4, pc}
e0017250:	ebffe586 	bl	e0010870 <halt>

e0017254 <performInvocation_Reply>:
e0017254:	e92d4010 	push	{r4, lr}
e0017258:	e301cb34 	movw	ip, #6964	; 0x1b34
e001725c:	e34ec003 	movt	ip, #57347	; 0xe003
e0017260:	e1a03002 	mov	r3, r2
e0017264:	e1a02001 	mov	r2, r1
e0017268:	e1a01000 	mov	r1, r0
e001726c:	e59c0000 	ldr	r0, [ip]
e0017270:	ebffffb7 	bl	e0017154 <doReplyTransfer>
e0017274:	e3a00000 	mov	r0, #0
e0017278:	e8bd8010 	pop	{r4, pc}

e001727c <sendIPC>:
e001727c:	e92d47f0 	push	{r4, r5, r6, r7, r8, r9, sl, lr}
e0017280:	e24dd018 	sub	sp, sp, #24
e0017284:	e1a07001 	mov	r7, r1
e0017288:	e1a08002 	mov	r8, r2
e001728c:	e1a06003 	mov	r6, r3
e0017290:	e59d4040 	ldr	r4, [sp, #64]	; 0x40
e0017294:	e5943000 	ldr	r3, [r4]
e0017298:	e2032003 	and	r2, r3, #3
e001729c:	e3520001 	cmp	r2, #1
e00172a0:	9a000003 	bls	e00172b4 <sendIPC+0x38>
e00172a4:	e3520002 	cmp	r2, #2
e00172a8:	0a000032 	beq	e0017378 <sendIPC+0xfc>
e00172ac:	e28dd018 	add	sp, sp, #24
e00172b0:	e8bd87f0 	pop	{r4, r5, r6, r7, r8, r9, sl, pc}
e00172b4:	e3500000 	cmp	r0, #0
e00172b8:	0afffffb 	beq	e00172ac <sendIPC+0x30>
e00172bc:	e3c4300f 	bic	r3, r4, #15
e00172c0:	e3833004 	orr	r3, r3, #4
e00172c4:	e59d203c 	ldr	r2, [sp, #60]	; 0x3c
e00172c8:	e5823050 	str	r3, [r2, #80]	; 0x50
e00172cc:	e5923058 	ldr	r3, [r2, #88]	; 0x58
e00172d0:	e203300f 	and	r3, r3, #15
e00172d4:	e1833208 	orr	r3, r3, r8, lsl #4
e00172d8:	e1a06186 	lsl	r6, r6, #3
e00172dc:	e2066008 	and	r6, r6, #8
e00172e0:	e3c3300c 	bic	r3, r3, #12
e00172e4:	e1833006 	orr	r3, r3, r6
e00172e8:	e59d2038 	ldr	r2, [sp, #56]	; 0x38
e00172ec:	e1a02102 	lsl	r2, r2, #2
e00172f0:	e2022004 	and	r2, r2, #4
e00172f4:	e1833002 	orr	r3, r3, r2
e00172f8:	e3c33002 	bic	r3, r3, #2
e00172fc:	e1a07081 	lsl	r7, r1, #1
e0017300:	e2077002 	and	r7, r7, #2
e0017304:	e1837007 	orr	r7, r3, r7
e0017308:	e59d303c 	ldr	r3, [sp, #60]	; 0x3c
e001730c:	e5837058 	str	r7, [r3, #88]	; 0x58
e0017310:	e1a00003 	mov	r0, r3
e0017314:	ebfff669 	bl	e0014cc0 <scheduleTCB>
e0017318:	e5943004 	ldr	r3, [r4, #4]
e001731c:	e5942000 	ldr	r2, [r4]
e0017320:	e3c2200f 	bic	r2, r2, #15
e0017324:	e3d3300f 	bics	r3, r3, #15
e0017328:	159d103c 	ldrne	r1, [sp, #60]	; 0x3c
e001732c:	15821090 	strne	r1, [r2, #144]	; 0x90
e0017330:	059d303c 	ldreq	r3, [sp, #60]	; 0x3c
e0017334:	e59d103c 	ldr	r1, [sp, #60]	; 0x3c
e0017338:	e5812094 	str	r2, [r1, #148]	; 0x94
e001733c:	e3a02000 	mov	r2, #0
e0017340:	e5812090 	str	r2, [r1, #144]	; 0x90
e0017344:	e5941000 	ldr	r1, [r4]
e0017348:	e5942004 	ldr	r2, [r4, #4]
e001734c:	e202200f 	and	r2, r2, #15
e0017350:	e3c3300f 	bic	r3, r3, #15
e0017354:	e1823003 	orr	r3, r2, r3
e0017358:	e5843004 	str	r3, [r4, #4]
e001735c:	e59d303c 	ldr	r3, [sp, #60]	; 0x3c
e0017360:	e3c3300f 	bic	r3, r3, #15
e0017364:	e3833001 	orr	r3, r3, #1
e0017368:	e201200c 	and	r2, r1, #12
e001736c:	e1833002 	orr	r3, r3, r2
e0017370:	e5843000 	str	r3, [r4]
e0017374:	eaffffcc 	b	e00172ac <sendIPC+0x30>
e0017378:	e5945004 	ldr	r5, [r4, #4]
e001737c:	e3c5500f 	bic	r5, r5, #15
e0017380:	e58d5010 	str	r5, [sp, #16]
e0017384:	e3c3300f 	bic	r3, r3, #15
e0017388:	e58d3014 	str	r3, [sp, #20]
e001738c:	e28da008 	add	sl, sp, #8
e0017390:	e28d9010 	add	r9, sp, #16
e0017394:	e899000c 	ldm	r9, {r2, r3}
e0017398:	e1a01005 	mov	r1, r5
e001739c:	e1a0000a 	mov	r0, sl
e00173a0:	ebfff8ed 	bl	e001575c <tcbEPDequeue>
e00173a4:	e89a0003 	ldm	sl, {r0, r1}
e00173a8:	e8890003 	stm	r9, {r0, r1}
e00173ac:	e59d1010 	ldr	r1, [sp, #16]
e00173b0:	e5943004 	ldr	r3, [r4, #4]
e00173b4:	e203300f 	and	r3, r3, #15
e00173b8:	e3c1200f 	bic	r2, r1, #15
e00173bc:	e1833002 	orr	r3, r3, r2
e00173c0:	e5843004 	str	r3, [r4, #4]
e00173c4:	e5943000 	ldr	r3, [r4]
e00173c8:	e203300f 	and	r3, r3, #15
e00173cc:	e59d2014 	ldr	r2, [sp, #20]
e00173d0:	e3c2200f 	bic	r2, r2, #15
e00173d4:	e1833002 	orr	r3, r3, r2
e00173d8:	e3510000 	cmp	r1, #0
e00173dc:	03c33003 	biceq	r3, r3, #3
e00173e0:	e5843000 	str	r3, [r4]
e00173e4:	e58d5000 	str	r5, [sp]
e00173e8:	e1a03006 	mov	r3, r6
e00173ec:	e1a02008 	mov	r2, r8
e00173f0:	e1a01004 	mov	r1, r4
e00173f4:	e59d003c 	ldr	r0, [sp, #60]	; 0x3c
e00173f8:	ebffff34 	bl	e00170d0 <doIPCTransfer>
e00173fc:	e5954058 	ldr	r4, [r5, #88]	; 0x58
e0017400:	e3a01001 	mov	r1, #1
e0017404:	e1a00005 	mov	r0, r5
e0017408:	ebfff63e 	bl	e0014d08 <setThreadState>
e001740c:	e1a00005 	mov	r0, r5
e0017410:	ebfff73e 	bl	e0015110 <possibleSwitchTo>
e0017414:	e3570000 	cmp	r7, #0
e0017418:	0affffa3 	beq	e00172ac <sendIPC+0x30>
e001741c:	e59d3038 	ldr	r3, [sp, #56]	; 0x38
e0017420:	e1963003 	orrs	r3, r6, r3
e0017424:	1a000003 	bne	e0017438 <sendIPC+0x1bc>
e0017428:	e3a01000 	mov	r1, #0
e001742c:	e59d003c 	ldr	r0, [sp, #60]	; 0x3c
e0017430:	ebfff634 	bl	e0014d08 <setThreadState>
e0017434:	eaffff9c 	b	e00172ac <sendIPC+0x30>
e0017438:	e7e021d4 	ubfx	r2, r4, #3, #1
e001743c:	e1a01005 	mov	r1, r5
e0017440:	e59d003c 	ldr	r0, [sp, #60]	; 0x3c
e0017444:	ebfffe2d 	bl	e0016d00 <setupCallerCap>
e0017448:	eaffff97 	b	e00172ac <sendIPC+0x30>

e001744c <sendFaultIPC>:
e001744c:	e92d41f0 	push	{r4, r5, r6, r7, r8, lr}
e0017450:	e24dd020 	sub	sp, sp, #32
e0017454:	e1a05000 	mov	r5, r0
e0017458:	e3093024 	movw	r3, #36900	; 0x9024
e001745c:	e34e3002 	movt	r3, #57346	; 0xe002
e0017460:	e5937000 	ldr	r7, [r3]
e0017464:	e5938004 	ldr	r8, [r3, #4]
e0017468:	e5906080 	ldr	r6, [r0, #128]	; 0x80
e001746c:	e1a02006 	mov	r2, r6
e0017470:	e1a01000 	mov	r1, r0
e0017474:	e28d0014 	add	r0, sp, #20
e0017478:	ebffee74 	bl	e0012e50 <lookupCap>
e001747c:	e59d4014 	ldr	r4, [sp, #20]
e0017480:	e3540000 	cmp	r4, #0
e0017484:	1a000013 	bne	e00174d8 <sendFaultIPC+0x8c>
e0017488:	e59d2018 	ldr	r2, [sp, #24]
e001748c:	e202300e 	and	r3, r2, #14
e0017490:	e353000e 	cmp	r3, #14
e0017494:	1202300f 	andne	r3, r2, #15
e0017498:	06ef3072 	uxtbeq	r3, r2
e001749c:	e3530004 	cmp	r3, #4
e00174a0:	0a000012 	beq	e00174f0 <sendFaultIPC+0xa4>
e00174a4:	e3083000 	movw	r3, #32768	; 0x8000
e00174a8:	e34e3002 	movt	r3, #57346	; 0xe002
e00174ac:	e3a04001 	mov	r4, #1
e00174b0:	e5834000 	str	r4, [r3]
e00174b4:	e5836004 	str	r6, [r3, #4]
e00174b8:	e3093024 	movw	r3, #36900	; 0x9024
e00174bc:	e34e3002 	movt	r3, #57346	; 0xe002
e00174c0:	e5834000 	str	r4, [r3]
e00174c4:	e3a02000 	mov	r2, #0
e00174c8:	e5832004 	str	r2, [r3, #4]
e00174cc:	e1a00004 	mov	r0, r4
e00174d0:	e28dd020 	add	sp, sp, #32
e00174d4:	e8bd81f0 	pop	{r4, r5, r6, r7, r8, pc}
e00174d8:	e3083000 	movw	r3, #32768	; 0x8000
e00174dc:	e34e3002 	movt	r3, #57346	; 0xe002
e00174e0:	e3a04001 	mov	r4, #1
e00174e4:	e5834000 	str	r4, [r3]
e00174e8:	e5836004 	str	r6, [r3, #4]
e00174ec:	eafffff6 	b	e00174cc <sendFaultIPC+0x80>
e00174f0:	e59dc01c 	ldr	ip, [sp, #28]
e00174f4:	e31c0001 	tst	ip, #1
e00174f8:	0affffe9 	beq	e00174a4 <sendFaultIPC+0x58>
e00174fc:	e1a0312c 	lsr	r3, ip, #2
e0017500:	e18311ac 	orr	r1, r3, ip, lsr #3
e0017504:	e3110001 	tst	r1, #1
e0017508:	0affffe5 	beq	e00174a4 <sendFaultIPC+0x58>
e001750c:	e3081000 	movw	r1, #32768	; 0x8000
e0017510:	e34e1002 	movt	r1, #57346	; 0xe002
e0017514:	e285e060 	add	lr, r5, #96	; 0x60
e0017518:	e8910003 	ldm	r1, {r0, r1}
e001751c:	e88e0003 	stm	lr, {r0, r1}
e0017520:	e2000007 	and	r0, r0, #7
e0017524:	e3500001 	cmp	r0, #1
e0017528:	05857068 	streq	r7, [r5, #104]	; 0x68
e001752c:	0585806c 	streq	r8, [r5, #108]	; 0x6c
e0017530:	e3ccc00f 	bic	ip, ip, #15
e0017534:	e58dc008 	str	ip, [sp, #8]
e0017538:	e58d5004 	str	r5, [sp, #4]
e001753c:	e3a00001 	mov	r0, #1
e0017540:	e58d0000 	str	r0, [sp]
e0017544:	e0033000 	and	r3, r3, r0
e0017548:	e1a02222 	lsr	r2, r2, #4
e001754c:	e1a01000 	mov	r1, r0
e0017550:	ebffff49 	bl	e001727c <sendIPC>
e0017554:	eaffffdc 	b	e00174cc <sendFaultIPC+0x80>

e0017558 <handleFault>:
e0017558:	e92d4010 	push	{r4, lr}
e001755c:	e1a04000 	mov	r4, r0
e0017560:	ebffffb9 	bl	e001744c <sendFaultIPC>
e0017564:	e3500000 	cmp	r0, #0
e0017568:	08bd8010 	popeq	{r4, pc}
e001756c:	e3a01000 	mov	r1, #0
e0017570:	e1a00004 	mov	r0, r4
e0017574:	ebfff5e3 	bl	e0014d08 <setThreadState>
e0017578:	e8bd8010 	pop	{r4, pc}

e001757c <handleUnknownSyscall>:
e001757c:	e92d4010 	push	{r4, lr}
e0017580:	e3083000 	movw	r3, #32768	; 0x8000
e0017584:	e34e3002 	movt	r3, #57346	; 0xe002
e0017588:	e3a02002 	mov	r2, #2
e001758c:	e5832000 	str	r2, [r3]
e0017590:	e5830004 	str	r0, [r3, #4]
e0017594:	e3013b34 	movw	r3, #6964	; 0x1b34
e0017598:	e34e3003 	movt	r3, #57347	; 0xe003
e001759c:	e5930000 	ldr	r0, [r3]
e00175a0:	ebffffec 	bl	e0017558 <handleFault>
e00175a4:	ebfff7e2 	bl	e0015534 <schedule>
e00175a8:	ebfff63d 	bl	e0014ea4 <activateThread>
e00175ac:	e3a00000 	mov	r0, #0
e00175b0:	e8bd8010 	pop	{r4, pc}

e00175b4 <handleUserLevelFault>:
e00175b4:	e92d4010 	push	{r4, lr}
e00175b8:	e3083000 	movw	r3, #32768	; 0x8000
e00175bc:	e34e3002 	movt	r3, #57346	; 0xe002
e00175c0:	e1a01181 	lsl	r1, r1, #3
e00175c4:	e3811003 	orr	r1, r1, #3
e00175c8:	e5831000 	str	r1, [r3]
e00175cc:	e5830004 	str	r0, [r3, #4]
e00175d0:	e3013b34 	movw	r3, #6964	; 0x1b34
e00175d4:	e34e3003 	movt	r3, #57347	; 0xe003
e00175d8:	e5930000 	ldr	r0, [r3]
e00175dc:	ebffffdd 	bl	e0017558 <handleFault>
e00175e0:	ebfff7d3 	bl	e0015534 <schedule>
e00175e4:	ebfff62e 	bl	e0014ea4 <activateThread>
e00175e8:	e3a00000 	mov	r0, #0
e00175ec:	e8bd8010 	pop	{r4, pc}

e00175f0 <handleVMFaultEvent>:
e00175f0:	e92d4010 	push	{r4, lr}
e00175f4:	e3013b34 	movw	r3, #6964	; 0x1b34
e00175f8:	e34e3003 	movt	r3, #57347	; 0xe003
e00175fc:	e1a01000 	mov	r1, r0
e0017600:	e5930000 	ldr	r0, [r3]
e0017604:	ebffe7e2 	bl	e0011594 <handleVMFault>
e0017608:	e3500000 	cmp	r0, #0
e001760c:	1a000003 	bne	e0017620 <handleVMFaultEvent+0x30>
e0017610:	ebfff7c7 	bl	e0015534 <schedule>
e0017614:	ebfff622 	bl	e0014ea4 <activateThread>
e0017618:	e3a00000 	mov	r0, #0
e001761c:	e8bd8010 	pop	{r4, pc}
e0017620:	e3013b34 	movw	r3, #6964	; 0x1b34
e0017624:	e34e3003 	movt	r3, #57347	; 0xe003
e0017628:	e5930000 	ldr	r0, [r3]
e001762c:	ebffffc9 	bl	e0017558 <handleFault>
e0017630:	eafffff6 	b	e0017610 <handleVMFaultEvent+0x20>

e0017634 <performInvocation_Endpoint>:
e0017634:	e52de004 	push	{lr}		; (str lr, [sp, #-4]!)
e0017638:	e24dd014 	sub	sp, sp, #20
e001763c:	e58d0008 	str	r0, [sp, #8]
e0017640:	e3010b34 	movw	r0, #6964	; 0x1b34
e0017644:	e34e0003 	movt	r0, #57347	; 0xe003
e0017648:	e5900000 	ldr	r0, [r0]
e001764c:	e58d0004 	str	r0, [sp, #4]
e0017650:	e58d3000 	str	r3, [sp]
e0017654:	e1a03002 	mov	r3, r2
e0017658:	e1a02001 	mov	r2, r1
e001765c:	e59d101c 	ldr	r1, [sp, #28]
e0017660:	e59d0018 	ldr	r0, [sp, #24]
e0017664:	ebffff04 	bl	e001727c <sendIPC>
e0017668:	e3a00000 	mov	r0, #0
e001766c:	e28dd014 	add	sp, sp, #20
e0017670:	e49df004 	pop	{pc}		; (ldr pc, [sp], #4)

e0017674 <receiveIPC>:
e0017674:	e92d43f0 	push	{r4, r5, r6, r7, r8, r9, lr}
e0017678:	e24dd024 	sub	sp, sp, #36	; 0x24
e001767c:	e1a05000 	mov	r5, r0
e0017680:	e28d0010 	add	r0, sp, #16
e0017684:	e8800006 	stm	r0, {r1, r2}
e0017688:	e59d6014 	ldr	r6, [sp, #20]
e001768c:	e3c6400f 	bic	r4, r6, #15
e0017690:	e595005c 	ldr	r0, [r5, #92]	; 0x5c
e0017694:	e3500000 	cmp	r0, #0
e0017698:	0a000003 	beq	e00176ac <receiveIPC+0x38>
e001769c:	e5902000 	ldr	r2, [r0]
e00176a0:	e2022003 	and	r2, r2, #3
e00176a4:	e3520002 	cmp	r2, #2
e00176a8:	0a000008 	beq	e00176d0 <receiveIPC+0x5c>
e00176ac:	e5941000 	ldr	r1, [r4]
e00176b0:	e2012003 	and	r2, r1, #3
e00176b4:	e3520001 	cmp	r2, #1
e00176b8:	0a00002a 	beq	e0017768 <receiveIPC+0xf4>
e00176bc:	3a000006 	bcc	e00176dc <receiveIPC+0x68>
e00176c0:	e3520002 	cmp	r2, #2
e00176c4:	0a000004 	beq	e00176dc <receiveIPC+0x68>
e00176c8:	e28dd024 	add	sp, sp, #36	; 0x24
e00176cc:	e8bd83f0 	pop	{r4, r5, r6, r7, r8, r9, pc}
e00176d0:	e1a01005 	mov	r1, r5
e00176d4:	ebfff0c0 	bl	e00139dc <completeSignal>
e00176d8:	eafffffa 	b	e00176c8 <receiveIPC+0x54>
e00176dc:	e3530000 	cmp	r3, #0
e00176e0:	03a03000 	moveq	r3, #0
e00176e4:	05853000 	streq	r3, [r5]
e00176e8:	0afffff6 	beq	e00176c8 <receiveIPC+0x54>
e00176ec:	e3843003 	orr	r3, r4, #3
e00176f0:	e5853050 	str	r3, [r5, #80]	; 0x50
e00176f4:	e1a06086 	lsl	r6, r6, #1
e00176f8:	e2066008 	and	r6, r6, #8
e00176fc:	e5953058 	ldr	r3, [r5, #88]	; 0x58
e0017700:	e3c33008 	bic	r3, r3, #8
e0017704:	e1866003 	orr	r6, r6, r3
e0017708:	e5856058 	str	r6, [r5, #88]	; 0x58
e001770c:	e1a00005 	mov	r0, r5
e0017710:	ebfff56a 	bl	e0014cc0 <scheduleTCB>
e0017714:	e5943004 	ldr	r3, [r4, #4]
e0017718:	e5942000 	ldr	r2, [r4]
e001771c:	e3c2200f 	bic	r2, r2, #15
e0017720:	e3d3300f 	bics	r3, r3, #15
e0017724:	15825090 	strne	r5, [r2, #144]	; 0x90
e0017728:	01a03005 	moveq	r3, r5
e001772c:	e5852094 	str	r2, [r5, #148]	; 0x94
e0017730:	e3a02000 	mov	r2, #0
e0017734:	e5852090 	str	r2, [r5, #144]	; 0x90
e0017738:	e5942000 	ldr	r2, [r4]
e001773c:	e5941004 	ldr	r1, [r4, #4]
e0017740:	e201100f 	and	r1, r1, #15
e0017744:	e3c3300f 	bic	r3, r3, #15
e0017748:	e1813003 	orr	r3, r1, r3
e001774c:	e5843004 	str	r3, [r4, #4]
e0017750:	e202300c 	and	r3, r2, #12
e0017754:	e3833002 	orr	r3, r3, #2
e0017758:	e3c5500f 	bic	r5, r5, #15
e001775c:	e1835005 	orr	r5, r3, r5
e0017760:	e5845000 	str	r5, [r4]
e0017764:	eaffffd7 	b	e00176c8 <receiveIPC+0x54>
e0017768:	e5947004 	ldr	r7, [r4, #4]
e001776c:	e3c7700f 	bic	r7, r7, #15
e0017770:	e58d7018 	str	r7, [sp, #24]
e0017774:	e3c1100f 	bic	r1, r1, #15
e0017778:	e58d101c 	str	r1, [sp, #28]
e001777c:	e28d9008 	add	r9, sp, #8
e0017780:	e28d8018 	add	r8, sp, #24
e0017784:	e898000c 	ldm	r8, {r2, r3}
e0017788:	e1a01007 	mov	r1, r7
e001778c:	e1a00009 	mov	r0, r9
e0017790:	ebfff7f1 	bl	e001575c <tcbEPDequeue>
e0017794:	e8990003 	ldm	r9, {r0, r1}
e0017798:	e8880003 	stm	r8, {r0, r1}
e001779c:	e59d1018 	ldr	r1, [sp, #24]
e00177a0:	e5943004 	ldr	r3, [r4, #4]
e00177a4:	e203300f 	and	r3, r3, #15
e00177a8:	e3c1200f 	bic	r2, r1, #15
e00177ac:	e1833002 	orr	r3, r3, r2
e00177b0:	e5843004 	str	r3, [r4, #4]
e00177b4:	e5943000 	ldr	r3, [r4]
e00177b8:	e203300f 	and	r3, r3, #15
e00177bc:	e59d201c 	ldr	r2, [sp, #28]
e00177c0:	e3c2200f 	bic	r2, r2, #15
e00177c4:	e1833002 	orr	r3, r3, r2
e00177c8:	e3510000 	cmp	r1, #0
e00177cc:	03c33003 	biceq	r3, r3, #3
e00177d0:	e5843000 	str	r3, [r4]
e00177d4:	e5979058 	ldr	r9, [r7, #88]	; 0x58
e00177d8:	e1a081a9 	lsr	r8, r9, #3
e00177dc:	e58d5000 	str	r5, [sp]
e00177e0:	e2083001 	and	r3, r8, #1
e00177e4:	e1a02229 	lsr	r2, r9, #4
e00177e8:	e1a01004 	mov	r1, r4
e00177ec:	e1a00007 	mov	r0, r7
e00177f0:	ebfffe36 	bl	e00170d0 <doIPCTransfer>
e00177f4:	e5973058 	ldr	r3, [r7, #88]	; 0x58
e00177f8:	e3130002 	tst	r3, #2
e00177fc:	0a00000b 	beq	e0017830 <receiveIPC+0x1bc>
e0017800:	e1888129 	orr	r8, r8, r9, lsr #2
e0017804:	e3180001 	tst	r8, #1
e0017808:	0a000004 	beq	e0017820 <receiveIPC+0x1ac>
e001780c:	e7e02156 	ubfx	r2, r6, #2, #1
e0017810:	e1a01005 	mov	r1, r5
e0017814:	e1a00007 	mov	r0, r7
e0017818:	ebfffd38 	bl	e0016d00 <setupCallerCap>
e001781c:	eaffffa9 	b	e00176c8 <receiveIPC+0x54>
e0017820:	e3a01000 	mov	r1, #0
e0017824:	e1a00007 	mov	r0, r7
e0017828:	ebfff536 	bl	e0014d08 <setThreadState>
e001782c:	eaffffa5 	b	e00176c8 <receiveIPC+0x54>
e0017830:	e3a01001 	mov	r1, #1
e0017834:	e1a00007 	mov	r0, r7
e0017838:	ebfff532 	bl	e0014d08 <setThreadState>
e001783c:	e1a00007 	mov	r0, r7
e0017840:	ebfff632 	bl	e0015110 <possibleSwitchTo>
e0017844:	eaffff9f 	b	e00176c8 <receiveIPC+0x54>

e0017848 <handleRecv>:
e0017848:	e92d4030 	push	{r4, r5, lr}
e001784c:	e24dd014 	sub	sp, sp, #20
e0017850:	e1a05000 	mov	r5, r0
e0017854:	e3013b34 	movw	r3, #6964	; 0x1b34
e0017858:	e34e3003 	movt	r3, #57347	; 0xe003
e001785c:	e5931000 	ldr	r1, [r3]
e0017860:	e5914000 	ldr	r4, [r1]
e0017864:	e1a02004 	mov	r2, r4
e0017868:	e28d0004 	add	r0, sp, #4
e001786c:	ebffed77 	bl	e0012e50 <lookupCap>
e0017870:	e59d100c 	ldr	r1, [sp, #12]
e0017874:	e59d3004 	ldr	r3, [sp, #4]
e0017878:	e3530000 	cmp	r3, #0
e001787c:	1a000019 	bne	e00178e8 <handleRecv+0xa0>
e0017880:	e59d3008 	ldr	r3, [sp, #8]
e0017884:	e203200e 	and	r2, r3, #14
e0017888:	e352000e 	cmp	r2, #14
e001788c:	1203200f 	andne	r2, r3, #15
e0017890:	06ef2073 	uxtbeq	r2, r3
e0017894:	e3520004 	cmp	r2, #4
e0017898:	0a00001c 	beq	e0017910 <handleRecv+0xc8>
e001789c:	e3520006 	cmp	r2, #6
e00178a0:	0a000036 	beq	e0017980 <handleRecv+0x138>
e00178a4:	e3093024 	movw	r3, #36900	; 0x9024
e00178a8:	e34e3002 	movt	r3, #57346	; 0xe002
e00178ac:	e3a02001 	mov	r2, #1
e00178b0:	e5832000 	str	r2, [r3]
e00178b4:	e3a02000 	mov	r2, #0
e00178b8:	e5832004 	str	r2, [r3, #4]
e00178bc:	e3083000 	movw	r3, #32768	; 0x8000
e00178c0:	e34e3002 	movt	r3, #57346	; 0xe002
e00178c4:	e3a02106 	mov	r2, #-2147483647	; 0x80000001
e00178c8:	e5832000 	str	r2, [r3]
e00178cc:	e5834004 	str	r4, [r3, #4]
e00178d0:	e3013b34 	movw	r3, #6964	; 0x1b34
e00178d4:	e34e3003 	movt	r3, #57347	; 0xe003
e00178d8:	e5930000 	ldr	r0, [r3]
e00178dc:	ebffff1d 	bl	e0017558 <handleFault>
e00178e0:	e28dd014 	add	sp, sp, #20
e00178e4:	e8bd8030 	pop	{r4, r5, pc}
e00178e8:	e3083000 	movw	r3, #32768	; 0x8000
e00178ec:	e34e3002 	movt	r3, #57346	; 0xe002
e00178f0:	e3a02106 	mov	r2, #-2147483647	; 0x80000001
e00178f4:	e5832000 	str	r2, [r3]
e00178f8:	e5834004 	str	r4, [r3, #4]
e00178fc:	e3013b34 	movw	r3, #6964	; 0x1b34
e0017900:	e34e3003 	movt	r3, #57347	; 0xe003
e0017904:	e5930000 	ldr	r0, [r3]
e0017908:	ebffff12 	bl	e0017558 <handleFault>
e001790c:	eafffff3 	b	e00178e0 <handleRecv+0x98>
e0017910:	e3110002 	tst	r1, #2
e0017914:	0a000009 	beq	e0017940 <handleRecv+0xf8>
e0017918:	e3014b34 	movw	r4, #6964	; 0x1b34
e001791c:	e34e4003 	movt	r4, #57347	; 0xe003
e0017920:	e5940000 	ldr	r0, [r4]
e0017924:	ebfffd0f 	bl	e0016d68 <deleteCallerCap>
e0017928:	e1a03005 	mov	r3, r5
e001792c:	e28d2010 	add	r2, sp, #16
e0017930:	e9120006 	ldmdb	r2, {r1, r2}
e0017934:	e5940000 	ldr	r0, [r4]
e0017938:	ebffff4d 	bl	e0017674 <receiveIPC>
e001793c:	eaffffe7 	b	e00178e0 <handleRecv+0x98>
e0017940:	e3093024 	movw	r3, #36900	; 0x9024
e0017944:	e34e3002 	movt	r3, #57346	; 0xe002
e0017948:	e3a02001 	mov	r2, #1
e001794c:	e5832000 	str	r2, [r3]
e0017950:	e3a02000 	mov	r2, #0
e0017954:	e5832004 	str	r2, [r3, #4]
e0017958:	e3083000 	movw	r3, #32768	; 0x8000
e001795c:	e34e3002 	movt	r3, #57346	; 0xe002
e0017960:	e3a02106 	mov	r2, #-2147483647	; 0x80000001
e0017964:	e5832000 	str	r2, [r3]
e0017968:	e5834004 	str	r4, [r3, #4]
e001796c:	e3013b34 	movw	r3, #6964	; 0x1b34
e0017970:	e34e3003 	movt	r3, #57347	; 0xe003
e0017974:	e5930000 	ldr	r0, [r3]
e0017978:	ebfffef6 	bl	e0017558 <handleFault>
e001797c:	eaffffd7 	b	e00178e0 <handleRecv+0x98>
e0017980:	e3c3300f 	bic	r3, r3, #15
e0017984:	e593300c 	ldr	r3, [r3, #12]
e0017988:	e3c3300f 	bic	r3, r3, #15
e001798c:	e3110002 	tst	r1, #2
e0017990:	0a00000e 	beq	e00179d0 <handleRecv+0x188>
e0017994:	e3530000 	cmp	r3, #0
e0017998:	1a000007 	bne	e00179bc <handleRecv+0x174>
e001799c:	e3010b34 	movw	r0, #6964	; 0x1b34
e00179a0:	e34e0003 	movt	r0, #57347	; 0xe003
e00179a4:	e1a03005 	mov	r3, r5
e00179a8:	e28d2010 	add	r2, sp, #16
e00179ac:	e9120006 	ldmdb	r2, {r1, r2}
e00179b0:	e5900000 	ldr	r0, [r0]
e00179b4:	ebfff5a4 	bl	e001504c <receiveSignal>
e00179b8:	eaffffc8 	b	e00178e0 <handleRecv+0x98>
e00179bc:	e3012b34 	movw	r2, #6964	; 0x1b34
e00179c0:	e34e2003 	movt	r2, #57347	; 0xe003
e00179c4:	e5922000 	ldr	r2, [r2]
e00179c8:	e1520003 	cmp	r2, r3
e00179cc:	0afffff2 	beq	e001799c <handleRecv+0x154>
e00179d0:	e3093024 	movw	r3, #36900	; 0x9024
e00179d4:	e34e3002 	movt	r3, #57346	; 0xe002
e00179d8:	e3a02001 	mov	r2, #1
e00179dc:	e5832000 	str	r2, [r3]
e00179e0:	e3a02000 	mov	r2, #0
e00179e4:	e5832004 	str	r2, [r3, #4]
e00179e8:	e3083000 	movw	r3, #32768	; 0x8000
e00179ec:	e34e3002 	movt	r3, #57346	; 0xe002
e00179f0:	e3a02106 	mov	r2, #-2147483647	; 0x80000001
e00179f4:	e5832000 	str	r2, [r3]
e00179f8:	e5834004 	str	r4, [r3, #4]
e00179fc:	e3013b34 	movw	r3, #6964	; 0x1b34
e0017a00:	e34e3003 	movt	r3, #57347	; 0xe003
e0017a04:	e5930000 	ldr	r0, [r3]
e0017a08:	ebfffed2 	bl	e0017558 <handleFault>
e0017a0c:	eaffffb3 	b	e00178e0 <handleRecv+0x98>

e0017a10 <decodeDomainInvocation>:
e0017a10:	e24dd008 	sub	sp, sp, #8
e0017a14:	e92d4070 	push	{r4, r5, r6, lr}
e0017a18:	e28dc00c 	add	ip, sp, #12
e0017a1c:	e98c000c 	stmib	ip, {r2, r3}
e0017a20:	e350001d 	cmp	r0, #29
e0017a24:	13093030 	movwne	r3, #36912	; 0x9030
e0017a28:	134e3002 	movtne	r3, #57346	; 0xe002
e0017a2c:	13a00003 	movne	r0, #3
e0017a30:	15830018 	strne	r0, [r3, #24]
e0017a34:	1a000017 	bne	e0017a98 <decodeDomainInvocation+0x88>
e0017a38:	e3510000 	cmp	r1, #0
e0017a3c:	0a000018 	beq	e0017aa4 <decodeDomainInvocation+0x94>
e0017a40:	e3013b34 	movw	r3, #6964	; 0x1b34
e0017a44:	e34e3003 	movt	r3, #57347	; 0xe003
e0017a48:	e5930000 	ldr	r0, [r3]
e0017a4c:	e5904008 	ldr	r4, [r0, #8]
e0017a50:	e354000f 	cmp	r4, #15
e0017a54:	8a000018 	bhi	e0017abc <decodeDomainInvocation+0xac>
e0017a58:	e59d3010 	ldr	r3, [sp, #16]
e0017a5c:	e3530000 	cmp	r3, #0
e0017a60:	0a00001d 	beq	e0017adc <decodeDomainInvocation+0xcc>
e0017a64:	e5935000 	ldr	r5, [r3]
e0017a68:	e205300e 	and	r3, r5, #14
e0017a6c:	e353000e 	cmp	r3, #14
e0017a70:	1205300f 	andne	r3, r5, #15
e0017a74:	06ef3075 	uxtbeq	r3, r5
e0017a78:	e353000c 	cmp	r3, #12
e0017a7c:	1a00001c 	bne	e0017af4 <decodeDomainInvocation+0xe4>
e0017a80:	e3a01002 	mov	r1, #2
e0017a84:	ebfff49f 	bl	e0014d08 <setThreadState>
e0017a88:	e1a01004 	mov	r1, r4
e0017a8c:	e3c5000f 	bic	r0, r5, #15
e0017a90:	ebfff700 	bl	e0015698 <setDomain>
e0017a94:	e3a00000 	mov	r0, #0
e0017a98:	e8bd4070 	pop	{r4, r5, r6, lr}
e0017a9c:	e28dd008 	add	sp, sp, #8
e0017aa0:	e12fff1e 	bx	lr
e0017aa4:	e3093030 	movw	r3, #36912	; 0x9030
e0017aa8:	e34e3002 	movt	r3, #57346	; 0xe002
e0017aac:	e3a02007 	mov	r2, #7
e0017ab0:	e5832018 	str	r2, [r3, #24]
e0017ab4:	e3a00003 	mov	r0, #3
e0017ab8:	eafffff6 	b	e0017a98 <decodeDomainInvocation+0x88>
e0017abc:	e3093030 	movw	r3, #36912	; 0x9030
e0017ac0:	e34e3002 	movt	r3, #57346	; 0xe002
e0017ac4:	e3a02001 	mov	r2, #1
e0017ac8:	e5832018 	str	r2, [r3, #24]
e0017acc:	e3a02000 	mov	r2, #0
e0017ad0:	e5832000 	str	r2, [r3]
e0017ad4:	e3a00003 	mov	r0, #3
e0017ad8:	eaffffee 	b	e0017a98 <decodeDomainInvocation+0x88>
e0017adc:	e3093030 	movw	r3, #36912	; 0x9030
e0017ae0:	e34e3002 	movt	r3, #57346	; 0xe002
e0017ae4:	e3a02007 	mov	r2, #7
e0017ae8:	e5832018 	str	r2, [r3, #24]
e0017aec:	e3a00003 	mov	r0, #3
e0017af0:	eaffffe8 	b	e0017a98 <decodeDomainInvocation+0x88>
e0017af4:	e3093030 	movw	r3, #36912	; 0x9030
e0017af8:	e34e3002 	movt	r3, #57346	; 0xe002
e0017afc:	e3a02001 	mov	r2, #1
e0017b00:	e5832018 	str	r2, [r3, #24]
e0017b04:	e5832000 	str	r2, [r3]
e0017b08:	e3a00003 	mov	r0, #3
e0017b0c:	eaffffe1 	b	e0017a98 <decodeDomainInvocation+0x88>

e0017b10 <invokeTCB_Suspend>:
e0017b10:	e92d4010 	push	{r4, lr}
e0017b14:	ebfff7d5 	bl	e0015a70 <suspend>
e0017b18:	e3a00000 	mov	r0, #0
e0017b1c:	e8bd8010 	pop	{r4, pc}

e0017b20 <invokeTCB_Resume>:
e0017b20:	e92d4010 	push	{r4, lr}
e0017b24:	ebfffb82 	bl	e0016934 <restart>
e0017b28:	e3a00000 	mov	r0, #0
e0017b2c:	e8bd8010 	pop	{r4, pc}

e0017b30 <invokeTCB_ThreadControl>:
e0017b30:	e92d41f0 	push	{r4, r5, r6, r7, r8, lr}
e0017b34:	e24dd008 	sub	sp, sp, #8
e0017b38:	e1a05000 	mov	r5, r0
e0017b3c:	e1a08001 	mov	r8, r1
e0017b40:	e59d404c 	ldr	r4, [sp, #76]	; 0x4c
e0017b44:	e3c0100f 	bic	r1, r0, #15
e0017b48:	e381100c 	orr	r1, r1, #12
e0017b4c:	e58d1000 	str	r1, [sp]
e0017b50:	e3a01000 	mov	r1, #0
e0017b54:	e58d1004 	str	r1, [sp, #4]
e0017b58:	e2146004 	ands	r6, r4, #4
e0017b5c:	15802080 	strne	r2, [r0, #128]	; 0x80
e0017b60:	e3140008 	tst	r4, #8
e0017b64:	15803074 	strne	r3, [r0, #116]	; 0x74
e0017b68:	e3140001 	tst	r4, #1
e0017b6c:	1a000007 	bne	e0017b90 <invokeTCB_ThreadControl+0x60>
e0017b70:	e3560000 	cmp	r6, #0
e0017b74:	1a000008 	bne	e0017b9c <invokeTCB_ThreadControl+0x6c>
e0017b78:	e3140002 	tst	r4, #2
e0017b7c:	03a06000 	moveq	r6, #0
e0017b80:	1a000038 	bne	e0017c68 <invokeTCB_ThreadControl+0x138>
e0017b84:	e1a00006 	mov	r0, r6
e0017b88:	e28dd008 	add	sp, sp, #8
e0017b8c:	e8bd81f0 	pop	{r4, r5, r6, r7, r8, pc}
e0017b90:	e59d1020 	ldr	r1, [sp, #32]
e0017b94:	ebfff6d3 	bl	e00156e8 <setPriority>
e0017b98:	eafffff4 	b	e0017b70 <invokeTCB_ThreadControl+0x40>
e0017b9c:	e3c57f7f 	bic	r7, r5, #508	; 0x1fc
e0017ba0:	e3c77003 	bic	r7, r7, #3
e0017ba4:	e3a01001 	mov	r1, #1
e0017ba8:	e1a00007 	mov	r0, r7
e0017bac:	ebfff85c 	bl	e0015d24 <cteDelete>
e0017bb0:	e2506000 	subs	r6, r0, #0
e0017bb4:	1afffff2 	bne	e0017b84 <invokeTCB_ThreadControl+0x54>
e0017bb8:	e59d302c 	ldr	r3, [sp, #44]	; 0x2c
e0017bbc:	e893000c 	ldm	r3, {r2, r3}
e0017bc0:	e28d1024 	add	r1, sp, #36	; 0x24
e0017bc4:	e8910003 	ldm	r1, {r0, r1}
e0017bc8:	ebfff27d 	bl	e00145c4 <sameObjectAs>
e0017bcc:	e3500000 	cmp	r0, #0
e0017bd0:	0a000005 	beq	e0017bec <invokeTCB_ThreadControl+0xbc>
e0017bd4:	e898000c 	ldm	r8, {r2, r3}
e0017bd8:	e28d1008 	add	r1, sp, #8
e0017bdc:	e9110003 	ldmdb	r1, {r0, r1}
e0017be0:	ebfff277 	bl	e00145c4 <sameObjectAs>
e0017be4:	e3500000 	cmp	r0, #0
e0017be8:	1a000018 	bne	e0017c50 <invokeTCB_ThreadControl+0x120>
e0017bec:	e2877010 	add	r7, r7, #16
e0017bf0:	e3a01001 	mov	r1, #1
e0017bf4:	e1a00007 	mov	r0, r7
e0017bf8:	ebfff849 	bl	e0015d24 <cteDelete>
e0017bfc:	e2506000 	subs	r6, r0, #0
e0017c00:	1affffdf 	bne	e0017b84 <invokeTCB_ThreadControl+0x54>
e0017c04:	e59d3038 	ldr	r3, [sp, #56]	; 0x38
e0017c08:	e893000c 	ldm	r3, {r2, r3}
e0017c0c:	e28d1030 	add	r1, sp, #48	; 0x30
e0017c10:	e8910003 	ldm	r1, {r0, r1}
e0017c14:	ebfff26a 	bl	e00145c4 <sameObjectAs>
e0017c18:	e3500000 	cmp	r0, #0
e0017c1c:	0affffd5 	beq	e0017b78 <invokeTCB_ThreadControl+0x48>
e0017c20:	e898000c 	ldm	r8, {r2, r3}
e0017c24:	e28d1008 	add	r1, sp, #8
e0017c28:	e9110003 	ldmdb	r1, {r0, r1}
e0017c2c:	ebfff264 	bl	e00145c4 <sameObjectAs>
e0017c30:	e3500000 	cmp	r0, #0
e0017c34:	0affffcf 	beq	e0017b78 <invokeTCB_ThreadControl+0x48>
e0017c38:	e1a03007 	mov	r3, r7
e0017c3c:	e59d2038 	ldr	r2, [sp, #56]	; 0x38
e0017c40:	e28d1030 	add	r1, sp, #48	; 0x30
e0017c44:	e8910003 	ldm	r1, {r0, r1}
e0017c48:	ebffed63 	bl	e00131dc <cteInsert>
e0017c4c:	eaffffc9 	b	e0017b78 <invokeTCB_ThreadControl+0x48>
e0017c50:	e1a03007 	mov	r3, r7
e0017c54:	e59d202c 	ldr	r2, [sp, #44]	; 0x2c
e0017c58:	e28d1024 	add	r1, sp, #36	; 0x24
e0017c5c:	e8910003 	ldm	r1, {r0, r1}
e0017c60:	ebffed5d 	bl	e00131dc <cteInsert>
e0017c64:	eaffffe0 	b	e0017bec <invokeTCB_ThreadControl+0xbc>
e0017c68:	e3c50f7f 	bic	r0, r5, #508	; 0x1fc
e0017c6c:	e3c00003 	bic	r0, r0, #3
e0017c70:	e2804040 	add	r4, r0, #64	; 0x40
e0017c74:	e3a01001 	mov	r1, #1
e0017c78:	e1a00004 	mov	r0, r4
e0017c7c:	ebfff828 	bl	e0015d24 <cteDelete>
e0017c80:	e2506000 	subs	r6, r0, #0
e0017c84:	1affffbe 	bne	e0017b84 <invokeTCB_ThreadControl+0x54>
e0017c88:	e59d303c 	ldr	r3, [sp, #60]	; 0x3c
e0017c8c:	e5853084 	str	r3, [r5, #132]	; 0x84
e0017c90:	e585304c 	str	r3, [r5, #76]	; 0x4c
e0017c94:	e59d3048 	ldr	r3, [sp, #72]	; 0x48
e0017c98:	e3530000 	cmp	r3, #0
e0017c9c:	0a00000b 	beq	e0017cd0 <invokeTCB_ThreadControl+0x1a0>
e0017ca0:	e893000c 	ldm	r3, {r2, r3}
e0017ca4:	e28d1040 	add	r1, sp, #64	; 0x40
e0017ca8:	e8910003 	ldm	r1, {r0, r1}
e0017cac:	ebfff244 	bl	e00145c4 <sameObjectAs>
e0017cb0:	e3500000 	cmp	r0, #0
e0017cb4:	0a000005 	beq	e0017cd0 <invokeTCB_ThreadControl+0x1a0>
e0017cb8:	e898000c 	ldm	r8, {r2, r3}
e0017cbc:	e28d1008 	add	r1, sp, #8
e0017cc0:	e9110003 	ldmdb	r1, {r0, r1}
e0017cc4:	ebfff23e 	bl	e00145c4 <sameObjectAs>
e0017cc8:	e3500000 	cmp	r0, #0
e0017ccc:	1a000006 	bne	e0017cec <invokeTCB_ThreadControl+0x1bc>
e0017cd0:	e3013b34 	movw	r3, #6964	; 0x1b34
e0017cd4:	e34e3003 	movt	r3, #57347	; 0xe003
e0017cd8:	e5933000 	ldr	r3, [r3]
e0017cdc:	e1530005 	cmp	r3, r5
e0017ce0:	1affffa7 	bne	e0017b84 <invokeTCB_ThreadControl+0x54>
e0017ce4:	ebfff3e4 	bl	e0014c7c <rescheduleRequired>
e0017ce8:	eaffffa5 	b	e0017b84 <invokeTCB_ThreadControl+0x54>
e0017cec:	e1a03004 	mov	r3, r4
e0017cf0:	e59d2048 	ldr	r2, [sp, #72]	; 0x48
e0017cf4:	e28d1040 	add	r1, sp, #64	; 0x40
e0017cf8:	e8910003 	ldm	r1, {r0, r1}
e0017cfc:	ebffed36 	bl	e00131dc <cteInsert>
e0017d00:	eafffff2 	b	e0017cd0 <invokeTCB_ThreadControl+0x1a0>

e0017d04 <decodeTCBConfigure>:
e0017d04:	e92d4ff0 	push	{r4, r5, r6, r7, r8, r9, sl, fp, lr}
e0017d08:	e24dd074 	sub	sp, sp, #116	; 0x74
e0017d0c:	e28dc040 	add	ip, sp, #64	; 0x40
e0017d10:	e88c0003 	stm	ip, {r0, r1}
e0017d14:	e59d5098 	ldr	r5, [sp, #152]	; 0x98
e0017d18:	e59d609c 	ldr	r6, [sp, #156]	; 0x9c
e0017d1c:	e59d40a0 	ldr	r4, [sp, #160]	; 0xa0
e0017d20:	e16f1f16 	clz	r1, r6
e0017d24:	e1a012a1 	lsr	r1, r1, #5
e0017d28:	e3550000 	cmp	r5, #0
e0017d2c:	03a01001 	moveq	r1, #1
e0017d30:	e3540000 	cmp	r4, #0
e0017d34:	03a01001 	moveq	r1, #1
e0017d38:	e3520003 	cmp	r2, #3
e0017d3c:	93811001 	orrls	r1, r1, #1
e0017d40:	e3510000 	cmp	r1, #0
e0017d44:	0a000006 	beq	e0017d64 <decodeTCBConfigure+0x60>
e0017d48:	e3093030 	movw	r3, #36912	; 0x9030
e0017d4c:	e34e3002 	movt	r3, #57346	; 0xe002
e0017d50:	e3a02007 	mov	r2, #7
e0017d54:	e5832018 	str	r2, [r3, #24]
e0017d58:	e3a00003 	mov	r0, #3
e0017d5c:	e28dd074 	add	sp, sp, #116	; 0x74
e0017d60:	e8bd8ff0 	pop	{r4, r5, r6, r7, r8, r9, sl, fp, pc}
e0017d64:	e58d303c 	str	r3, [sp, #60]	; 0x3c
e0017d68:	e3013b34 	movw	r3, #6964	; 0x1b34
e0017d6c:	e34e3003 	movt	r3, #57347	; 0xe003
e0017d70:	e5933000 	ldr	r3, [r3]
e0017d74:	e5932008 	ldr	r2, [r3, #8]
e0017d78:	e58d2038 	str	r2, [sp, #56]	; 0x38
e0017d7c:	e593a00c 	ldr	sl, [r3, #12]
e0017d80:	e5939010 	ldr	r9, [r3, #16]
e0017d84:	e5938014 	ldr	r8, [r3, #20]
e0017d88:	e28d3060 	add	r3, sp, #96	; 0x60
e0017d8c:	e8950003 	ldm	r5, {r0, r1}
e0017d90:	e8830003 	stm	r3, {r0, r1}
e0017d94:	e58d0034 	str	r0, [sp, #52]	; 0x34
e0017d98:	e28d3058 	add	r3, sp, #88	; 0x58
e0017d9c:	e8960003 	ldm	r6, {r0, r1}
e0017da0:	e8830003 	stm	r3, {r0, r1}
e0017da4:	e8940003 	ldm	r4, {r0, r1}
e0017da8:	e28d3070 	add	r3, sp, #112	; 0x70
e0017dac:	e9030003 	stmdb	r3, {r0, r1}
e0017db0:	e3580000 	cmp	r8, #0
e0017db4:	03a04000 	moveq	r4, #0
e0017db8:	1a000062 	bne	e0017f48 <decodeTCBConfigure+0x244>
e0017dbc:	e59db040 	ldr	fp, [sp, #64]	; 0x40
e0017dc0:	e3cb7f7f 	bic	r7, fp, #508	; 0x1fc
e0017dc4:	e3c77003 	bic	r7, r7, #3
e0017dc8:	e1a00007 	mov	r0, r7
e0017dcc:	ebfff240 	bl	e00146d4 <slotCapLongRunningDelete>
e0017dd0:	e3500000 	cmp	r0, #0
e0017dd4:	1a00006c 	bne	e0017f8c <decodeTCBConfigure+0x288>
e0017dd8:	e2870010 	add	r0, r7, #16
e0017ddc:	ebfff23c 	bl	e00146d4 <slotCapLongRunningDelete>
e0017de0:	e3500000 	cmp	r0, #0
e0017de4:	1a000068 	bne	e0017f8c <decodeTCBConfigure+0x288>
e0017de8:	e35a0000 	cmp	sl, #0
e0017dec:	0a00000a 	beq	e0017e1c <decodeTCBConfigure+0x118>
e0017df0:	e28d0070 	add	r0, sp, #112	; 0x70
e0017df4:	e59d2034 	ldr	r2, [sp, #52]	; 0x34
e0017df8:	e5202010 	str	r2, [r0, #-16]!
e0017dfc:	e59d3064 	ldr	r3, [sp, #100]	; 0x64
e0017e00:	e58d3000 	str	r3, [sp]
e0017e04:	e1a03002 	mov	r3, r2
e0017e08:	e1a0200a 	mov	r2, sl
e0017e0c:	e3a01000 	mov	r1, #0
e0017e10:	ebfff246 	bl	e0014730 <updateCapData>
e0017e14:	e59d3060 	ldr	r3, [sp, #96]	; 0x60
e0017e18:	e58d3034 	str	r3, [sp, #52]	; 0x34
e0017e1c:	e59d3034 	ldr	r3, [sp, #52]	; 0x34
e0017e20:	e58d3060 	str	r3, [sp, #96]	; 0x60
e0017e24:	e28d3060 	add	r3, sp, #96	; 0x60
e0017e28:	e893000c 	ldm	r3, {r2, r3}
e0017e2c:	e1a01005 	mov	r1, r5
e0017e30:	e28d004c 	add	r0, sp, #76	; 0x4c
e0017e34:	ebfff1b6 	bl	e0014514 <deriveCap>
e0017e38:	e59d004c 	ldr	r0, [sp, #76]	; 0x4c
e0017e3c:	e3500000 	cmp	r0, #0
e0017e40:	1affffc5 	bne	e0017d5c <decodeTCBConfigure+0x58>
e0017e44:	e28d3060 	add	r3, sp, #96	; 0x60
e0017e48:	e28d2050 	add	r2, sp, #80	; 0x50
e0017e4c:	e8920003 	ldm	r2, {r0, r1}
e0017e50:	e8830003 	stm	r3, {r0, r1}
e0017e54:	e1a07000 	mov	r7, r0
e0017e58:	e200300e 	and	r3, r0, #14
e0017e5c:	e353000e 	cmp	r3, #14
e0017e60:	1200300f 	andne	r3, r0, #15
e0017e64:	06ef3070 	uxtbeq	r3, r0
e0017e68:	e353000a 	cmp	r3, #10
e0017e6c:	1a00004b 	bne	e0017fa0 <decodeTCBConfigure+0x29c>
e0017e70:	e3590000 	cmp	r9, #0
e0017e74:	0a000006 	beq	e0017e94 <decodeTCBConfigure+0x190>
e0017e78:	e59d305c 	ldr	r3, [sp, #92]	; 0x5c
e0017e7c:	e58d3000 	str	r3, [sp]
e0017e80:	e59d3058 	ldr	r3, [sp, #88]	; 0x58
e0017e84:	e1a02009 	mov	r2, r9
e0017e88:	e3a01000 	mov	r1, #0
e0017e8c:	e28d0058 	add	r0, sp, #88	; 0x58
e0017e90:	ebfff226 	bl	e0014730 <updateCapData>
e0017e94:	e28d3058 	add	r3, sp, #88	; 0x58
e0017e98:	e893000c 	ldm	r3, {r2, r3}
e0017e9c:	e1a01006 	mov	r1, r6
e0017ea0:	e28d004c 	add	r0, sp, #76	; 0x4c
e0017ea4:	ebfff19a 	bl	e0014514 <deriveCap>
e0017ea8:	e59d004c 	ldr	r0, [sp, #76]	; 0x4c
e0017eac:	e3500000 	cmp	r0, #0
e0017eb0:	1affffa9 	bne	e0017d5c <decodeTCBConfigure+0x58>
e0017eb4:	e28d3058 	add	r3, sp, #88	; 0x58
e0017eb8:	e28d2050 	add	r2, sp, #80	; 0x50
e0017ebc:	e8920003 	ldm	r2, {r0, r1}
e0017ec0:	e8830003 	stm	r3, {r0, r1}
e0017ec4:	ebffe4ca 	bl	e00111f4 <isValidVTableRoot>
e0017ec8:	e3500000 	cmp	r0, #0
e0017ecc:	0a000038 	beq	e0017fb4 <decodeTCBConfigure+0x2b0>
e0017ed0:	e3013b34 	movw	r3, #6964	; 0x1b34
e0017ed4:	e34e3003 	movt	r3, #57347	; 0xe003
e0017ed8:	e3a01002 	mov	r1, #2
e0017edc:	e5930000 	ldr	r0, [r3]
e0017ee0:	ebfff388 	bl	e0014d08 <setThreadState>
e0017ee4:	e58d7060 	str	r7, [sp, #96]	; 0x60
e0017ee8:	e3a03006 	mov	r3, #6
e0017eec:	e58d302c 	str	r3, [sp, #44]	; 0x2c
e0017ef0:	e58d4028 	str	r4, [sp, #40]	; 0x28
e0017ef4:	e28d3020 	add	r3, sp, #32
e0017ef8:	e28d2070 	add	r2, sp, #112	; 0x70
e0017efc:	e9120003 	ldmdb	r2, {r0, r1}
e0017f00:	e8830003 	stm	r3, {r0, r1}
e0017f04:	e58d801c 	str	r8, [sp, #28]
e0017f08:	e58d6018 	str	r6, [sp, #24]
e0017f0c:	e28d3010 	add	r3, sp, #16
e0017f10:	e28d2058 	add	r2, sp, #88	; 0x58
e0017f14:	e8920003 	ldm	r2, {r0, r1}
e0017f18:	e8830003 	stm	r3, {r0, r1}
e0017f1c:	e58d500c 	str	r5, [sp, #12]
e0017f20:	e28d3060 	add	r3, sp, #96	; 0x60
e0017f24:	e8930003 	ldm	r3, {r0, r1}
e0017f28:	e98d0003 	stmib	sp, {r0, r1}
e0017f2c:	e3a03000 	mov	r3, #0
e0017f30:	e58d3000 	str	r3, [sp]
e0017f34:	e59d2038 	ldr	r2, [sp, #56]	; 0x38
e0017f38:	e59d103c 	ldr	r1, [sp, #60]	; 0x3c
e0017f3c:	e3cb000f 	bic	r0, fp, #15
e0017f40:	ebfffefa 	bl	e0017b30 <invokeTCB_ThreadControl>
e0017f44:	eaffff84 	b	e0017d5c <decodeTCBConfigure+0x58>
e0017f48:	e913000c 	ldmdb	r3, {r2, r3}
e0017f4c:	e1a01004 	mov	r1, r4
e0017f50:	e28d004c 	add	r0, sp, #76	; 0x4c
e0017f54:	ebfff16e 	bl	e0014514 <deriveCap>
e0017f58:	e59d004c 	ldr	r0, [sp, #76]	; 0x4c
e0017f5c:	e3500000 	cmp	r0, #0
e0017f60:	1affff7d 	bne	e0017d5c <decodeTCBConfigure+0x58>
e0017f64:	e28d3068 	add	r3, sp, #104	; 0x68
e0017f68:	e28d2050 	add	r2, sp, #80	; 0x50
e0017f6c:	e8920003 	ldm	r2, {r0, r1}
e0017f70:	e8830003 	stm	r3, {r0, r1}
e0017f74:	e8930006 	ldm	r3, {r1, r2}
e0017f78:	e1a00008 	mov	r0, r8
e0017f7c:	ebffe3d4 	bl	e0010ed4 <checkValidIPCBuffer>
e0017f80:	e3500000 	cmp	r0, #0
e0017f84:	0affff8c 	beq	e0017dbc <decodeTCBConfigure+0xb8>
e0017f88:	eaffff73 	b	e0017d5c <decodeTCBConfigure+0x58>
e0017f8c:	e3093030 	movw	r3, #36912	; 0x9030
e0017f90:	e34e3002 	movt	r3, #57346	; 0xe002
e0017f94:	e3a00003 	mov	r0, #3
e0017f98:	e5830018 	str	r0, [r3, #24]
e0017f9c:	eaffff6e 	b	e0017d5c <decodeTCBConfigure+0x58>
e0017fa0:	e3093030 	movw	r3, #36912	; 0x9030
e0017fa4:	e34e3002 	movt	r3, #57346	; 0xe002
e0017fa8:	e3a00003 	mov	r0, #3
e0017fac:	e5830018 	str	r0, [r3, #24]
e0017fb0:	eaffff69 	b	e0017d5c <decodeTCBConfigure+0x58>
e0017fb4:	e3093030 	movw	r3, #36912	; 0x9030
e0017fb8:	e34e3002 	movt	r3, #57346	; 0xe002
e0017fbc:	e3a00003 	mov	r0, #3
e0017fc0:	e5830018 	str	r0, [r3, #24]
e0017fc4:	eaffff64 	b	e0017d5c <decodeTCBConfigure+0x58>

e0017fc8 <decodeSetPriority>:
e0017fc8:	e24dd008 	sub	sp, sp, #8
e0017fcc:	e92d4010 	push	{r4, lr}
e0017fd0:	e24dd040 	sub	sp, sp, #64	; 0x40
e0017fd4:	e28dc030 	add	ip, sp, #48	; 0x30
e0017fd8:	e88c0003 	stm	ip, {r0, r1}
e0017fdc:	e58d304c 	str	r3, [sp, #76]	; 0x4c
e0017fe0:	e3530000 	cmp	r3, #0
e0017fe4:	13520000 	cmpne	r2, #0
e0017fe8:	0a00000e 	beq	e0018028 <decodeSetPriority+0x60>
e0017fec:	e5933000 	ldr	r3, [r3]
e0017ff0:	e203200e 	and	r2, r3, #14
e0017ff4:	e352000e 	cmp	r2, #14
e0017ff8:	1203200f 	andne	r2, r3, #15
e0017ffc:	06ef2073 	uxtbeq	r2, r3
e0018000:	e352000c 	cmp	r2, #12
e0018004:	0a000010 	beq	e001804c <decodeSetPriority+0x84>
e0018008:	e3093030 	movw	r3, #36912	; 0x9030
e001800c:	e34e3002 	movt	r3, #57346	; 0xe002
e0018010:	e3a02002 	mov	r2, #2
e0018014:	e5832018 	str	r2, [r3, #24]
e0018018:	e3a02001 	mov	r2, #1
e001801c:	e5832004 	str	r2, [r3, #4]
e0018020:	e3a00003 	mov	r0, #3
e0018024:	ea000004 	b	e001803c <decodeSetPriority+0x74>
e0018028:	e3093030 	movw	r3, #36912	; 0x9030
e001802c:	e34e3002 	movt	r3, #57346	; 0xe002
e0018030:	e3a02007 	mov	r2, #7
e0018034:	e5832018 	str	r2, [r3, #24]
e0018038:	e3a00003 	mov	r0, #3
e001803c:	e28dd040 	add	sp, sp, #64	; 0x40
e0018040:	e8bd4010 	pop	{r4, lr}
e0018044:	e28dd008 	add	sp, sp, #8
e0018048:	e12fff1e 	bx	lr
e001804c:	e3012b34 	movw	r2, #6964	; 0x1b34
e0018050:	e34e2003 	movt	r2, #57347	; 0xe003
e0018054:	e5920000 	ldr	r0, [r2]
e0018058:	e5904008 	ldr	r4, [r0, #8]
e001805c:	e3c3300f 	bic	r3, r3, #15
e0018060:	e5933074 	ldr	r3, [r3, #116]	; 0x74
e0018064:	e1540003 	cmp	r4, r3
e0018068:	8a00001b 	bhi	e00180dc <decodeSetPriority+0x114>
e001806c:	e3a01002 	mov	r1, #2
e0018070:	ebfff324 	bl	e0014d08 <setThreadState>
e0018074:	e3a0c000 	mov	ip, #0
e0018078:	e58dc038 	str	ip, [sp, #56]	; 0x38
e001807c:	e58dc03c 	str	ip, [sp, #60]	; 0x3c
e0018080:	e3a03001 	mov	r3, #1
e0018084:	e58d302c 	str	r3, [sp, #44]	; 0x2c
e0018088:	e58dc028 	str	ip, [sp, #40]	; 0x28
e001808c:	e28d2020 	add	r2, sp, #32
e0018090:	e28d3038 	add	r3, sp, #56	; 0x38
e0018094:	e8930003 	ldm	r3, {r0, r1}
e0018098:	e8820003 	stm	r2, {r0, r1}
e001809c:	e58dc01c 	str	ip, [sp, #28]
e00180a0:	e58dc018 	str	ip, [sp, #24]
e00180a4:	e28d2010 	add	r2, sp, #16
e00180a8:	e8930003 	ldm	r3, {r0, r1}
e00180ac:	e8820003 	stm	r2, {r0, r1}
e00180b0:	e58dc00c 	str	ip, [sp, #12]
e00180b4:	e8930003 	ldm	r3, {r0, r1}
e00180b8:	e98d0003 	stmib	sp, {r0, r1}
e00180bc:	e58d4000 	str	r4, [sp]
e00180c0:	e1a0300c 	mov	r3, ip
e00180c4:	e1a0200c 	mov	r2, ip
e00180c8:	e1a0100c 	mov	r1, ip
e00180cc:	e59d0030 	ldr	r0, [sp, #48]	; 0x30
e00180d0:	e3c0000f 	bic	r0, r0, #15
e00180d4:	ebfffe95 	bl	e0017b30 <invokeTCB_ThreadControl>
e00180d8:	eaffffd7 	b	e001803c <decodeSetPriority+0x74>
e00180dc:	e3092030 	movw	r2, #36912	; 0x9030
e00180e0:	e34e2002 	movt	r2, #57346	; 0xe002
e00180e4:	e3a01004 	mov	r1, #4
e00180e8:	e5821018 	str	r1, [r2, #24]
e00180ec:	e3a01000 	mov	r1, #0
e00180f0:	e5821008 	str	r1, [r2, #8]
e00180f4:	e582300c 	str	r3, [r2, #12]
e00180f8:	e3a00003 	mov	r0, #3
e00180fc:	eaffffce 	b	e001803c <decodeSetPriority+0x74>

e0018100 <decodeSetMCPriority>:
e0018100:	e24dd008 	sub	sp, sp, #8
e0018104:	e92d4010 	push	{r4, lr}
e0018108:	e24dd040 	sub	sp, sp, #64	; 0x40
e001810c:	e28dc030 	add	ip, sp, #48	; 0x30
e0018110:	e88c0003 	stm	ip, {r0, r1}
e0018114:	e58d304c 	str	r3, [sp, #76]	; 0x4c
e0018118:	e3530000 	cmp	r3, #0
e001811c:	13520000 	cmpne	r2, #0
e0018120:	0a00000e 	beq	e0018160 <decodeSetMCPriority+0x60>
e0018124:	e5933000 	ldr	r3, [r3]
e0018128:	e203200e 	and	r2, r3, #14
e001812c:	e352000e 	cmp	r2, #14
e0018130:	1203200f 	andne	r2, r3, #15
e0018134:	06ef2073 	uxtbeq	r2, r3
e0018138:	e352000c 	cmp	r2, #12
e001813c:	0a000010 	beq	e0018184 <decodeSetMCPriority+0x84>
e0018140:	e3093030 	movw	r3, #36912	; 0x9030
e0018144:	e34e3002 	movt	r3, #57346	; 0xe002
e0018148:	e3a02002 	mov	r2, #2
e001814c:	e5832018 	str	r2, [r3, #24]
e0018150:	e3a02001 	mov	r2, #1
e0018154:	e5832004 	str	r2, [r3, #4]
e0018158:	e3a00003 	mov	r0, #3
e001815c:	ea000004 	b	e0018174 <decodeSetMCPriority+0x74>
e0018160:	e3093030 	movw	r3, #36912	; 0x9030
e0018164:	e34e3002 	movt	r3, #57346	; 0xe002
e0018168:	e3a02007 	mov	r2, #7
e001816c:	e5832018 	str	r2, [r3, #24]
e0018170:	e3a00003 	mov	r0, #3
e0018174:	e28dd040 	add	sp, sp, #64	; 0x40
e0018178:	e8bd4010 	pop	{r4, lr}
e001817c:	e28dd008 	add	sp, sp, #8
e0018180:	e12fff1e 	bx	lr
e0018184:	e3012b34 	movw	r2, #6964	; 0x1b34
e0018188:	e34e2003 	movt	r2, #57347	; 0xe003
e001818c:	e5920000 	ldr	r0, [r2]
e0018190:	e5904008 	ldr	r4, [r0, #8]
e0018194:	e3c3300f 	bic	r3, r3, #15
e0018198:	e5933074 	ldr	r3, [r3, #116]	; 0x74
e001819c:	e1540003 	cmp	r4, r3
e00181a0:	8a00001b 	bhi	e0018214 <decodeSetMCPriority+0x114>
e00181a4:	e3a01002 	mov	r1, #2
e00181a8:	ebfff2d6 	bl	e0014d08 <setThreadState>
e00181ac:	e3a0c000 	mov	ip, #0
e00181b0:	e58dc038 	str	ip, [sp, #56]	; 0x38
e00181b4:	e58dc03c 	str	ip, [sp, #60]	; 0x3c
e00181b8:	e3a03008 	mov	r3, #8
e00181bc:	e58d302c 	str	r3, [sp, #44]	; 0x2c
e00181c0:	e58dc028 	str	ip, [sp, #40]	; 0x28
e00181c4:	e28d2020 	add	r2, sp, #32
e00181c8:	e28d3038 	add	r3, sp, #56	; 0x38
e00181cc:	e8930003 	ldm	r3, {r0, r1}
e00181d0:	e8820003 	stm	r2, {r0, r1}
e00181d4:	e58dc01c 	str	ip, [sp, #28]
e00181d8:	e58dc018 	str	ip, [sp, #24]
e00181dc:	e28d2010 	add	r2, sp, #16
e00181e0:	e8930003 	ldm	r3, {r0, r1}
e00181e4:	e8820003 	stm	r2, {r0, r1}
e00181e8:	e58dc00c 	str	ip, [sp, #12]
e00181ec:	e8930003 	ldm	r3, {r0, r1}
e00181f0:	e98d0003 	stmib	sp, {r0, r1}
e00181f4:	e58dc000 	str	ip, [sp]
e00181f8:	e1a03004 	mov	r3, r4
e00181fc:	e1a0200c 	mov	r2, ip
e0018200:	e1a0100c 	mov	r1, ip
e0018204:	e59d0030 	ldr	r0, [sp, #48]	; 0x30
e0018208:	e3c0000f 	bic	r0, r0, #15
e001820c:	ebfffe47 	bl	e0017b30 <invokeTCB_ThreadControl>
e0018210:	eaffffd7 	b	e0018174 <decodeSetMCPriority+0x74>
e0018214:	e3092030 	movw	r2, #36912	; 0x9030
e0018218:	e34e2002 	movt	r2, #57346	; 0xe002
e001821c:	e3a01004 	mov	r1, #4
e0018220:	e5821018 	str	r1, [r2, #24]
e0018224:	e3a01000 	mov	r1, #0
e0018228:	e5821008 	str	r1, [r2, #8]
e001822c:	e582300c 	str	r3, [r2, #12]
e0018230:	e3a00003 	mov	r0, #3
e0018234:	eaffffce 	b	e0018174 <decodeSetMCPriority+0x74>

e0018238 <decodeSetSchedParams>:
e0018238:	e24dd008 	sub	sp, sp, #8
e001823c:	e92d4030 	push	{r4, r5, lr}
e0018240:	e24dd044 	sub	sp, sp, #68	; 0x44
e0018244:	e28dc030 	add	ip, sp, #48	; 0x30
e0018248:	e88c0003 	stm	ip, {r0, r1}
e001824c:	e58d3054 	str	r3, [sp, #84]	; 0x54
e0018250:	e3530000 	cmp	r3, #0
e0018254:	13520001 	cmpne	r2, #1
e0018258:	9a000011 	bls	e00182a4 <decodeSetSchedParams+0x6c>
e001825c:	e5933000 	ldr	r3, [r3]
e0018260:	e203200e 	and	r2, r3, #14
e0018264:	e352000e 	cmp	r2, #14
e0018268:	1203200f 	andne	r2, r3, #15
e001826c:	06ef2073 	uxtbeq	r2, r3
e0018270:	e352000c 	cmp	r2, #12
e0018274:	0a000010 	beq	e00182bc <decodeSetSchedParams+0x84>
e0018278:	e3093030 	movw	r3, #36912	; 0x9030
e001827c:	e34e3002 	movt	r3, #57346	; 0xe002
e0018280:	e3a02002 	mov	r2, #2
e0018284:	e5832018 	str	r2, [r3, #24]
e0018288:	e3a02001 	mov	r2, #1
e001828c:	e5832004 	str	r2, [r3, #4]
e0018290:	e3a00003 	mov	r0, #3
e0018294:	e28dd044 	add	sp, sp, #68	; 0x44
e0018298:	e8bd4030 	pop	{r4, r5, lr}
e001829c:	e28dd008 	add	sp, sp, #8
e00182a0:	e12fff1e 	bx	lr
e00182a4:	e3093030 	movw	r3, #36912	; 0x9030
e00182a8:	e34e3002 	movt	r3, #57346	; 0xe002
e00182ac:	e3a02007 	mov	r2, #7
e00182b0:	e5832018 	str	r2, [r3, #24]
e00182b4:	e3a00003 	mov	r0, #3
e00182b8:	eafffff5 	b	e0018294 <decodeSetSchedParams+0x5c>
e00182bc:	e3012b34 	movw	r2, #6964	; 0x1b34
e00182c0:	e34e2003 	movt	r2, #57347	; 0xe003
e00182c4:	e5920000 	ldr	r0, [r2]
e00182c8:	e5904008 	ldr	r4, [r0, #8]
e00182cc:	e3c3300f 	bic	r3, r3, #15
e00182d0:	e5933074 	ldr	r3, [r3, #116]	; 0x74
e00182d4:	e1540003 	cmp	r4, r3
e00182d8:	8a00001e 	bhi	e0018358 <decodeSetSchedParams+0x120>
e00182dc:	e590500c 	ldr	r5, [r0, #12]
e00182e0:	e1550003 	cmp	r5, r3
e00182e4:	8a000024 	bhi	e001837c <decodeSetSchedParams+0x144>
e00182e8:	e3a01002 	mov	r1, #2
e00182ec:	ebfff285 	bl	e0014d08 <setThreadState>
e00182f0:	e3a0c000 	mov	ip, #0
e00182f4:	e58dc038 	str	ip, [sp, #56]	; 0x38
e00182f8:	e58dc03c 	str	ip, [sp, #60]	; 0x3c
e00182fc:	e3a03009 	mov	r3, #9
e0018300:	e58d302c 	str	r3, [sp, #44]	; 0x2c
e0018304:	e58dc028 	str	ip, [sp, #40]	; 0x28
e0018308:	e28d2020 	add	r2, sp, #32
e001830c:	e28d3038 	add	r3, sp, #56	; 0x38
e0018310:	e8930003 	ldm	r3, {r0, r1}
e0018314:	e8820003 	stm	r2, {r0, r1}
e0018318:	e58dc01c 	str	ip, [sp, #28]
e001831c:	e58dc018 	str	ip, [sp, #24]
e0018320:	e28d2010 	add	r2, sp, #16
e0018324:	e8930003 	ldm	r3, {r0, r1}
e0018328:	e8820003 	stm	r2, {r0, r1}
e001832c:	e58dc00c 	str	ip, [sp, #12]
e0018330:	e8930003 	ldm	r3, {r0, r1}
e0018334:	e98d0003 	stmib	sp, {r0, r1}
e0018338:	e58d5000 	str	r5, [sp]
e001833c:	e1a03004 	mov	r3, r4
e0018340:	e1a0200c 	mov	r2, ip
e0018344:	e1a0100c 	mov	r1, ip
e0018348:	e59d0030 	ldr	r0, [sp, #48]	; 0x30
e001834c:	e3c0000f 	bic	r0, r0, #15
e0018350:	ebfffdf6 	bl	e0017b30 <invokeTCB_ThreadControl>
e0018354:	eaffffce 	b	e0018294 <decodeSetSchedParams+0x5c>
e0018358:	e3092030 	movw	r2, #36912	; 0x9030
e001835c:	e34e2002 	movt	r2, #57346	; 0xe002
e0018360:	e3a01004 	mov	r1, #4
e0018364:	e5821018 	str	r1, [r2, #24]
e0018368:	e3a01000 	mov	r1, #0
e001836c:	e5821008 	str	r1, [r2, #8]
e0018370:	e582300c 	str	r3, [r2, #12]
e0018374:	e3a00003 	mov	r0, #3
e0018378:	eaffffc5 	b	e0018294 <decodeSetSchedParams+0x5c>
e001837c:	e3092030 	movw	r2, #36912	; 0x9030
e0018380:	e34e2002 	movt	r2, #57346	; 0xe002
e0018384:	e3a01004 	mov	r1, #4
e0018388:	e5821018 	str	r1, [r2, #24]
e001838c:	e3a01000 	mov	r1, #0
e0018390:	e5821008 	str	r1, [r2, #8]
e0018394:	e582300c 	str	r3, [r2, #12]
e0018398:	e3a00003 	mov	r0, #3
e001839c:	eaffffbc 	b	e0018294 <decodeSetSchedParams+0x5c>

e00183a0 <decodeSetIPCBuffer>:
e00183a0:	e92d4070 	push	{r4, r5, r6, lr}
e00183a4:	e24dd058 	sub	sp, sp, #88	; 0x58
e00183a8:	e28dc030 	add	ip, sp, #48	; 0x30
e00183ac:	e88c0003 	stm	ip, {r0, r1}
e00183b0:	e59d4068 	ldr	r4, [sp, #104]	; 0x68
e00183b4:	e3520000 	cmp	r2, #0
e00183b8:	13540000 	cmpne	r4, #0
e00183bc:	0a00001a 	beq	e001842c <decodeSetIPCBuffer+0x8c>
e00183c0:	e1a06003 	mov	r6, r3
e00183c4:	e3012b34 	movw	r2, #6964	; 0x1b34
e00183c8:	e34e2003 	movt	r2, #57347	; 0xe003
e00183cc:	e5923000 	ldr	r3, [r2]
e00183d0:	e5935008 	ldr	r5, [r3, #8]
e00183d4:	e28d2048 	add	r2, sp, #72	; 0x48
e00183d8:	e8940003 	ldm	r4, {r0, r1}
e00183dc:	e8820003 	stm	r2, {r0, r1}
e00183e0:	e3550000 	cmp	r5, #0
e00183e4:	0a000017 	beq	e0018448 <decodeSetIPCBuffer+0xa8>
e00183e8:	e892000c 	ldm	r2, {r2, r3}
e00183ec:	e1a01004 	mov	r1, r4
e00183f0:	e28d003c 	add	r0, sp, #60	; 0x3c
e00183f4:	ebfff046 	bl	e0014514 <deriveCap>
e00183f8:	e59d003c 	ldr	r0, [sp, #60]	; 0x3c
e00183fc:	e3500000 	cmp	r0, #0
e0018400:	1a00000e 	bne	e0018440 <decodeSetIPCBuffer+0xa0>
e0018404:	e28d3048 	add	r3, sp, #72	; 0x48
e0018408:	e28d2040 	add	r2, sp, #64	; 0x40
e001840c:	e8920003 	ldm	r2, {r0, r1}
e0018410:	e8830003 	stm	r3, {r0, r1}
e0018414:	e8930006 	ldm	r3, {r1, r2}
e0018418:	e1a00005 	mov	r0, r5
e001841c:	ebffe2ac 	bl	e0010ed4 <checkValidIPCBuffer>
e0018420:	e3500000 	cmp	r0, #0
e0018424:	0a000008 	beq	e001844c <decodeSetIPCBuffer+0xac>
e0018428:	ea000004 	b	e0018440 <decodeSetIPCBuffer+0xa0>
e001842c:	e3093030 	movw	r3, #36912	; 0x9030
e0018430:	e34e3002 	movt	r3, #57346	; 0xe002
e0018434:	e3a02007 	mov	r2, #7
e0018438:	e5832018 	str	r2, [r3, #24]
e001843c:	e3a00003 	mov	r0, #3
e0018440:	e28dd058 	add	sp, sp, #88	; 0x58
e0018444:	e8bd8070 	pop	{r4, r5, r6, pc}
e0018448:	e3a04000 	mov	r4, #0
e001844c:	e3013b34 	movw	r3, #6964	; 0x1b34
e0018450:	e34e3003 	movt	r3, #57347	; 0xe003
e0018454:	e3a01002 	mov	r1, #2
e0018458:	e5930000 	ldr	r0, [r3]
e001845c:	ebfff229 	bl	e0014d08 <setThreadState>
e0018460:	e3a02000 	mov	r2, #0
e0018464:	e58d2050 	str	r2, [sp, #80]	; 0x50
e0018468:	e58d2054 	str	r2, [sp, #84]	; 0x54
e001846c:	e3a03002 	mov	r3, #2
e0018470:	e58d302c 	str	r3, [sp, #44]	; 0x2c
e0018474:	e58d4028 	str	r4, [sp, #40]	; 0x28
e0018478:	e28d3020 	add	r3, sp, #32
e001847c:	e28d1048 	add	r1, sp, #72	; 0x48
e0018480:	e8910003 	ldm	r1, {r0, r1}
e0018484:	e8830003 	stm	r3, {r0, r1}
e0018488:	e58d501c 	str	r5, [sp, #28]
e001848c:	e58d2018 	str	r2, [sp, #24]
e0018490:	e28d3010 	add	r3, sp, #16
e0018494:	e28dc050 	add	ip, sp, #80	; 0x50
e0018498:	e89c0003 	ldm	ip, {r0, r1}
e001849c:	e8830003 	stm	r3, {r0, r1}
e00184a0:	e58d200c 	str	r2, [sp, #12]
e00184a4:	e89c0003 	ldm	ip, {r0, r1}
e00184a8:	e98d0003 	stmib	sp, {r0, r1}
e00184ac:	e58d2000 	str	r2, [sp]
e00184b0:	e1a03002 	mov	r3, r2
e00184b4:	e1a01006 	mov	r1, r6
e00184b8:	e59d0030 	ldr	r0, [sp, #48]	; 0x30
e00184bc:	e3c0000f 	bic	r0, r0, #15
e00184c0:	ebfffd9a 	bl	e0017b30 <invokeTCB_ThreadControl>
e00184c4:	eaffffdd 	b	e0018440 <decodeSetIPCBuffer+0xa0>

e00184c8 <decodeSetSpace>:
e00184c8:	e92d4ff0 	push	{r4, r5, r6, r7, r8, r9, sl, fp, lr}
e00184cc:	e24dd06c 	sub	sp, sp, #108	; 0x6c
e00184d0:	e28dc038 	add	ip, sp, #56	; 0x38
e00184d4:	e88c0003 	stm	ip, {r0, r1}
e00184d8:	e59d4090 	ldr	r4, [sp, #144]	; 0x90
e00184dc:	e59d5094 	ldr	r5, [sp, #148]	; 0x94
e00184e0:	e16f1f15 	clz	r1, r5
e00184e4:	e1a012a1 	lsr	r1, r1, #5
e00184e8:	e3540000 	cmp	r4, #0
e00184ec:	03a01001 	moveq	r1, #1
e00184f0:	e3520002 	cmp	r2, #2
e00184f4:	93811001 	orrls	r1, r1, #1
e00184f8:	e3510000 	cmp	r1, #0
e00184fc:	0a000006 	beq	e001851c <decodeSetSpace+0x54>
e0018500:	e3093030 	movw	r3, #36912	; 0x9030
e0018504:	e34e3002 	movt	r3, #57346	; 0xe002
e0018508:	e3a02007 	mov	r2, #7
e001850c:	e5832018 	str	r2, [r3, #24]
e0018510:	e3a00003 	mov	r0, #3
e0018514:	e28dd06c 	add	sp, sp, #108	; 0x6c
e0018518:	e8bd8ff0 	pop	{r4, r5, r6, r7, r8, r9, sl, fp, pc}
e001851c:	e58d3034 	str	r3, [sp, #52]	; 0x34
e0018520:	e3013b34 	movw	r3, #6964	; 0x1b34
e0018524:	e34e3003 	movt	r3, #57347	; 0xe003
e0018528:	e5933000 	ldr	r3, [r3]
e001852c:	e593b008 	ldr	fp, [r3, #8]
e0018530:	e593900c 	ldr	r9, [r3, #12]
e0018534:	e593a010 	ldr	sl, [r3, #16]
e0018538:	e28d3058 	add	r3, sp, #88	; 0x58
e001853c:	e8940003 	ldm	r4, {r0, r1}
e0018540:	e8830003 	stm	r3, {r0, r1}
e0018544:	e1a07000 	mov	r7, r0
e0018548:	e28d3050 	add	r3, sp, #80	; 0x50
e001854c:	e8950003 	ldm	r5, {r0, r1}
e0018550:	e8830003 	stm	r3, {r0, r1}
e0018554:	e59d8038 	ldr	r8, [sp, #56]	; 0x38
e0018558:	e3c86f7f 	bic	r6, r8, #508	; 0x1fc
e001855c:	e3c66003 	bic	r6, r6, #3
e0018560:	e1a00006 	mov	r0, r6
e0018564:	ebfff05a 	bl	e00146d4 <slotCapLongRunningDelete>
e0018568:	e3500000 	cmp	r0, #0
e001856c:	1a00005a 	bne	e00186dc <decodeSetSpace+0x214>
e0018570:	e2860010 	add	r0, r6, #16
e0018574:	ebfff056 	bl	e00146d4 <slotCapLongRunningDelete>
e0018578:	e3500000 	cmp	r0, #0
e001857c:	1a000056 	bne	e00186dc <decodeSetSpace+0x214>
e0018580:	e3590000 	cmp	r9, #0
e0018584:	0a000008 	beq	e00185ac <decodeSetSpace+0xe4>
e0018588:	e28d0068 	add	r0, sp, #104	; 0x68
e001858c:	e5207010 	str	r7, [r0, #-16]!
e0018590:	e59d305c 	ldr	r3, [sp, #92]	; 0x5c
e0018594:	e58d3000 	str	r3, [sp]
e0018598:	e1a03007 	mov	r3, r7
e001859c:	e1a02009 	mov	r2, r9
e00185a0:	e3a01000 	mov	r1, #0
e00185a4:	ebfff061 	bl	e0014730 <updateCapData>
e00185a8:	e59d7058 	ldr	r7, [sp, #88]	; 0x58
e00185ac:	e58d7058 	str	r7, [sp, #88]	; 0x58
e00185b0:	e28d3058 	add	r3, sp, #88	; 0x58
e00185b4:	e893000c 	ldm	r3, {r2, r3}
e00185b8:	e1a01004 	mov	r1, r4
e00185bc:	e28d0044 	add	r0, sp, #68	; 0x44
e00185c0:	ebffefd3 	bl	e0014514 <deriveCap>
e00185c4:	e59d0044 	ldr	r0, [sp, #68]	; 0x44
e00185c8:	e3500000 	cmp	r0, #0
e00185cc:	1affffd0 	bne	e0018514 <decodeSetSpace+0x4c>
e00185d0:	e28d3058 	add	r3, sp, #88	; 0x58
e00185d4:	e28d2048 	add	r2, sp, #72	; 0x48
e00185d8:	e8920003 	ldm	r2, {r0, r1}
e00185dc:	e8830003 	stm	r3, {r0, r1}
e00185e0:	e1a06000 	mov	r6, r0
e00185e4:	e200300e 	and	r3, r0, #14
e00185e8:	e353000e 	cmp	r3, #14
e00185ec:	1200300f 	andne	r3, r0, #15
e00185f0:	06ef3070 	uxtbeq	r3, r0
e00185f4:	e353000a 	cmp	r3, #10
e00185f8:	1a00003c 	bne	e00186f0 <decodeSetSpace+0x228>
e00185fc:	e35a0000 	cmp	sl, #0
e0018600:	0a000006 	beq	e0018620 <decodeSetSpace+0x158>
e0018604:	e59d3054 	ldr	r3, [sp, #84]	; 0x54
e0018608:	e58d3000 	str	r3, [sp]
e001860c:	e59d3050 	ldr	r3, [sp, #80]	; 0x50
e0018610:	e1a0200a 	mov	r2, sl
e0018614:	e3a01000 	mov	r1, #0
e0018618:	e28d0050 	add	r0, sp, #80	; 0x50
e001861c:	ebfff043 	bl	e0014730 <updateCapData>
e0018620:	e28d3050 	add	r3, sp, #80	; 0x50
e0018624:	e893000c 	ldm	r3, {r2, r3}
e0018628:	e1a01005 	mov	r1, r5
e001862c:	e28d0044 	add	r0, sp, #68	; 0x44
e0018630:	ebffefb7 	bl	e0014514 <deriveCap>
e0018634:	e59d0044 	ldr	r0, [sp, #68]	; 0x44
e0018638:	e3500000 	cmp	r0, #0
e001863c:	1affffb4 	bne	e0018514 <decodeSetSpace+0x4c>
e0018640:	e28d3050 	add	r3, sp, #80	; 0x50
e0018644:	e28d2048 	add	r2, sp, #72	; 0x48
e0018648:	e8920003 	ldm	r2, {r0, r1}
e001864c:	e8830003 	stm	r3, {r0, r1}
e0018650:	ebffe2e7 	bl	e00111f4 <isValidVTableRoot>
e0018654:	e3500000 	cmp	r0, #0
e0018658:	0a000029 	beq	e0018704 <decodeSetSpace+0x23c>
e001865c:	e3013b34 	movw	r3, #6964	; 0x1b34
e0018660:	e34e3003 	movt	r3, #57347	; 0xe003
e0018664:	e3a01002 	mov	r1, #2
e0018668:	e5930000 	ldr	r0, [r3]
e001866c:	ebfff1a5 	bl	e0014d08 <setThreadState>
e0018670:	e3a03000 	mov	r3, #0
e0018674:	e58d3060 	str	r3, [sp, #96]	; 0x60
e0018678:	e58d3064 	str	r3, [sp, #100]	; 0x64
e001867c:	e58d6058 	str	r6, [sp, #88]	; 0x58
e0018680:	e3a02004 	mov	r2, #4
e0018684:	e58d202c 	str	r2, [sp, #44]	; 0x2c
e0018688:	e58d3028 	str	r3, [sp, #40]	; 0x28
e001868c:	e28d2020 	add	r2, sp, #32
e0018690:	e28d1068 	add	r1, sp, #104	; 0x68
e0018694:	e9110003 	ldmdb	r1, {r0, r1}
e0018698:	e8820003 	stm	r2, {r0, r1}
e001869c:	e58d301c 	str	r3, [sp, #28]
e00186a0:	e58d5018 	str	r5, [sp, #24]
e00186a4:	e28d2010 	add	r2, sp, #16
e00186a8:	e28d1050 	add	r1, sp, #80	; 0x50
e00186ac:	e8910003 	ldm	r1, {r0, r1}
e00186b0:	e8820003 	stm	r2, {r0, r1}
e00186b4:	e58d400c 	str	r4, [sp, #12]
e00186b8:	e28d2058 	add	r2, sp, #88	; 0x58
e00186bc:	e8920003 	ldm	r2, {r0, r1}
e00186c0:	e98d0003 	stmib	sp, {r0, r1}
e00186c4:	e58d3000 	str	r3, [sp]
e00186c8:	e1a0200b 	mov	r2, fp
e00186cc:	e59d1034 	ldr	r1, [sp, #52]	; 0x34
e00186d0:	e3c8000f 	bic	r0, r8, #15
e00186d4:	ebfffd15 	bl	e0017b30 <invokeTCB_ThreadControl>
e00186d8:	eaffff8d 	b	e0018514 <decodeSetSpace+0x4c>
e00186dc:	e3093030 	movw	r3, #36912	; 0x9030
e00186e0:	e34e3002 	movt	r3, #57346	; 0xe002
e00186e4:	e3a00003 	mov	r0, #3
e00186e8:	e5830018 	str	r0, [r3, #24]
e00186ec:	eaffff88 	b	e0018514 <decodeSetSpace+0x4c>
e00186f0:	e3093030 	movw	r3, #36912	; 0x9030
e00186f4:	e34e3002 	movt	r3, #57346	; 0xe002
e00186f8:	e3a00003 	mov	r0, #3
e00186fc:	e5830018 	str	r0, [r3, #24]
e0018700:	eaffff83 	b	e0018514 <decodeSetSpace+0x4c>
e0018704:	e3093030 	movw	r3, #36912	; 0x9030
e0018708:	e34e3002 	movt	r3, #57346	; 0xe002
e001870c:	e3a00003 	mov	r0, #3
e0018710:	e5830018 	str	r0, [r3, #24]
e0018714:	eaffff7e 	b	e0018514 <decodeSetSpace+0x4c>

e0018718 <invokeTCB_CopyRegisters>:
e0018718:	e92d4070 	push	{r4, r5, r6, lr}
e001871c:	e1a04000 	mov	r4, r0
e0018720:	e1a05001 	mov	r5, r1
e0018724:	e1a06003 	mov	r6, r3
e0018728:	e3520000 	cmp	r2, #0
e001872c:	1a000022 	bne	e00187bc <invokeTCB_CopyRegisters+0xa4>
e0018730:	e3560000 	cmp	r6, #0
e0018734:	1a000023 	bne	e00187c8 <invokeTCB_CopyRegisters+0xb0>
e0018738:	e59d3010 	ldr	r3, [sp, #16]
e001873c:	e3530000 	cmp	r3, #0
e0018740:	0a00000a 	beq	e0018770 <invokeTCB_CopyRegisters+0x58>
e0018744:	e30b0768 	movw	r0, #46952	; 0xb768
e0018748:	e34e0001 	movt	r0, #57345	; 0xe001
e001874c:	e2803088 	add	r3, r0, #136	; 0x88
e0018750:	e28000b0 	add	r0, r0, #176	; 0xb0
e0018754:	e4932004 	ldr	r2, [r3], #4
e0018758:	e7951102 	ldr	r1, [r5, r2, lsl #2]
e001875c:	e7841102 	str	r1, [r4, r2, lsl #2]
e0018760:	e1530000 	cmp	r3, r0
e0018764:	1afffffa 	bne	e0018754 <invokeTCB_CopyRegisters+0x3c>
e0018768:	e5943044 	ldr	r3, [r4, #68]	; 0x44
e001876c:	e584303c 	str	r3, [r4, #60]	; 0x3c
e0018770:	e59d3014 	ldr	r3, [sp, #20]
e0018774:	e3530000 	cmp	r3, #0
e0018778:	0a000008 	beq	e00187a0 <invokeTCB_CopyRegisters+0x88>
e001877c:	e30b0768 	movw	r0, #46952	; 0xb768
e0018780:	e34e0001 	movt	r0, #57345	; 0xe001
e0018784:	e28030ac 	add	r3, r0, #172	; 0xac
e0018788:	e28000c8 	add	r0, r0, #200	; 0xc8
e001878c:	e5b32004 	ldr	r2, [r3, #4]!
e0018790:	e7951102 	ldr	r1, [r5, r2, lsl #2]
e0018794:	e7841102 	str	r1, [r4, r2, lsl #2]
e0018798:	e1530000 	cmp	r3, r0
e001879c:	1afffffa 	bne	e001878c <invokeTCB_CopyRegisters+0x74>
e00187a0:	e3013b34 	movw	r3, #6964	; 0x1b34
e00187a4:	e34e3003 	movt	r3, #57347	; 0xe003
e00187a8:	e5933000 	ldr	r3, [r3]
e00187ac:	e1530004 	cmp	r3, r4
e00187b0:	0a000007 	beq	e00187d4 <invokeTCB_CopyRegisters+0xbc>
e00187b4:	e3a00000 	mov	r0, #0
e00187b8:	e8bd8070 	pop	{r4, r5, r6, pc}
e00187bc:	e1a00001 	mov	r0, r1
e00187c0:	ebfff4aa 	bl	e0015a70 <suspend>
e00187c4:	eaffffd9 	b	e0018730 <invokeTCB_CopyRegisters+0x18>
e00187c8:	e1a00004 	mov	r0, r4
e00187cc:	ebfff858 	bl	e0016934 <restart>
e00187d0:	eaffffd8 	b	e0018738 <invokeTCB_CopyRegisters+0x20>
e00187d4:	ebfff128 	bl	e0014c7c <rescheduleRequired>
e00187d8:	eafffff5 	b	e00187b4 <invokeTCB_CopyRegisters+0x9c>

e00187dc <decodeCopyRegisters>:
e00187dc:	e24dd008 	sub	sp, sp, #8
e00187e0:	e92d4030 	push	{r4, r5, lr}
e00187e4:	e24dd01c 	sub	sp, sp, #28
e00187e8:	e28dc018 	add	ip, sp, #24
e00187ec:	e90c0003 	stmdb	ip, {r0, r1}
e00187f0:	e58d302c 	str	r3, [sp, #44]	; 0x2c
e00187f4:	e3520000 	cmp	r2, #0
e00187f8:	13530000 	cmpne	r3, #0
e00187fc:	0a00000e 	beq	e001883c <decodeCopyRegisters+0x60>
e0018800:	e5934000 	ldr	r4, [r3]
e0018804:	e204300e 	and	r3, r4, #14
e0018808:	e353000e 	cmp	r3, #14
e001880c:	1204300f 	andne	r3, r4, #15
e0018810:	06ef3074 	uxtbeq	r3, r4
e0018814:	e353000c 	cmp	r3, #12
e0018818:	0a000010 	beq	e0018860 <decodeCopyRegisters+0x84>
e001881c:	e3093030 	movw	r3, #36912	; 0x9030
e0018820:	e34e3002 	movt	r3, #57346	; 0xe002
e0018824:	e3a02002 	mov	r2, #2
e0018828:	e5832018 	str	r2, [r3, #24]
e001882c:	e3a02001 	mov	r2, #1
e0018830:	e5832004 	str	r2, [r3, #4]
e0018834:	e3a00003 	mov	r0, #3
e0018838:	ea000004 	b	e0018850 <decodeCopyRegisters+0x74>
e001883c:	e3093030 	movw	r3, #36912	; 0x9030
e0018840:	e34e3002 	movt	r3, #57346	; 0xe002
e0018844:	e3a02007 	mov	r2, #7
e0018848:	e5832018 	str	r2, [r3, #24]
e001884c:	e3a00003 	mov	r0, #3
e0018850:	e28dd01c 	add	sp, sp, #28
e0018854:	e8bd4030 	pop	{r4, r5, lr}
e0018858:	e28dd008 	add	sp, sp, #8
e001885c:	e12fff1e 	bx	lr
e0018860:	e3013b34 	movw	r3, #6964	; 0x1b34
e0018864:	e34e3003 	movt	r3, #57347	; 0xe003
e0018868:	e5930000 	ldr	r0, [r3]
e001886c:	e5905008 	ldr	r5, [r0, #8]
e0018870:	e3a01002 	mov	r1, #2
e0018874:	ebfff123 	bl	e0014d08 <setThreadState>
e0018878:	e3a03000 	mov	r3, #0
e001887c:	e58d3008 	str	r3, [sp, #8]
e0018880:	e2053008 	and	r3, r5, #8
e0018884:	e58d3004 	str	r3, [sp, #4]
e0018888:	e2053004 	and	r3, r5, #4
e001888c:	e58d3000 	str	r3, [sp]
e0018890:	e2053002 	and	r3, r5, #2
e0018894:	e2052001 	and	r2, r5, #1
e0018898:	e3c4100f 	bic	r1, r4, #15
e001889c:	e59d0010 	ldr	r0, [sp, #16]
e00188a0:	e3c0000f 	bic	r0, r0, #15
e00188a4:	ebffff9b 	bl	e0018718 <invokeTCB_CopyRegisters>
e00188a8:	eaffffe8 	b	e0018850 <decodeCopyRegisters+0x74>

e00188ac <invokeTCB_ReadRegisters>:
e00188ac:	e92d4070 	push	{r4, r5, r6, lr}
e00188b0:	e1a06000 	mov	r6, r0
e00188b4:	e1a04002 	mov	r4, r2
e00188b8:	e3013b34 	movw	r3, #6964	; 0x1b34
e00188bc:	e34e3003 	movt	r3, #57347	; 0xe003
e00188c0:	e5935000 	ldr	r5, [r3]
e00188c4:	e3510000 	cmp	r1, #0
e00188c8:	1a00002f 	bne	e001898c <invokeTCB_ReadRegisters+0xe0>
e00188cc:	e59d3010 	ldr	r3, [sp, #16]
e00188d0:	e3530000 	cmp	r3, #0
e00188d4:	0a000027 	beq	e0018978 <invokeTCB_ReadRegisters+0xcc>
e00188d8:	e1a01005 	mov	r1, r5
e00188dc:	e3a00001 	mov	r0, #1
e00188e0:	ebffe0ba 	bl	e0010bd0 <lookupIPCBuffer>
e00188e4:	e3a03000 	mov	r3, #0
e00188e8:	e5853000 	str	r3, [r5]
e00188ec:	e1540003 	cmp	r4, r3
e00188f0:	01a02004 	moveq	r2, r4
e00188f4:	0a00001c 	beq	e001896c <invokeTCB_ReadRegisters+0xc0>
e00188f8:	e30b3768 	movw	r3, #46952	; 0xb768
e00188fc:	e34e3001 	movt	r3, #57345	; 0xe001
e0018900:	e283c060 	add	ip, r3, #96	; 0x60
e0018904:	e2833088 	add	r3, r3, #136	; 0x88
e0018908:	e3a02000 	mov	r2, #0
e001890c:	e49c1004 	ldr	r1, [ip], #4
e0018910:	e493e004 	ldr	lr, [r3], #4
e0018914:	e796e10e 	ldr	lr, [r6, lr, lsl #2]
e0018918:	e785e101 	str	lr, [r5, r1, lsl #2]
e001891c:	e2822001 	add	r2, r2, #1
e0018920:	e1540002 	cmp	r4, r2
e0018924:	93a01000 	movls	r1, #0
e0018928:	83a01001 	movhi	r1, #1
e001892c:	e3520003 	cmp	r2, #3
e0018930:	83a0e000 	movhi	lr, #0
e0018934:	9201e001 	andls	lr, r1, #1
e0018938:	e35e0000 	cmp	lr, #0
e001893c:	1afffff2 	bne	e001890c <invokeTCB_ReadRegisters+0x60>
e0018940:	e3520009 	cmp	r2, #9
e0018944:	83a03000 	movhi	r3, #0
e0018948:	93a03001 	movls	r3, #1
e001894c:	e3500000 	cmp	r0, #0
e0018950:	11a0c001 	movne	ip, r1
e0018954:	03a0c000 	moveq	ip, #0
e0018958:	e113000c 	tst	r3, ip
e001895c:	1a00000c 	bne	e0018994 <invokeTCB_ReadRegisters+0xe8>
e0018960:	e3500000 	cmp	r0, #0
e0018964:	03a04000 	moveq	r4, #0
e0018968:	1a000017 	bne	e00189cc <invokeTCB_ReadRegisters+0x120>
e001896c:	e0822004 	add	r2, r2, r4
e0018970:	e202207f 	and	r2, r2, #127	; 0x7f
e0018974:	e5852004 	str	r2, [r5, #4]
e0018978:	e3a01001 	mov	r1, #1
e001897c:	e1a00005 	mov	r0, r5
e0018980:	ebfff0e0 	bl	e0014d08 <setThreadState>
e0018984:	e3a00000 	mov	r0, #0
e0018988:	e8bd8070 	pop	{r4, r5, r6, pc}
e001898c:	ebfff437 	bl	e0015a70 <suspend>
e0018990:	eaffffcd 	b	e00188cc <invokeTCB_ReadRegisters+0x20>
e0018994:	e1110003 	tst	r1, r3
e0018998:	0afffff0 	beq	e0018960 <invokeTCB_ReadRegisters+0xb4>
e001899c:	e1a03102 	lsl	r3, r2, #2
e00189a0:	e59f1068 	ldr	r1, [pc, #104]	; e0018a10 <invokeTCB_ReadRegisters+0x164>
e00189a4:	e0831001 	add	r1, r3, r1
e00189a8:	e0803003 	add	r3, r0, r3
e00189ac:	e2822001 	add	r2, r2, #1
e00189b0:	e5b1c004 	ldr	ip, [r1, #4]!
e00189b4:	e796c10c 	ldr	ip, [r6, ip, lsl #2]
e00189b8:	e5a3c004 	str	ip, [r3, #4]!
e00189bc:	e3520009 	cmp	r2, #9
e00189c0:	91520004 	cmpls	r2, r4
e00189c4:	3afffff8 	bcc	e00189ac <invokeTCB_ReadRegisters+0x100>
e00189c8:	eaffffe4 	b	e0018960 <invokeTCB_ReadRegisters+0xb4>
e00189cc:	e354000a 	cmp	r4, #10
e00189d0:	93a04000 	movls	r4, #0
e00189d4:	9affffe4 	bls	e001896c <invokeTCB_ReadRegisters+0xc0>
e00189d8:	e5963008 	ldr	r3, [r6, #8]
e00189dc:	e5a0302c 	str	r3, [r0, #44]!	; 0x2c
e00189e0:	e244100a 	sub	r1, r4, #10
e00189e4:	e3a04001 	mov	r4, #1
e00189e8:	e59fc024 	ldr	ip, [pc, #36]	; e0018a14 <invokeTCB_ReadRegisters+0x168>
e00189ec:	e1510004 	cmp	r1, r4
e00189f0:	0affffdd 	beq	e001896c <invokeTCB_ReadRegisters+0xc0>
e00189f4:	e79c3104 	ldr	r3, [ip, r4, lsl #2]
e00189f8:	e7963103 	ldr	r3, [r6, r3, lsl #2]
e00189fc:	e5a03004 	str	r3, [r0, #4]!
e0018a00:	e2844001 	add	r4, r4, #1
e0018a04:	e3540007 	cmp	r4, #7
e0018a08:	1afffff7 	bne	e00189ec <invokeTCB_ReadRegisters+0x140>
e0018a0c:	eaffffd6 	b	e001896c <invokeTCB_ReadRegisters+0xc0>
e0018a10:	e001b7ec 	.word	0xe001b7ec
e0018a14:	e001b818 	.word	0xe001b818

e0018a18 <decodeReadRegisters>:
e0018a18:	e92d40f0 	push	{r4, r5, r6, r7, lr}
e0018a1c:	e24dd014 	sub	sp, sp, #20
e0018a20:	e28dc010 	add	ip, sp, #16
e0018a24:	e90c0003 	stmdb	ip, {r0, r1}
e0018a28:	e3520001 	cmp	r2, #1
e0018a2c:	9a000016 	bls	e0018a8c <decodeReadRegisters+0x74>
e0018a30:	e3012b34 	movw	r2, #6964	; 0x1b34
e0018a34:	e34e2003 	movt	r2, #57347	; 0xe003
e0018a38:	e5920000 	ldr	r0, [r2]
e0018a3c:	e590600c 	ldr	r6, [r0, #12]
e0018a40:	e2462001 	sub	r2, r6, #1
e0018a44:	e3520010 	cmp	r2, #16
e0018a48:	8a000015 	bhi	e0018aa4 <decodeReadRegisters+0x8c>
e0018a4c:	e59d4008 	ldr	r4, [sp, #8]
e0018a50:	e3c4400f 	bic	r4, r4, #15
e0018a54:	e1540000 	cmp	r4, r0
e0018a58:	0a00001b 	beq	e0018acc <decodeReadRegisters+0xb4>
e0018a5c:	e1a05003 	mov	r5, r3
e0018a60:	e5907008 	ldr	r7, [r0, #8]
e0018a64:	e3a01002 	mov	r1, #2
e0018a68:	ebfff0a6 	bl	e0014d08 <setThreadState>
e0018a6c:	e58d5000 	str	r5, [sp]
e0018a70:	e3a03000 	mov	r3, #0
e0018a74:	e1a02006 	mov	r2, r6
e0018a78:	e2071001 	and	r1, r7, #1
e0018a7c:	e1a00004 	mov	r0, r4
e0018a80:	ebffff89 	bl	e00188ac <invokeTCB_ReadRegisters>
e0018a84:	e28dd014 	add	sp, sp, #20
e0018a88:	e8bd80f0 	pop	{r4, r5, r6, r7, pc}
e0018a8c:	e3093030 	movw	r3, #36912	; 0x9030
e0018a90:	e34e3002 	movt	r3, #57346	; 0xe002
e0018a94:	e3a02007 	mov	r2, #7
e0018a98:	e5832018 	str	r2, [r3, #24]
e0018a9c:	e3a00003 	mov	r0, #3
e0018aa0:	eafffff7 	b	e0018a84 <decodeReadRegisters+0x6c>
e0018aa4:	e3093030 	movw	r3, #36912	; 0x9030
e0018aa8:	e34e3002 	movt	r3, #57346	; 0xe002
e0018aac:	e3a02004 	mov	r2, #4
e0018ab0:	e5832018 	str	r2, [r3, #24]
e0018ab4:	e3a02001 	mov	r2, #1
e0018ab8:	e5832008 	str	r2, [r3, #8]
e0018abc:	e3a02011 	mov	r2, #17
e0018ac0:	e583200c 	str	r2, [r3, #12]
e0018ac4:	e3a00003 	mov	r0, #3
e0018ac8:	eaffffed 	b	e0018a84 <decodeReadRegisters+0x6c>
e0018acc:	e3093030 	movw	r3, #36912	; 0x9030
e0018ad0:	e34e3002 	movt	r3, #57346	; 0xe002
e0018ad4:	e3a00003 	mov	r0, #3
e0018ad8:	e5830018 	str	r0, [r3, #24]
e0018adc:	eaffffe8 	b	e0018a84 <decodeReadRegisters+0x6c>

e0018ae0 <invokeTCB_WriteRegisters>:
e0018ae0:	e92d47f0 	push	{r4, r5, r6, r7, r8, r9, sl, lr}
e0018ae4:	e1a04000 	mov	r4, r0
e0018ae8:	e59dc020 	ldr	ip, [sp, #32]
e0018aec:	e3520011 	cmp	r2, #17
e0018af0:	31a05002 	movcc	r5, r2
e0018af4:	23a05011 	movcs	r5, #17
e0018af8:	e3520000 	cmp	r2, #0
e0018afc:	0a000037 	beq	e0018be0 <invokeTCB_WriteRegisters+0x100>
e0018b00:	e3a06002 	mov	r6, #2
e0018b04:	e3a03000 	mov	r3, #0
e0018b08:	e30b0768 	movw	r0, #46952	; 0xb768
e0018b0c:	e34e0001 	movt	r0, #57345	; 0xe001
e0018b10:	e2809088 	add	r9, r0, #136	; 0x88
e0018b14:	e3018b34 	movw	r8, #6964	; 0x1b34
e0018b18:	e34e8003 	movt	r8, #57347	; 0xe003
e0018b1c:	e280e060 	add	lr, r0, #96	; 0x60
e0018b20:	e1a00103 	lsl	r0, r3, #2
e0018b24:	e7997103 	ldr	r7, [r9, r3, lsl #2]
e0018b28:	e3560003 	cmp	r6, #3
e0018b2c:	95980000 	ldrls	r0, [r8]
e0018b30:	979ea106 	ldrls	sl, [lr, r6, lsl #2]
e0018b34:	9790010a 	ldrls	r0, [r0, sl, lsl #2]
e0018b38:	808c0000 	addhi	r0, ip, r0
e0018b3c:	8590000c 	ldrhi	r0, [r0, #12]
e0018b40:	e3570010 	cmp	r7, #16
e0018b44:	0200033e 	andeq	r0, r0, #-134217728	; 0xf8000000
e0018b48:	03800e15 	orreq	r0, r0, #336	; 0x150
e0018b4c:	e7840107 	str	r0, [r4, r7, lsl #2]
e0018b50:	e2833001 	add	r3, r3, #1
e0018b54:	e2866001 	add	r6, r6, #1
e0018b58:	e3530009 	cmp	r3, #9
e0018b5c:	83a00000 	movhi	r0, #0
e0018b60:	93a00001 	movls	r0, #1
e0018b64:	e1550003 	cmp	r5, r3
e0018b68:	93a00000 	movls	r0, #0
e0018b6c:	e3500000 	cmp	r0, #0
e0018b70:	1affffea 	bne	e0018b20 <invokeTCB_WriteRegisters+0x40>
e0018b74:	e352000a 	cmp	r2, #10
e0018b78:	9a000018 	bls	e0018be0 <invokeTCB_WriteRegisters+0x100>
e0018b7c:	e59fe09c 	ldr	lr, [pc, #156]	; e0018c20 <invokeTCB_WriteRegisters+0x140>
e0018b80:	e28cc034 	add	ip, ip, #52	; 0x34
e0018b84:	e3a0300c 	mov	r3, #12
e0018b88:	e3016b34 	movw	r6, #6964	; 0x1b34
e0018b8c:	e34e6003 	movt	r6, #57347	; 0xe003
e0018b90:	e24e704c 	sub	r7, lr, #76	; 0x4c
e0018b94:	ea000000 	b	e0018b9c <invokeTCB_WriteRegisters+0xbc>
e0018b98:	e1a03002 	mov	r3, r2
e0018b9c:	e5be0004 	ldr	r0, [lr, #4]!
e0018ba0:	e3530003 	cmp	r3, #3
e0018ba4:	95962000 	ldrls	r2, [r6]
e0018ba8:	97978103 	ldrls	r8, [r7, r3, lsl #2]
e0018bac:	97922108 	ldrls	r2, [r2, r8, lsl #2]
e0018bb0:	859c2000 	ldrhi	r2, [ip]
e0018bb4:	e3500010 	cmp	r0, #16
e0018bb8:	0202233e 	andeq	r2, r2, #-134217728	; 0xf8000000
e0018bbc:	03822e15 	orreq	r2, r2, #336	; 0x150
e0018bc0:	e7842100 	str	r2, [r4, r0, lsl #2]
e0018bc4:	e3530012 	cmp	r3, #18
e0018bc8:	0a000004 	beq	e0018be0 <invokeTCB_WriteRegisters+0x100>
e0018bcc:	e2832001 	add	r2, r3, #1
e0018bd0:	e28cc004 	add	ip, ip, #4
e0018bd4:	e2433001 	sub	r3, r3, #1
e0018bd8:	e1550003 	cmp	r5, r3
e0018bdc:	8affffed 	bhi	e0018b98 <invokeTCB_WriteRegisters+0xb8>
e0018be0:	e5943044 	ldr	r3, [r4, #68]	; 0x44
e0018be4:	e584303c 	str	r3, [r4, #60]	; 0x3c
e0018be8:	e3510000 	cmp	r1, #0
e0018bec:	1a000006 	bne	e0018c0c <invokeTCB_WriteRegisters+0x12c>
e0018bf0:	e3013b34 	movw	r3, #6964	; 0x1b34
e0018bf4:	e34e3003 	movt	r3, #57347	; 0xe003
e0018bf8:	e5933000 	ldr	r3, [r3]
e0018bfc:	e1530004 	cmp	r3, r4
e0018c00:	0a000004 	beq	e0018c18 <invokeTCB_WriteRegisters+0x138>
e0018c04:	e3a00000 	mov	r0, #0
e0018c08:	e8bd87f0 	pop	{r4, r5, r6, r7, r8, r9, sl, pc}
e0018c0c:	e1a00004 	mov	r0, r4
e0018c10:	ebfff747 	bl	e0016934 <restart>
e0018c14:	eafffff5 	b	e0018bf0 <invokeTCB_WriteRegisters+0x110>
e0018c18:	ebfff017 	bl	e0014c7c <rescheduleRequired>
e0018c1c:	eafffff8 	b	e0018c04 <invokeTCB_WriteRegisters+0x124>
e0018c20:	e001b814 	.word	0xe001b814

e0018c24 <decodeWriteRegisters>:
e0018c24:	e92d40f0 	push	{r4, r5, r6, r7, lr}
e0018c28:	e24dd014 	sub	sp, sp, #20
e0018c2c:	e28dc010 	add	ip, sp, #16
e0018c30:	e90c0003 	stmdb	ip, {r0, r1}
e0018c34:	e3520001 	cmp	r2, #1
e0018c38:	9a000016 	bls	e0018c98 <decodeWriteRegisters+0x74>
e0018c3c:	e3011b34 	movw	r1, #6964	; 0x1b34
e0018c40:	e34e1003 	movt	r1, #57347	; 0xe003
e0018c44:	e5910000 	ldr	r0, [r1]
e0018c48:	e590600c 	ldr	r6, [r0, #12]
e0018c4c:	e2422002 	sub	r2, r2, #2
e0018c50:	e1520006 	cmp	r2, r6
e0018c54:	3a000015 	bcc	e0018cb0 <decodeWriteRegisters+0x8c>
e0018c58:	e59d4008 	ldr	r4, [sp, #8]
e0018c5c:	e3c4400f 	bic	r4, r4, #15
e0018c60:	e1540000 	cmp	r4, r0
e0018c64:	0a000017 	beq	e0018cc8 <decodeWriteRegisters+0xa4>
e0018c68:	e1a05003 	mov	r5, r3
e0018c6c:	e5907008 	ldr	r7, [r0, #8]
e0018c70:	e3a01002 	mov	r1, #2
e0018c74:	ebfff023 	bl	e0014d08 <setThreadState>
e0018c78:	e58d5000 	str	r5, [sp]
e0018c7c:	e3a03000 	mov	r3, #0
e0018c80:	e1a02006 	mov	r2, r6
e0018c84:	e2071001 	and	r1, r7, #1
e0018c88:	e1a00004 	mov	r0, r4
e0018c8c:	ebffff93 	bl	e0018ae0 <invokeTCB_WriteRegisters>
e0018c90:	e28dd014 	add	sp, sp, #20
e0018c94:	e8bd80f0 	pop	{r4, r5, r6, r7, pc}
e0018c98:	e3093030 	movw	r3, #36912	; 0x9030
e0018c9c:	e34e3002 	movt	r3, #57346	; 0xe002
e0018ca0:	e3a02007 	mov	r2, #7
e0018ca4:	e5832018 	str	r2, [r3, #24]
e0018ca8:	e3a00003 	mov	r0, #3
e0018cac:	eafffff7 	b	e0018c90 <decodeWriteRegisters+0x6c>
e0018cb0:	e3093030 	movw	r3, #36912	; 0x9030
e0018cb4:	e34e3002 	movt	r3, #57346	; 0xe002
e0018cb8:	e3a02007 	mov	r2, #7
e0018cbc:	e5832018 	str	r2, [r3, #24]
e0018cc0:	e3a00003 	mov	r0, #3
e0018cc4:	eafffff1 	b	e0018c90 <decodeWriteRegisters+0x6c>
e0018cc8:	e3093030 	movw	r3, #36912	; 0x9030
e0018ccc:	e34e3002 	movt	r3, #57346	; 0xe002
e0018cd0:	e3a00003 	mov	r0, #3
e0018cd4:	e5830018 	str	r0, [r3, #24]
e0018cd8:	eaffffec 	b	e0018c90 <decodeWriteRegisters+0x6c>

e0018cdc <invokeTCB_NotificationControl>:
e0018cdc:	e92d4010 	push	{r4, lr}
e0018ce0:	e3510000 	cmp	r1, #0
e0018ce4:	0a000002 	beq	e0018cf4 <invokeTCB_NotificationControl+0x18>
e0018ce8:	ebffeb58 	bl	e0013a50 <bindNotification>
e0018cec:	e3a00000 	mov	r0, #0
e0018cf0:	e8bd8010 	pop	{r4, pc}
e0018cf4:	ebffeb4d 	bl	e0013a30 <unbindNotification>
e0018cf8:	eafffffb 	b	e0018cec <invokeTCB_NotificationControl+0x10>

e0018cfc <decodeBindNotification>:
e0018cfc:	e24dd008 	sub	sp, sp, #8
e0018d00:	e92d4030 	push	{r4, r5, lr}
e0018d04:	e24dd00c 	sub	sp, sp, #12
e0018d08:	e28dc008 	add	ip, sp, #8
e0018d0c:	e90c0003 	stmdb	ip, {r0, r1}
e0018d10:	e28d1014 	add	r1, sp, #20
e0018d14:	e981000c 	stmib	r1, {r2, r3}
e0018d18:	e59d3018 	ldr	r3, [sp, #24]
e0018d1c:	e3530000 	cmp	r3, #0
e0018d20:	0a00000c 	beq	e0018d58 <decodeBindNotification+0x5c>
e0018d24:	e59d4000 	ldr	r4, [sp]
e0018d28:	e3c4400f 	bic	r4, r4, #15
e0018d2c:	e594205c 	ldr	r2, [r4, #92]	; 0x5c
e0018d30:	e3520000 	cmp	r2, #0
e0018d34:	0a00000d 	beq	e0018d70 <decodeBindNotification+0x74>
e0018d38:	e3093030 	movw	r3, #36912	; 0x9030
e0018d3c:	e34e3002 	movt	r3, #57346	; 0xe002
e0018d40:	e3a00003 	mov	r0, #3
e0018d44:	e5830018 	str	r0, [r3, #24]
e0018d48:	e28dd00c 	add	sp, sp, #12
e0018d4c:	e8bd4030 	pop	{r4, r5, lr}
e0018d50:	e28dd008 	add	sp, sp, #8
e0018d54:	e12fff1e 	bx	lr
e0018d58:	e3093030 	movw	r3, #36912	; 0x9030
e0018d5c:	e34e3002 	movt	r3, #57346	; 0xe002
e0018d60:	e3a02007 	mov	r2, #7
e0018d64:	e5832018 	str	r2, [r3, #24]
e0018d68:	e3a00003 	mov	r0, #3
e0018d6c:	eafffff5 	b	e0018d48 <decodeBindNotification+0x4c>
e0018d70:	e5931000 	ldr	r1, [r3]
e0018d74:	e201200e 	and	r2, r1, #14
e0018d78:	e352000e 	cmp	r2, #14
e0018d7c:	1201200f 	andne	r2, r1, #15
e0018d80:	06ef2071 	uxtbeq	r2, r1
e0018d84:	e3520006 	cmp	r2, #6
e0018d88:	1a000012 	bne	e0018dd8 <decodeBindNotification+0xdc>
e0018d8c:	e5933004 	ldr	r3, [r3, #4]
e0018d90:	e3130002 	tst	r3, #2
e0018d94:	0a000014 	beq	e0018dec <decodeBindNotification+0xf0>
e0018d98:	e3c1500f 	bic	r5, r1, #15
e0018d9c:	e5953004 	ldr	r3, [r5, #4]
e0018da0:	e3d3300f 	bics	r3, r3, #15
e0018da4:	1a000015 	bne	e0018e00 <decodeBindNotification+0x104>
e0018da8:	e595300c 	ldr	r3, [r5, #12]
e0018dac:	e3d3300f 	bics	r3, r3, #15
e0018db0:	1a000012 	bne	e0018e00 <decodeBindNotification+0x104>
e0018db4:	e3013b34 	movw	r3, #6964	; 0x1b34
e0018db8:	e34e3003 	movt	r3, #57347	; 0xe003
e0018dbc:	e3a01002 	mov	r1, #2
e0018dc0:	e5930000 	ldr	r0, [r3]
e0018dc4:	ebffefcf 	bl	e0014d08 <setThreadState>
e0018dc8:	e1a01005 	mov	r1, r5
e0018dcc:	e1a00004 	mov	r0, r4
e0018dd0:	ebffffc1 	bl	e0018cdc <invokeTCB_NotificationControl>
e0018dd4:	eaffffdb 	b	e0018d48 <decodeBindNotification+0x4c>
e0018dd8:	e3093030 	movw	r3, #36912	; 0x9030
e0018ddc:	e34e3002 	movt	r3, #57346	; 0xe002
e0018de0:	e3a00003 	mov	r0, #3
e0018de4:	e5830018 	str	r0, [r3, #24]
e0018de8:	eaffffd6 	b	e0018d48 <decodeBindNotification+0x4c>
e0018dec:	e3093030 	movw	r3, #36912	; 0x9030
e0018df0:	e34e3002 	movt	r3, #57346	; 0xe002
e0018df4:	e3a00003 	mov	r0, #3
e0018df8:	e5830018 	str	r0, [r3, #24]
e0018dfc:	eaffffd1 	b	e0018d48 <decodeBindNotification+0x4c>
e0018e00:	e3093030 	movw	r3, #36912	; 0x9030
e0018e04:	e34e3002 	movt	r3, #57346	; 0xe002
e0018e08:	e3a00003 	mov	r0, #3
e0018e0c:	e5830018 	str	r0, [r3, #24]
e0018e10:	eaffffcc 	b	e0018d48 <decodeBindNotification+0x4c>

e0018e14 <decodeUnbindNotification>:
e0018e14:	e92d4010 	push	{r4, lr}
e0018e18:	e24dd008 	sub	sp, sp, #8
e0018e1c:	e28d3008 	add	r3, sp, #8
e0018e20:	e9030003 	stmdb	r3, {r0, r1}
e0018e24:	e59d4000 	ldr	r4, [sp]
e0018e28:	e3c4400f 	bic	r4, r4, #15
e0018e2c:	e594305c 	ldr	r3, [r4, #92]	; 0x5c
e0018e30:	e3530000 	cmp	r3, #0
e0018e34:	0a000009 	beq	e0018e60 <decodeUnbindNotification+0x4c>
e0018e38:	e3013b34 	movw	r3, #6964	; 0x1b34
e0018e3c:	e34e3003 	movt	r3, #57347	; 0xe003
e0018e40:	e3a01002 	mov	r1, #2
e0018e44:	e5930000 	ldr	r0, [r3]
e0018e48:	ebffefae 	bl	e0014d08 <setThreadState>
e0018e4c:	e3a01000 	mov	r1, #0
e0018e50:	e1a00004 	mov	r0, r4
e0018e54:	ebffffa0 	bl	e0018cdc <invokeTCB_NotificationControl>
e0018e58:	e28dd008 	add	sp, sp, #8
e0018e5c:	e8bd8010 	pop	{r4, pc}
e0018e60:	e3093030 	movw	r3, #36912	; 0x9030
e0018e64:	e34e3002 	movt	r3, #57346	; 0xe002
e0018e68:	e3a00003 	mov	r0, #3
e0018e6c:	e5830018 	str	r0, [r3, #24]
e0018e70:	eafffff8 	b	e0018e58 <decodeUnbindNotification+0x44>

e0018e74 <decodeTCBInvocation>:
e0018e74:	e92d4070 	push	{r4, r5, r6, lr}
e0018e78:	e24dd018 	sub	sp, sp, #24
e0018e7c:	e1a0c001 	mov	ip, r1
e0018e80:	e28d1018 	add	r1, sp, #24
e0018e84:	e901000c 	stmdb	r1, {r2, r3}
e0018e88:	e59d4010 	ldr	r4, [sp, #16]
e0018e8c:	e2400002 	sub	r0, r0, #2
e0018e90:	e350000d 	cmp	r0, #13
e0018e94:	979ff100 	ldrls	pc, [pc, r0, lsl #2]
e0018e98:	ea00009e 	b	e0019118 <decodeTCBInvocation+0x2a4>
e0018e9c:	e0018ed4 	.word	0xe0018ed4
e0018ea0:	e0018ef8 	.word	0xe0018ef8
e0018ea4:	e0018f10 	.word	0xe0018f10
e0018ea8:	e0018f84 	.word	0xe0018f84
e0018eac:	e0018fb0 	.word	0xe0018fb0
e0018eb0:	e0018fdc 	.word	0xe0018fdc
e0018eb4:	e0019008 	.word	0xe0019008
e0018eb8:	e0019034 	.word	0xe0019034
e0018ebc:	e0019060 	.word	0xe0019060
e0018ec0:	e0018f3c 	.word	0xe0018f3c
e0018ec4:	e0018f60 	.word	0xe0018f60
e0018ec8:	e001908c 	.word	0xe001908c
e0018ecc:	e00190ac 	.word	0xe00190ac
e0018ed0:	e00190bc 	.word	0xe00190bc
e0018ed4:	e59d303c 	ldr	r3, [sp, #60]	; 0x3c
e0018ed8:	e58d3000 	str	r3, [sp]
e0018edc:	e59d3038 	ldr	r3, [sp, #56]	; 0x38
e0018ee0:	e1a0200c 	mov	r2, ip
e0018ee4:	e28d1018 	add	r1, sp, #24
e0018ee8:	e9110003 	ldmdb	r1, {r0, r1}
e0018eec:	ebfffec9 	bl	e0018a18 <decodeReadRegisters>
e0018ef0:	e28dd018 	add	sp, sp, #24
e0018ef4:	e8bd8070 	pop	{r4, r5, r6, pc}
e0018ef8:	e59d303c 	ldr	r3, [sp, #60]	; 0x3c
e0018efc:	e1a0200c 	mov	r2, ip
e0018f00:	e28d1018 	add	r1, sp, #24
e0018f04:	e9110003 	ldmdb	r1, {r0, r1}
e0018f08:	ebffff45 	bl	e0018c24 <decodeWriteRegisters>
e0018f0c:	eafffff7 	b	e0018ef0 <decodeTCBInvocation+0x7c>
e0018f10:	e59d303c 	ldr	r3, [sp, #60]	; 0x3c
e0018f14:	e58d3008 	str	r3, [sp, #8]
e0018f18:	e28d3030 	add	r3, sp, #48	; 0x30
e0018f1c:	e8930003 	ldm	r3, {r0, r1}
e0018f20:	e88d0003 	stm	sp, {r0, r1}
e0018f24:	e59d302c 	ldr	r3, [sp, #44]	; 0x2c
e0018f28:	e1a0200c 	mov	r2, ip
e0018f2c:	e28d1018 	add	r1, sp, #24
e0018f30:	e9110003 	ldmdb	r1, {r0, r1}
e0018f34:	ebfffe28 	bl	e00187dc <decodeCopyRegisters>
e0018f38:	eaffffec 	b	e0018ef0 <decodeTCBInvocation+0x7c>
e0018f3c:	e3013b34 	movw	r3, #6964	; 0x1b34
e0018f40:	e34e3003 	movt	r3, #57347	; 0xe003
e0018f44:	e3a01002 	mov	r1, #2
e0018f48:	e5930000 	ldr	r0, [r3]
e0018f4c:	ebffef6d 	bl	e0014d08 <setThreadState>
e0018f50:	e3c4000f 	bic	r0, r4, #15
e0018f54:	ebfff2c5 	bl	e0015a70 <suspend>
e0018f58:	e3a00000 	mov	r0, #0
e0018f5c:	eaffffe3 	b	e0018ef0 <decodeTCBInvocation+0x7c>
e0018f60:	e3013b34 	movw	r3, #6964	; 0x1b34
e0018f64:	e34e3003 	movt	r3, #57347	; 0xe003
e0018f68:	e3a01002 	mov	r1, #2
e0018f6c:	e5930000 	ldr	r0, [r3]
e0018f70:	ebffef64 	bl	e0014d08 <setThreadState>
e0018f74:	e3c4000f 	bic	r0, r4, #15
e0018f78:	ebfff66d 	bl	e0016934 <restart>
e0018f7c:	e3a00000 	mov	r0, #0
e0018f80:	eaffffda 	b	e0018ef0 <decodeTCBInvocation+0x7c>
e0018f84:	e59d303c 	ldr	r3, [sp, #60]	; 0x3c
e0018f88:	e58d300c 	str	r3, [sp, #12]
e0018f8c:	e28d302c 	add	r3, sp, #44	; 0x2c
e0018f90:	e8930007 	ldm	r3, {r0, r1, r2}
e0018f94:	e88d0007 	stm	sp, {r0, r1, r2}
e0018f98:	e59d3028 	ldr	r3, [sp, #40]	; 0x28
e0018f9c:	e1a0200c 	mov	r2, ip
e0018fa0:	e28d1018 	add	r1, sp, #24
e0018fa4:	e9110003 	ldmdb	r1, {r0, r1}
e0018fa8:	ebfffb55 	bl	e0017d04 <decodeTCBConfigure>
e0018fac:	eaffffcf 	b	e0018ef0 <decodeTCBInvocation+0x7c>
e0018fb0:	e59d303c 	ldr	r3, [sp, #60]	; 0x3c
e0018fb4:	e58d3008 	str	r3, [sp, #8]
e0018fb8:	e28d3030 	add	r3, sp, #48	; 0x30
e0018fbc:	e8930003 	ldm	r3, {r0, r1}
e0018fc0:	e88d0003 	stm	sp, {r0, r1}
e0018fc4:	e59d302c 	ldr	r3, [sp, #44]	; 0x2c
e0018fc8:	e1a0200c 	mov	r2, ip
e0018fcc:	e28d1018 	add	r1, sp, #24
e0018fd0:	e9110003 	ldmdb	r1, {r0, r1}
e0018fd4:	ebfffbfb 	bl	e0017fc8 <decodeSetPriority>
e0018fd8:	eaffffc4 	b	e0018ef0 <decodeTCBInvocation+0x7c>
e0018fdc:	e59d303c 	ldr	r3, [sp, #60]	; 0x3c
e0018fe0:	e58d3008 	str	r3, [sp, #8]
e0018fe4:	e28d3030 	add	r3, sp, #48	; 0x30
e0018fe8:	e8930003 	ldm	r3, {r0, r1}
e0018fec:	e88d0003 	stm	sp, {r0, r1}
e0018ff0:	e59d302c 	ldr	r3, [sp, #44]	; 0x2c
e0018ff4:	e1a0200c 	mov	r2, ip
e0018ff8:	e28d1018 	add	r1, sp, #24
e0018ffc:	e9110003 	ldmdb	r1, {r0, r1}
e0019000:	ebfffc3e 	bl	e0018100 <decodeSetMCPriority>
e0019004:	eaffffb9 	b	e0018ef0 <decodeTCBInvocation+0x7c>
e0019008:	e59d303c 	ldr	r3, [sp, #60]	; 0x3c
e001900c:	e58d3008 	str	r3, [sp, #8]
e0019010:	e28d3030 	add	r3, sp, #48	; 0x30
e0019014:	e8930003 	ldm	r3, {r0, r1}
e0019018:	e88d0003 	stm	sp, {r0, r1}
e001901c:	e59d302c 	ldr	r3, [sp, #44]	; 0x2c
e0019020:	e1a0200c 	mov	r2, ip
e0019024:	e28d1018 	add	r1, sp, #24
e0019028:	e9110003 	ldmdb	r1, {r0, r1}
e001902c:	ebfffc81 	bl	e0018238 <decodeSetSchedParams>
e0019030:	eaffffae 	b	e0018ef0 <decodeTCBInvocation+0x7c>
e0019034:	e59d303c 	ldr	r3, [sp, #60]	; 0x3c
e0019038:	e58d300c 	str	r3, [sp, #12]
e001903c:	e28d302c 	add	r3, sp, #44	; 0x2c
e0019040:	e8930007 	ldm	r3, {r0, r1, r2}
e0019044:	e88d0007 	stm	sp, {r0, r1, r2}
e0019048:	e59d3028 	ldr	r3, [sp, #40]	; 0x28
e001904c:	e1a0200c 	mov	r2, ip
e0019050:	e28d1018 	add	r1, sp, #24
e0019054:	e9110003 	ldmdb	r1, {r0, r1}
e0019058:	ebfffcd0 	bl	e00183a0 <decodeSetIPCBuffer>
e001905c:	eaffffa3 	b	e0018ef0 <decodeTCBInvocation+0x7c>
e0019060:	e59d303c 	ldr	r3, [sp, #60]	; 0x3c
e0019064:	e58d300c 	str	r3, [sp, #12]
e0019068:	e28d302c 	add	r3, sp, #44	; 0x2c
e001906c:	e8930007 	ldm	r3, {r0, r1, r2}
e0019070:	e88d0007 	stm	sp, {r0, r1, r2}
e0019074:	e59d3028 	ldr	r3, [sp, #40]	; 0x28
e0019078:	e1a0200c 	mov	r2, ip
e001907c:	e28d1018 	add	r1, sp, #24
e0019080:	e9110003 	ldmdb	r1, {r0, r1}
e0019084:	ebfffd0f 	bl	e00184c8 <decodeSetSpace>
e0019088:	eaffff98 	b	e0018ef0 <decodeTCBInvocation+0x7c>
e001908c:	e59d3034 	ldr	r3, [sp, #52]	; 0x34
e0019090:	e58d3000 	str	r3, [sp]
e0019094:	e28d302c 	add	r3, sp, #44	; 0x2c
e0019098:	e893000c 	ldm	r3, {r2, r3}
e001909c:	e28d1018 	add	r1, sp, #24
e00190a0:	e9110003 	ldmdb	r1, {r0, r1}
e00190a4:	ebffff14 	bl	e0018cfc <decodeBindNotification>
e00190a8:	eaffff90 	b	e0018ef0 <decodeTCBInvocation+0x7c>
e00190ac:	e28d3018 	add	r3, sp, #24
e00190b0:	e9130003 	ldmdb	r3, {r0, r1}
e00190b4:	ebffff56 	bl	e0018e14 <decodeUnbindNotification>
e00190b8:	eaffff8c 	b	e0018ef0 <decodeTCBInvocation+0x7c>
e00190bc:	e35c0000 	cmp	ip, #0
e00190c0:	0a00000e 	beq	e0019100 <decodeTCBInvocation+0x28c>
e00190c4:	e3015b34 	movw	r5, #6964	; 0x1b34
e00190c8:	e34e5003 	movt	r5, #57347	; 0xe003
e00190cc:	e5950000 	ldr	r0, [r5]
e00190d0:	e5906008 	ldr	r6, [r0, #8]
e00190d4:	e3a01002 	mov	r1, #2
e00190d8:	ebffef0a 	bl	e0014d08 <setThreadState>
e00190dc:	e3c4400f 	bic	r4, r4, #15
e00190e0:	e5846048 	str	r6, [r4, #72]	; 0x48
e00190e4:	e5953000 	ldr	r3, [r5]
e00190e8:	e1540003 	cmp	r4, r3
e00190ec:	13a00000 	movne	r0, #0
e00190f0:	1affff7e 	bne	e0018ef0 <decodeTCBInvocation+0x7c>
e00190f4:	ebffeee0 	bl	e0014c7c <rescheduleRequired>
e00190f8:	e3a00000 	mov	r0, #0
e00190fc:	eaffff7b 	b	e0018ef0 <decodeTCBInvocation+0x7c>
e0019100:	e3093030 	movw	r3, #36912	; 0x9030
e0019104:	e34e3002 	movt	r3, #57346	; 0xe002
e0019108:	e3a02007 	mov	r2, #7
e001910c:	e5832018 	str	r2, [r3, #24]
e0019110:	e3a00003 	mov	r0, #3
e0019114:	eaffff75 	b	e0018ef0 <decodeTCBInvocation+0x7c>
e0019118:	e3093030 	movw	r3, #36912	; 0x9030
e001911c:	e34e3002 	movt	r3, #57346	; 0xe002
e0019120:	e3a00003 	mov	r0, #3
e0019124:	e5830018 	str	r0, [r3, #24]
e0019128:	eaffff70 	b	e0018ef0 <decodeTCBInvocation+0x7c>

e001912c <setMRs_syscall_error>:
e001912c:	e92d4010 	push	{r4, lr}
e0019130:	e3093030 	movw	r3, #36912	; 0x9030
e0019134:	e34e3002 	movt	r3, #57346	; 0xe002
e0019138:	e5933018 	ldr	r3, [r3, #24]
e001913c:	e2433001 	sub	r3, r3, #1
e0019140:	e3530009 	cmp	r3, #9
e0019144:	979ff103 	ldrls	pc, [pc, r3, lsl #2]
e0019148:	ea00004b 	b	e001927c <setMRs_syscall_error+0x150>
e001914c:	e0019174 	.word	0xe0019174
e0019150:	e001918c 	.word	0xe001918c
e0019154:	e0019280 	.word	0xe0019280
e0019158:	e00191a4 	.word	0xe00191a4
e001915c:	e0019280 	.word	0xe0019280
e0019160:	e00191c4 	.word	0xe00191c4
e0019164:	e0019280 	.word	0xe0019280
e0019168:	e0019280 	.word	0xe0019280
e001916c:	e0019280 	.word	0xe0019280
e0019170:	e0019264 	.word	0xe0019264
e0019174:	e3093030 	movw	r3, #36912	; 0x9030
e0019178:	e34e3002 	movt	r3, #57346	; 0xe002
e001917c:	e5933000 	ldr	r3, [r3]
e0019180:	e5803008 	str	r3, [r0, #8]
e0019184:	e3a00001 	mov	r0, #1
e0019188:	e8bd8010 	pop	{r4, pc}
e001918c:	e3093030 	movw	r3, #36912	; 0x9030
e0019190:	e34e3002 	movt	r3, #57346	; 0xe002
e0019194:	e5933004 	ldr	r3, [r3, #4]
e0019198:	e5803008 	str	r3, [r0, #8]
e001919c:	e3a00001 	mov	r0, #1
e00191a0:	e8bd8010 	pop	{r4, pc}
e00191a4:	e3093030 	movw	r3, #36912	; 0x9030
e00191a8:	e34e3002 	movt	r3, #57346	; 0xe002
e00191ac:	e5932008 	ldr	r2, [r3, #8]
e00191b0:	e5802008 	str	r2, [r0, #8]
e00191b4:	e593300c 	ldr	r3, [r3, #12]
e00191b8:	e580300c 	str	r3, [r0, #12]
e00191bc:	e3a00002 	mov	r0, #2
e00191c0:	e8bd8010 	pop	{r4, pc}
e00191c4:	e3093030 	movw	r3, #36912	; 0x9030
e00191c8:	e34e3002 	movt	r3, #57346	; 0xe002
e00191cc:	e5933014 	ldr	r3, [r3, #20]
e00191d0:	e2933000 	adds	r3, r3, #0
e00191d4:	13a03001 	movne	r3, #1
e00191d8:	e5803008 	str	r3, [r0, #8]
e00191dc:	e3093024 	movw	r3, #36900	; 0x9024
e00191e0:	e34e3002 	movt	r3, #57346	; 0xe002
e00191e4:	e5932000 	ldr	r2, [r3]
e00191e8:	e593e004 	ldr	lr, [r3, #4]
e00191ec:	e2023003 	and	r3, r2, #3
e00191f0:	e283c001 	add	ip, r3, #1
e00191f4:	e580c00c 	str	ip, [r0, #12]
e00191f8:	e3530003 	cmp	r3, #3
e00191fc:	979ff103 	ldrls	pc, [pc, r3, lsl #2]
e0019200:	ea000016 	b	e0019260 <setMRs_syscall_error+0x134>
e0019204:	e0019288 	.word	0xe0019288
e0019208:	e0019214 	.word	0xe0019214
e001920c:	e0019224 	.word	0xe0019224
e0019210:	e001923c 	.word	0xe001923c
e0019214:	e7e52152 	ubfx	r2, r2, #2, #6
e0019218:	e5802010 	str	r2, [r0, #16]
e001921c:	e3a00003 	mov	r0, #3
e0019220:	e8bd8010 	pop	{r4, pc}
e0019224:	e7e53152 	ubfx	r3, r2, #2, #6
e0019228:	e5803010 	str	r3, [r0, #16]
e001922c:	e7e52452 	ubfx	r2, r2, #8, #6
e0019230:	e5802014 	str	r2, [r0, #20]
e0019234:	e3a00004 	mov	r0, #4
e0019238:	e8bd8010 	pop	{r4, pc}
e001923c:	e7e53452 	ubfx	r3, r2, #8, #6
e0019240:	e5803010 	str	r3, [r0, #16]
e0019244:	e580e014 	str	lr, [r0, #20]
e0019248:	e3510000 	cmp	r1, #0
e001924c:	0a00000f 	beq	e0019290 <setMRs_syscall_error+0x164>
e0019250:	e7e52152 	ubfx	r2, r2, #2, #6
e0019254:	e5812014 	str	r2, [r1, #20]
e0019258:	e3a00005 	mov	r0, #5
e001925c:	e8bd8010 	pop	{r4, pc}
e0019260:	ebffdd82 	bl	e0010870 <halt>
e0019264:	e3093030 	movw	r3, #36912	; 0x9030
e0019268:	e34e3002 	movt	r3, #57346	; 0xe002
e001926c:	e5933010 	ldr	r3, [r3, #16]
e0019270:	e5803008 	str	r3, [r0, #8]
e0019274:	e3a00001 	mov	r0, #1
e0019278:	e8bd8010 	pop	{r4, pc}
e001927c:	ebffdd7b 	bl	e0010870 <halt>
e0019280:	e3a00000 	mov	r0, #0
e0019284:	e8bd8010 	pop	{r4, pc}
e0019288:	e3a00002 	mov	r0, #2
e001928c:	e8bd8010 	pop	{r4, pc}
e0019290:	e3a00004 	mov	r0, #4
e0019294:	e8bd8010 	pop	{r4, pc}

e0019298 <replyFromKernel_error>:
e0019298:	e92d4010 	push	{r4, lr}
e001929c:	e1a04000 	mov	r4, r0
e00192a0:	e1a01000 	mov	r1, r0
e00192a4:	e3a00001 	mov	r0, #1
e00192a8:	ebffde48 	bl	e0010bd0 <lookupIPCBuffer>
e00192ac:	e3a03000 	mov	r3, #0
e00192b0:	e5843000 	str	r3, [r4]
e00192b4:	e1a01000 	mov	r1, r0
e00192b8:	e1a00004 	mov	r0, r4
e00192bc:	ebffff9a 	bl	e001912c <setMRs_syscall_error>
e00192c0:	e3093030 	movw	r3, #36912	; 0x9030
e00192c4:	e34e3002 	movt	r3, #57346	; 0xe002
e00192c8:	e5933018 	ldr	r3, [r3, #24]
e00192cc:	e200007f 	and	r0, r0, #127	; 0x7f
e00192d0:	e1800603 	orr	r0, r0, r3, lsl #12
e00192d4:	e5840004 	str	r0, [r4, #4]
e00192d8:	e8bd8010 	pop	{r4, pc}

e00192dc <strnlen>:
e00192dc:	e3510000 	cmp	r1, #0
e00192e0:	0a00000b 	beq	e0019314 <strnlen+0x38>
e00192e4:	e5d03000 	ldrb	r3, [r0]
e00192e8:	e3530000 	cmp	r3, #0
e00192ec:	0a00000a 	beq	e001931c <strnlen+0x40>
e00192f0:	e1a03000 	mov	r3, r0
e00192f4:	e3a00000 	mov	r0, #0
e00192f8:	e2800001 	add	r0, r0, #1
e00192fc:	e1510000 	cmp	r1, r0
e0019300:	012fff1e 	bxeq	lr
e0019304:	e5f32001 	ldrb	r2, [r3, #1]!
e0019308:	e3520000 	cmp	r2, #0
e001930c:	1afffff9 	bne	e00192f8 <strnlen+0x1c>
e0019310:	e12fff1e 	bx	lr
e0019314:	e1a00001 	mov	r0, r1
e0019318:	e12fff1e 	bx	lr
e001931c:	e3a00000 	mov	r0, #0
e0019320:	e12fff1e 	bx	lr

e0019324 <strlcpy>:
e0019324:	e3520001 	cmp	r2, #1
e0019328:	9a000013 	bls	e001937c <strlcpy+0x58>
e001932c:	e5d1c000 	ldrb	ip, [r1]
e0019330:	e35c0000 	cmp	ip, #0
e0019334:	0a000015 	beq	e0019390 <strlcpy+0x6c>
e0019338:	e92d4010 	push	{r4, lr}
e001933c:	e240e001 	sub	lr, r0, #1
e0019340:	e2813001 	add	r3, r1, #1
e0019344:	e1a04001 	mov	r4, r1
e0019348:	e0812002 	add	r2, r1, r2
e001934c:	e2422001 	sub	r2, r2, #1
e0019350:	e0431004 	sub	r1, r3, r4
e0019354:	e5eec001 	strb	ip, [lr, #1]!
e0019358:	e1530002 	cmp	r3, r2
e001935c:	0a000002 	beq	e001936c <strlcpy+0x48>
e0019360:	e4d3c001 	ldrb	ip, [r3], #1
e0019364:	e35c0000 	cmp	ip, #0
e0019368:	1afffff8 	bne	e0019350 <strlcpy+0x2c>
e001936c:	e3a03000 	mov	r3, #0
e0019370:	e7c03001 	strb	r3, [r0, r1]
e0019374:	e1a00001 	mov	r0, r1
e0019378:	e8bd8010 	pop	{r4, pc}
e001937c:	e3a01000 	mov	r1, #0
e0019380:	e3a03000 	mov	r3, #0
e0019384:	e7c03001 	strb	r3, [r0, r1]
e0019388:	e1a00001 	mov	r0, r1
e001938c:	e12fff1e 	bx	lr
e0019390:	e3a01000 	mov	r1, #0
e0019394:	eafffff9 	b	e0019380 <strlcpy+0x5c>

e0019398 <strlcat>:
e0019398:	e3520000 	cmp	r2, #0
e001939c:	0a000024 	beq	e0019434 <strlcat+0x9c>
e00193a0:	e92d4010 	push	{r4, lr}
e00193a4:	e5d03000 	ldrb	r3, [r0]
e00193a8:	e3530000 	cmp	r3, #0
e00193ac:	0a000012 	beq	e00193fc <strlcat+0x64>
e00193b0:	e1a0c000 	mov	ip, r0
e00193b4:	e3a03000 	mov	r3, #0
e00193b8:	e2833001 	add	r3, r3, #1
e00193bc:	e1520003 	cmp	r2, r3
e00193c0:	0a000019 	beq	e001942c <strlcat+0x94>
e00193c4:	e5fce001 	ldrb	lr, [ip, #1]!
e00193c8:	e35e0000 	cmp	lr, #0
e00193cc:	1afffff9 	bne	e00193b8 <strlcat+0x20>
e00193d0:	e2834001 	add	r4, r3, #1
e00193d4:	e1520004 	cmp	r2, r4
e00193d8:	9a000011 	bls	e0019424 <strlcat+0x8c>
e00193dc:	e5d1c000 	ldrb	ip, [r1]
e00193e0:	e35c0000 	cmp	ip, #0
e00193e4:	0a00000e 	beq	e0019424 <strlcat+0x8c>
e00193e8:	e2433001 	sub	r3, r3, #1
e00193ec:	e080e003 	add	lr, r0, r3
e00193f0:	e2422001 	sub	r2, r2, #1
e00193f4:	e1a03004 	mov	r3, r4
e00193f8:	ea000002 	b	e0019408 <strlcat+0x70>
e00193fc:	e3a03000 	mov	r3, #0
e0019400:	eafffff2 	b	e00193d0 <strlcat+0x38>
e0019404:	e1a03004 	mov	r3, r4
e0019408:	e5eec001 	strb	ip, [lr, #1]!
e001940c:	e1530002 	cmp	r3, r2
e0019410:	0a000003 	beq	e0019424 <strlcat+0x8c>
e0019414:	e5f1c001 	ldrb	ip, [r1, #1]!
e0019418:	e2834001 	add	r4, r3, #1
e001941c:	e35c0000 	cmp	ip, #0
e0019420:	1afffff7 	bne	e0019404 <strlcat+0x6c>
e0019424:	e3a02000 	mov	r2, #0
e0019428:	e7c02003 	strb	r2, [r0, r3]
e001942c:	e1a00003 	mov	r0, r3
e0019430:	e8bd8010 	pop	{r4, pc}
e0019434:	e1a00002 	mov	r0, r2
e0019438:	e12fff1e 	bx	lr

e001943c <memzero>:
e001943c:	e3510000 	cmp	r1, #0
e0019440:	012fff1e 	bxeq	lr
e0019444:	e3a03000 	mov	r3, #0
e0019448:	e4803004 	str	r3, [r0], #4
e001944c:	e2511004 	subs	r1, r1, #4
e0019450:	1afffffc 	bne	e0019448 <memzero+0xc>
e0019454:	e12fff1e 	bx	lr

e0019458 <invokeUntyped_Retype>:
e0019458:	e92d4ff0 	push	{r4, r5, r6, r7, r8, r9, sl, fp, lr}
e001945c:	e24dd014 	sub	sp, sp, #20
e0019460:	e1a04000 	mov	r4, r0
e0019464:	e1a0b002 	mov	fp, r2
e0019468:	e1a0a003 	mov	sl, r3
e001946c:	e5909000 	ldr	r9, [r0]
e0019470:	e3c9500f 	bic	r5, r9, #15
e0019474:	e3510000 	cmp	r1, #0
e0019478:	0a00000f 	beq	e00194bc <invokeUntyped_Retype+0x64>
e001947c:	e5908004 	ldr	r8, [r0, #4]
e0019480:	e1a06328 	lsr	r6, r8, #6
e0019484:	e1b06206 	lsls	r6, r6, #4
e0019488:	0a00000b 	beq	e00194bc <invokeUntyped_Retype+0x64>
e001948c:	e208201f 	and	r2, r8, #31
e0019490:	e7e032d8 	ubfx	r3, r8, #5, #1
e0019494:	e3520007 	cmp	r2, #7
e0019498:	81a01003 	movhi	r1, r3
e001949c:	93831001 	orrls	r1, r3, #1
e00194a0:	e3510000 	cmp	r1, #0
e00194a4:	0a000028 	beq	e001954c <invokeUntyped_Retype+0xf4>
e00194a8:	e3530000 	cmp	r3, #0
e00194ac:	0a00001b 	beq	e0019520 <invokeUntyped_Retype+0xc8>
e00194b0:	e5849000 	str	r9, [r4]
e00194b4:	e208803f 	and	r8, r8, #63	; 0x3f
e00194b8:	e5848004 	str	r8, [r4, #4]
e00194bc:	e59d6044 	ldr	r6, [sp, #68]	; 0x44
e00194c0:	e59d1038 	ldr	r1, [sp, #56]	; 0x38
e00194c4:	e1a0000a 	mov	r0, sl
e00194c8:	ebffe967 	bl	e0013a6c <getObjectSize>
e00194cc:	e04b5005 	sub	r5, fp, r5
e00194d0:	e0855016 	add	r5, r5, r6, lsl r0
e00194d4:	e1a05225 	lsr	r5, r5, #4
e00194d8:	e5940004 	ldr	r0, [r4, #4]
e00194dc:	e200003f 	and	r0, r0, #63	; 0x3f
e00194e0:	e1805305 	orr	r5, r0, r5, lsl #6
e00194e4:	e5845004 	str	r5, [r4, #4]
e00194e8:	e59d3048 	ldr	r3, [sp, #72]	; 0x48
e00194ec:	e58d300c 	str	r3, [sp, #12]
e00194f0:	e59d3038 	ldr	r3, [sp, #56]	; 0x38
e00194f4:	e58d3008 	str	r3, [sp, #8]
e00194f8:	e58db004 	str	fp, [sp, #4]
e00194fc:	e58d6000 	str	r6, [sp]
e0019500:	e28d303c 	add	r3, sp, #60	; 0x3c
e0019504:	e893000c 	ldm	r3, {r2, r3}
e0019508:	e1a01004 	mov	r1, r4
e001950c:	e1a0000a 	mov	r0, sl
e0019510:	ebffed89 	bl	e0014b3c <createNewObjects>
e0019514:	e3a00000 	mov	r0, #0
e0019518:	e28dd014 	add	sp, sp, #20
e001951c:	e8bd8ff0 	pop	{r4, r5, r6, r7, r8, r9, sl, fp, pc}
e0019520:	e3a06001 	mov	r6, #1
e0019524:	e1a06216 	lsl	r6, r6, r2
e0019528:	e1a01006 	mov	r1, r6
e001952c:	e1a00005 	mov	r0, r5
e0019530:	ebffffc1 	bl	e001943c <memzero>
e0019534:	e2451001 	sub	r1, r5, #1
e0019538:	e2852203 	add	r2, r5, #805306368	; 0x30000000
e001953c:	e0811006 	add	r1, r1, r6
e0019540:	e1a00005 	mov	r0, r5
e0019544:	ebffe37d 	bl	e0012340 <cleanCacheRange_PoU>
e0019548:	eaffffd8 	b	e00194b0 <invokeUntyped_Retype+0x58>
e001954c:	e2466001 	sub	r6, r6, #1
e0019550:	e3c660ff 	bic	r6, r6, #255	; 0xff
e0019554:	e3760c01 	cmn	r6, #256	; 0x100
e0019558:	0affffd7 	beq	e00194bc <invokeUntyped_Retype+0x64>
e001955c:	e0857006 	add	r7, r5, r6
e0019560:	e208803f 	and	r8, r8, #63	; 0x3f
e0019564:	e3a01c01 	mov	r1, #256	; 0x100
e0019568:	e1a00007 	mov	r0, r7
e001956c:	ebffffb2 	bl	e001943c <memzero>
e0019570:	e2872203 	add	r2, r7, #805306368	; 0x30000000
e0019574:	e28710ff 	add	r1, r7, #255	; 0xff
e0019578:	e1a00007 	mov	r0, r7
e001957c:	ebffe36f 	bl	e0012340 <cleanCacheRange_PoU>
e0019580:	e5849000 	str	r9, [r4]
e0019584:	e1a03226 	lsr	r3, r6, #4
e0019588:	e1883303 	orr	r3, r8, r3, lsl #6
e001958c:	e5843004 	str	r3, [r4, #4]
e0019590:	ebffe6fa 	bl	e0013180 <preemptionPoint>
e0019594:	e3500000 	cmp	r0, #0
e0019598:	1affffde 	bne	e0019518 <invokeUntyped_Retype+0xc0>
e001959c:	e2466c01 	sub	r6, r6, #256	; 0x100
e00195a0:	e2477c01 	sub	r7, r7, #256	; 0x100
e00195a4:	e3760c01 	cmn	r6, #256	; 0x100
e00195a8:	1affffed 	bne	e0019564 <invokeUntyped_Retype+0x10c>
e00195ac:	eaffffc2 	b	e00194bc <invokeUntyped_Retype+0x64>

e00195b0 <decodeUntypedInvocation>:
e00195b0:	e24dd008 	sub	sp, sp, #8
e00195b4:	e92d4ff0 	push	{r4, r5, r6, r7, r8, r9, sl, fp, lr}
e00195b8:	e24dd044 	sub	sp, sp, #68	; 0x44
e00195bc:	e58d306c 	str	r3, [sp, #108]	; 0x6c
e00195c0:	e3500001 	cmp	r0, #1
e00195c4:	1a000078 	bne	e00197ac <decodeUntypedInvocation+0x1fc>
e00195c8:	e59d4074 	ldr	r4, [sp, #116]	; 0x74
e00195cc:	e3540000 	cmp	r4, #0
e00195d0:	13510005 	cmpne	r1, #5
e00195d4:	9a00007c 	bls	e00197cc <decodeUntypedInvocation+0x21c>
e00195d8:	e3013b34 	movw	r3, #6964	; 0x1b34
e00195dc:	e34e3003 	movt	r3, #57347	; 0xe003
e00195e0:	e5936000 	ldr	r6, [r3]
e00195e4:	e5965008 	ldr	r5, [r6, #8]
e00195e8:	e355000a 	cmp	r5, #10
e00195ec:	8a00007c 	bhi	e00197e4 <decodeUntypedInvocation+0x234>
e00195f0:	e58d2018 	str	r2, [sp, #24]
e00195f4:	e596700c 	ldr	r7, [r6, #12]
e00195f8:	e1a01007 	mov	r1, r7
e00195fc:	e1a00005 	mov	r0, r5
e0019600:	ebffe919 	bl	e0013a6c <getObjectSize>
e0019604:	e1a08000 	mov	r8, r0
e0019608:	e350001d 	cmp	r0, #29
e001960c:	9357001f 	cmpls	r7, #31
e0019610:	8a00007b 	bhi	e0019804 <decodeUntypedInvocation+0x254>
e0019614:	e3550004 	cmp	r5, #4
e0019618:	03570000 	cmpeq	r7, #0
e001961c:	0a000082 	beq	e001982c <decodeUntypedInvocation+0x27c>
e0019620:	e3570003 	cmp	r7, #3
e0019624:	93550000 	cmpls	r5, #0
e0019628:	0a000086 	beq	e0019848 <decodeUntypedInvocation+0x298>
e001962c:	e59d3070 	ldr	r3, [sp, #112]	; 0x70
e0019630:	e58d301c 	str	r3, [sp, #28]
e0019634:	e5969014 	ldr	r9, [r6, #20]
e0019638:	e59d3084 	ldr	r3, [sp, #132]	; 0x84
e001963c:	e593a014 	ldr	sl, [r3, #20]
e0019640:	e593b018 	ldr	fp, [r3, #24]
e0019644:	e3590000 	cmp	r9, #0
e0019648:	1a000085 	bne	e0019864 <decodeUntypedInvocation+0x2b4>
e001964c:	e5943000 	ldr	r3, [r4]
e0019650:	e5942004 	ldr	r2, [r4, #4]
e0019654:	e203100e 	and	r1, r3, #14
e0019658:	e351000e 	cmp	r1, #14
e001965c:	1203100f 	andne	r1, r3, #15
e0019660:	06ef1073 	uxtbeq	r1, r3
e0019664:	e351000a 	cmp	r1, #10
e0019668:	1a00008c 	bne	e00198a0 <decodeUntypedInvocation+0x2f0>
e001966c:	e7e41952 	ubfx	r1, r2, #18, #5
e0019670:	e3a02001 	mov	r2, #1
e0019674:	e1a02112 	lsl	r2, r2, r1
e0019678:	e2421001 	sub	r1, r2, #1
e001967c:	e151000a 	cmp	r1, sl
e0019680:	3a000095 	bcc	e00198dc <decodeUntypedInvocation+0x32c>
e0019684:	e24b1001 	sub	r1, fp, #1
e0019688:	e35100ff 	cmp	r1, #255	; 0xff
e001968c:	8a00009b 	bhi	e0019900 <decodeUntypedInvocation+0x350>
e0019690:	e042200a 	sub	r2, r2, sl
e0019694:	e152000b 	cmp	r2, fp
e0019698:	3a0000a2 	bcc	e0019928 <decodeUntypedInvocation+0x378>
e001969c:	e3c3901f 	bic	r9, r3, #31
e00196a0:	e58da030 	str	sl, [sp, #48]	; 0x30
e00196a4:	e58db034 	str	fp, [sp, #52]	; 0x34
e00196a8:	e08b600a 	add	r6, fp, sl
e00196ac:	e15a0006 	cmp	sl, r6
e00196b0:	2a000008 	bcs	e00196d8 <decodeUntypedInvocation+0x128>
e00196b4:	e089420a 	add	r4, r9, sl, lsl #4
e00196b8:	e1a00004 	mov	r0, r4
e00196bc:	ebffe81e 	bl	e001373c <ensureEmptySlot>
e00196c0:	e3500000 	cmp	r0, #0
e00196c4:	1a00003c 	bne	e00197bc <decodeUntypedInvocation+0x20c>
e00196c8:	e28aa001 	add	sl, sl, #1
e00196cc:	e2844010 	add	r4, r4, #16
e00196d0:	e15a0006 	cmp	sl, r6
e00196d4:	3afffff7 	bcc	e00196b8 <decodeUntypedInvocation+0x108>
e00196d8:	e59d0018 	ldr	r0, [sp, #24]
e00196dc:	ebffeb7b 	bl	e00144d0 <ensureNoChildren>
e00196e0:	e3500000 	cmp	r0, #0
e00196e4:	159d301c 	ldrne	r3, [sp, #28]
e00196e8:	11a04323 	lsrne	r4, r3, #6
e00196ec:	13a06000 	movne	r6, #0
e00196f0:	03a06001 	moveq	r6, #1
e00196f4:	03a04000 	moveq	r4, #0
e00196f8:	e1a04204 	lsl	r4, r4, #4
e00196fc:	e59d301c 	ldr	r3, [sp, #28]
e0019700:	e203201f 	and	r2, r3, #31
e0019704:	e3a03001 	mov	r3, #1
e0019708:	e0643213 	rsb	r3, r4, r3, lsl r2
e001970c:	e15b0833 	cmp	fp, r3, lsr r8
e0019710:	8a00008d 	bhi	e001994c <decodeUntypedInvocation+0x39c>
e0019714:	e59d301c 	ldr	r3, [sp, #28]
e0019718:	e7e0a2d3 	ubfx	sl, r3, #5, #1
e001971c:	e35a0000 	cmp	sl, #0
e0019720:	0a000007 	beq	e0019744 <decodeUntypedInvocation+0x194>
e0019724:	e1a00005 	mov	r0, r5
e0019728:	ebffe000 	bl	e0011730 <Arch_isFrameType>
e001972c:	e16f0f10 	clz	r0, r0
e0019730:	e1a002a0 	lsr	r0, r0, #5
e0019734:	e3550000 	cmp	r5, #0
e0019738:	03a00000 	moveq	r0, #0
e001973c:	e3500000 	cmp	r0, #0
e0019740:	1a000088 	bne	e0019968 <decodeUntypedInvocation+0x3b8>
e0019744:	e3a03001 	mov	r3, #1
e0019748:	e1a08813 	lsl	r8, r3, r8
e001974c:	e59d306c 	ldr	r3, [sp, #108]	; 0x6c
e0019750:	e3c3300f 	bic	r3, r3, #15
e0019754:	e2433001 	sub	r3, r3, #1
e0019758:	e0833008 	add	r3, r3, r8
e001975c:	e0834004 	add	r4, r3, r4
e0019760:	e2688000 	rsb	r8, r8, #0
e0019764:	e0044008 	and	r4, r4, r8
e0019768:	e3013b34 	movw	r3, #6964	; 0x1b34
e001976c:	e34e3003 	movt	r3, #57347	; 0xe003
e0019770:	e3a01002 	mov	r1, #2
e0019774:	e5930000 	ldr	r0, [r3]
e0019778:	ebffed62 	bl	e0014d08 <setThreadState>
e001977c:	e28d3040 	add	r3, sp, #64	; 0x40
e0019780:	e5239014 	str	r9, [r3, #-20]!	; 0xffffffec
e0019784:	e58da010 	str	sl, [sp, #16]
e0019788:	e8930007 	ldm	r3, {r0, r1, r2}
e001978c:	e98d0007 	stmib	sp, {r0, r1, r2}
e0019790:	e58d7000 	str	r7, [sp]
e0019794:	e1a03005 	mov	r3, r5
e0019798:	e1a02004 	mov	r2, r4
e001979c:	e1a01006 	mov	r1, r6
e00197a0:	e59d0018 	ldr	r0, [sp, #24]
e00197a4:	ebffff2b 	bl	e0019458 <invokeUntyped_Retype>
e00197a8:	ea000003 	b	e00197bc <decodeUntypedInvocation+0x20c>
e00197ac:	e3093030 	movw	r3, #36912	; 0x9030
e00197b0:	e34e3002 	movt	r3, #57346	; 0xe002
e00197b4:	e3a00003 	mov	r0, #3
e00197b8:	e5830018 	str	r0, [r3, #24]
e00197bc:	e28dd044 	add	sp, sp, #68	; 0x44
e00197c0:	e8bd4ff0 	pop	{r4, r5, r6, r7, r8, r9, sl, fp, lr}
e00197c4:	e28dd008 	add	sp, sp, #8
e00197c8:	e12fff1e 	bx	lr
e00197cc:	e3093030 	movw	r3, #36912	; 0x9030
e00197d0:	e34e3002 	movt	r3, #57346	; 0xe002
e00197d4:	e3a02007 	mov	r2, #7
e00197d8:	e5832018 	str	r2, [r3, #24]
e00197dc:	e3a00003 	mov	r0, #3
e00197e0:	eafffff5 	b	e00197bc <decodeUntypedInvocation+0x20c>
e00197e4:	e3093030 	movw	r3, #36912	; 0x9030
e00197e8:	e34e3002 	movt	r3, #57346	; 0xe002
e00197ec:	e3a02001 	mov	r2, #1
e00197f0:	e5832018 	str	r2, [r3, #24]
e00197f4:	e3a02000 	mov	r2, #0
e00197f8:	e5832000 	str	r2, [r3]
e00197fc:	e3a00003 	mov	r0, #3
e0019800:	eaffffed 	b	e00197bc <decodeUntypedInvocation+0x20c>
e0019804:	e3093030 	movw	r3, #36912	; 0x9030
e0019808:	e34e3002 	movt	r3, #57346	; 0xe002
e001980c:	e3a02004 	mov	r2, #4
e0019810:	e5832018 	str	r2, [r3, #24]
e0019814:	e3a02000 	mov	r2, #0
e0019818:	e5832008 	str	r2, [r3, #8]
e001981c:	e3a0201d 	mov	r2, #29
e0019820:	e583200c 	str	r2, [r3, #12]
e0019824:	e3a00003 	mov	r0, #3
e0019828:	eaffffe3 	b	e00197bc <decodeUntypedInvocation+0x20c>
e001982c:	e3093030 	movw	r3, #36912	; 0x9030
e0019830:	e34e3002 	movt	r3, #57346	; 0xe002
e0019834:	e3a02001 	mov	r2, #1
e0019838:	e5832018 	str	r2, [r3, #24]
e001983c:	e5832000 	str	r2, [r3]
e0019840:	e3a00003 	mov	r0, #3
e0019844:	eaffffdc 	b	e00197bc <decodeUntypedInvocation+0x20c>
e0019848:	e3093030 	movw	r3, #36912	; 0x9030
e001984c:	e34e3002 	movt	r3, #57346	; 0xe002
e0019850:	e3a02001 	mov	r2, #1
e0019854:	e5832018 	str	r2, [r3, #24]
e0019858:	e5832000 	str	r2, [r3]
e001985c:	e3a00003 	mov	r0, #3
e0019860:	eaffffd5 	b	e00197bc <decodeUntypedInvocation+0x20c>
e0019864:	e5963010 	ldr	r3, [r6, #16]
e0019868:	e28d2024 	add	r2, sp, #36	; 0x24
e001986c:	e8940003 	ldm	r4, {r0, r1}
e0019870:	e8820003 	stm	r2, {r0, r1}
e0019874:	e58d9000 	str	r9, [sp]
e0019878:	e8920006 	ldm	r2, {r1, r2}
e001987c:	e28d0038 	add	r0, sp, #56	; 0x38
e0019880:	ebffe604 	bl	e0013098 <lookupTargetSlot>
e0019884:	e59d0038 	ldr	r0, [sp, #56]	; 0x38
e0019888:	e3500000 	cmp	r0, #0
e001988c:	1affffca 	bne	e00197bc <decodeUntypedInvocation+0x20c>
e0019890:	e59d203c 	ldr	r2, [sp, #60]	; 0x3c
e0019894:	e5923000 	ldr	r3, [r2]
e0019898:	e5922004 	ldr	r2, [r2, #4]
e001989c:	eaffff6c 	b	e0019654 <decodeUntypedInvocation+0xa4>
e00198a0:	e3093030 	movw	r3, #36912	; 0x9030
e00198a4:	e34e3002 	movt	r3, #57346	; 0xe002
e00198a8:	e3a02006 	mov	r2, #6
e00198ac:	e5832018 	str	r2, [r3, #24]
e00198b0:	e3a01000 	mov	r1, #0
e00198b4:	e5831014 	str	r1, [r3, #20]
e00198b8:	e3092024 	movw	r2, #36900	; 0x9024
e00198bc:	e34e2002 	movt	r2, #57346	; 0xe002
e00198c0:	e1a03109 	lsl	r3, r9, #2
e00198c4:	e6ef3073 	uxtb	r3, r3
e00198c8:	e3833001 	orr	r3, r3, #1
e00198cc:	e5823000 	str	r3, [r2]
e00198d0:	e5821004 	str	r1, [r2, #4]
e00198d4:	e3a00003 	mov	r0, #3
e00198d8:	eaffffb7 	b	e00197bc <decodeUntypedInvocation+0x20c>
e00198dc:	e3093030 	movw	r3, #36912	; 0x9030
e00198e0:	e34e3002 	movt	r3, #57346	; 0xe002
e00198e4:	e3a02004 	mov	r2, #4
e00198e8:	e5832018 	str	r2, [r3, #24]
e00198ec:	e3a02000 	mov	r2, #0
e00198f0:	e5832008 	str	r2, [r3, #8]
e00198f4:	e583100c 	str	r1, [r3, #12]
e00198f8:	e3a00003 	mov	r0, #3
e00198fc:	eaffffae 	b	e00197bc <decodeUntypedInvocation+0x20c>
e0019900:	e3093030 	movw	r3, #36912	; 0x9030
e0019904:	e34e3002 	movt	r3, #57346	; 0xe002
e0019908:	e3a02004 	mov	r2, #4
e001990c:	e5832018 	str	r2, [r3, #24]
e0019910:	e3a02001 	mov	r2, #1
e0019914:	e5832008 	str	r2, [r3, #8]
e0019918:	e3a02c01 	mov	r2, #256	; 0x100
e001991c:	e583200c 	str	r2, [r3, #12]
e0019920:	e3a00003 	mov	r0, #3
e0019924:	eaffffa4 	b	e00197bc <decodeUntypedInvocation+0x20c>
e0019928:	e3093030 	movw	r3, #36912	; 0x9030
e001992c:	e34e3002 	movt	r3, #57346	; 0xe002
e0019930:	e3a01004 	mov	r1, #4
e0019934:	e5831018 	str	r1, [r3, #24]
e0019938:	e3a01001 	mov	r1, #1
e001993c:	e5831008 	str	r1, [r3, #8]
e0019940:	e583200c 	str	r2, [r3, #12]
e0019944:	e3a00003 	mov	r0, #3
e0019948:	eaffff9b 	b	e00197bc <decodeUntypedInvocation+0x20c>
e001994c:	e3092030 	movw	r2, #36912	; 0x9030
e0019950:	e34e2002 	movt	r2, #57346	; 0xe002
e0019954:	e3a0100a 	mov	r1, #10
e0019958:	e5821018 	str	r1, [r2, #24]
e001995c:	e5823010 	str	r3, [r2, #16]
e0019960:	e3a00003 	mov	r0, #3
e0019964:	eaffff94 	b	e00197bc <decodeUntypedInvocation+0x20c>
e0019968:	e3093030 	movw	r3, #36912	; 0x9030
e001996c:	e34e3002 	movt	r3, #57346	; 0xe002
e0019970:	e3a02001 	mov	r2, #1
e0019974:	e5832018 	str	r2, [r3, #24]
e0019978:	e5832000 	str	r2, [r3]
e001997c:	e3a00003 	mov	r0, #3
e0019980:	eaffff8d 	b	e00197bc <decodeUntypedInvocation+0x20c>

e0019984 <decodeARMMMUInvocation>:
e0019984:	e92d4ff0 	push	{r4, r5, r6, r7, r8, r9, sl, fp, lr}
e0019988:	e24dd04c 	sub	sp, sp, #76	; 0x4c
e001998c:	e1a08000 	mov	r8, r0
e0019990:	e1a0b003 	mov	fp, r3
e0019994:	e59d4070 	ldr	r4, [sp, #112]	; 0x70
e0019998:	e59d5074 	ldr	r5, [sp, #116]	; 0x74
e001999c:	e59d9078 	ldr	r9, [sp, #120]	; 0x78
e00199a0:	e204300e 	and	r3, r4, #14
e00199a4:	e353000e 	cmp	r3, #14
e00199a8:	1204700f 	andne	r7, r4, #15
e00199ac:	06ef7074 	uxtbeq	r7, r4
e00199b0:	e2473001 	sub	r3, r7, #1
e00199b4:	e353000a 	cmp	r3, #10
e00199b8:	979ff103 	ldrls	pc, [pc, r3, lsl #2]
e00199bc:	ea0004e0 	b	e001ad44 <decodeARMMMUInvocation+0x13c0>
e00199c0:	e0019ec8 	.word	0xe0019ec8
e00199c4:	e001ad44 	.word	0xe001ad44
e00199c8:	e0019ec8 	.word	0xe0019ec8
e00199cc:	e001ad44 	.word	0xe001ad44
e00199d0:	e001abb0 	.word	0xe001abb0
e00199d4:	e001ad44 	.word	0xe001ad44
e00199d8:	e0019c3c 	.word	0xe0019c3c
e00199dc:	e001ad44 	.word	0xe001ad44
e00199e0:	e00199ec 	.word	0xe00199ec
e00199e4:	e001ad44 	.word	0xe001ad44
e00199e8:	e001a9c0 	.word	0xe001a9c0
e00199ec:	e240301e 	sub	r3, r0, #30
e00199f0:	e3530003 	cmp	r3, #3
e00199f4:	8a00008b 	bhi	e0019c28 <decodeARMMMUInvocation+0x2a4>
e00199f8:	e3510001 	cmp	r1, #1
e00199fc:	9a00000d 	bls	e0019a38 <decodeARMMMUInvocation+0xb4>
e0019a00:	e3013b34 	movw	r3, #6964	; 0x1b34
e0019a04:	e34e3003 	movt	r3, #57347	; 0xe003
e0019a08:	e5933000 	ldr	r3, [r3]
e0019a0c:	e5937008 	ldr	r7, [r3, #8]
e0019a10:	e593900c 	ldr	r9, [r3, #12]
e0019a14:	e1570009 	cmp	r7, r9
e0019a18:	3a00000c 	bcc	e0019a50 <decodeARMMMUInvocation+0xcc>
e0019a1c:	e3093030 	movw	r3, #36912	; 0x9030
e0019a20:	e34e3002 	movt	r3, #57346	; 0xe002
e0019a24:	e3a02001 	mov	r2, #1
e0019a28:	e5832018 	str	r2, [r3, #24]
e0019a2c:	e5832000 	str	r2, [r3]
e0019a30:	e3a06003 	mov	r6, #3
e0019a34:	ea0004b9 	b	e001ad20 <decodeARMMMUInvocation+0x139c>
e0019a38:	e3093030 	movw	r3, #36912	; 0x9030
e0019a3c:	e34e3002 	movt	r3, #57346	; 0xe002
e0019a40:	e3a02007 	mov	r2, #7
e0019a44:	e5832018 	str	r2, [r3, #24]
e0019a48:	e3a06003 	mov	r6, #3
e0019a4c:	ea0004b3 	b	e001ad20 <decodeARMMMUInvocation+0x139c>
e0019a50:	e3770212 	cmn	r7, #536870913	; 0x20000001
e0019a54:	9359020e 	cmpls	r9, #-536870912	; 0xe0000000
e0019a58:	9a000004 	bls	e0019a70 <decodeARMMMUInvocation+0xec>
e0019a5c:	e3093030 	movw	r3, #36912	; 0x9030
e0019a60:	e34e3002 	movt	r3, #57346	; 0xe002
e0019a64:	e3a06003 	mov	r6, #3
e0019a68:	e5836018 	str	r6, [r3, #24]
e0019a6c:	ea0004ab 	b	e001ad20 <decodeARMMMUInvocation+0x139c>
e0019a70:	e3140010 	tst	r4, #16
e0019a74:	0a00002a 	beq	e0019b24 <decodeARMMMUInvocation+0x1a0>
e0019a78:	e3c44dff 	bic	r4, r4, #16320	; 0x3fc0
e0019a7c:	e3c4403f 	bic	r4, r4, #63	; 0x3f
e0019a80:	e7f05055 	ubfx	r5, r5, #0, #17
e0019a84:	e1a01005 	mov	r1, r5
e0019a88:	e28d0030 	add	r0, sp, #48	; 0x30
e0019a8c:	ebffdc2f 	bl	e0010b50 <findPDForASID>
e0019a90:	e59d6030 	ldr	r6, [sp, #48]	; 0x30
e0019a94:	e3560000 	cmp	r6, #0
e0019a98:	1a000029 	bne	e0019b44 <decodeARMMMUInvocation+0x1c0>
e0019a9c:	e59d3034 	ldr	r3, [sp, #52]	; 0x34
e0019aa0:	e1540003 	cmp	r4, r3
e0019aa4:	1a00002e 	bne	e0019b64 <decodeARMMMUInvocation+0x1e0>
e0019aa8:	e1a03a27 	lsr	r3, r7, #20
e0019aac:	e7943103 	ldr	r3, [r4, r3, lsl #2]
e0019ab0:	e2032003 	and	r2, r3, #3
e0019ab4:	e3520001 	cmp	r2, #1
e0019ab8:	0a000031 	beq	e0019b84 <decodeARMMMUInvocation+0x200>
e0019abc:	e3520002 	cmp	r2, #2
e0019ac0:	1a000039 	bne	e0019bac <decodeARMMMUInvocation+0x228>
e0019ac4:	e1a0aa23 	lsr	sl, r3, #20
e0019ac8:	e1a0aa0a 	lsl	sl, sl, #20
e0019acc:	e7e03953 	ubfx	r3, r3, #18, #1
e0019ad0:	e3530000 	cmp	r3, #0
e0019ad4:	13a0b018 	movne	fp, #24
e0019ad8:	03a0b014 	moveq	fp, #20
e0019adc:	e3a03001 	mov	r3, #1
e0019ae0:	e1a03b13 	lsl	r3, r3, fp
e0019ae4:	e2632000 	rsb	r2, r3, #0
e0019ae8:	e0071002 	and	r1, r7, r2
e0019aec:	e2499001 	sub	r9, r9, #1
e0019af0:	e0022009 	and	r2, r2, r9
e0019af4:	e1510002 	cmp	r1, r2
e0019af8:	0a000031 	beq	e0019bc4 <decodeARMMMUInvocation+0x240>
e0019afc:	e3092030 	movw	r2, #36912	; 0x9030
e0019b00:	e34e2002 	movt	r2, #57346	; 0xe002
e0019b04:	e3a00004 	mov	r0, #4
e0019b08:	e5820018 	str	r0, [r2, #24]
e0019b0c:	e5827008 	str	r7, [r2, #8]
e0019b10:	e2433001 	sub	r3, r3, #1
e0019b14:	e0833001 	add	r3, r3, r1
e0019b18:	e582300c 	str	r3, [r2, #12]
e0019b1c:	e3a06003 	mov	r6, #3
e0019b20:	ea00047e 	b	e001ad20 <decodeARMMMUInvocation+0x139c>
e0019b24:	e3093030 	movw	r3, #36912	; 0x9030
e0019b28:	e34e3002 	movt	r3, #57346	; 0xe002
e0019b2c:	e3a02002 	mov	r2, #2
e0019b30:	e5832018 	str	r2, [r3, #24]
e0019b34:	e3a02000 	mov	r2, #0
e0019b38:	e5832004 	str	r2, [r3, #4]
e0019b3c:	e3a06003 	mov	r6, #3
e0019b40:	ea000476 	b	e001ad20 <decodeARMMMUInvocation+0x139c>
e0019b44:	e3093030 	movw	r3, #36912	; 0x9030
e0019b48:	e34e3002 	movt	r3, #57346	; 0xe002
e0019b4c:	e3a02006 	mov	r2, #6
e0019b50:	e5832018 	str	r2, [r3, #24]
e0019b54:	e3a02000 	mov	r2, #0
e0019b58:	e5832014 	str	r2, [r3, #20]
e0019b5c:	e3a06003 	mov	r6, #3
e0019b60:	ea00046e 	b	e001ad20 <decodeARMMMUInvocation+0x139c>
e0019b64:	e3093030 	movw	r3, #36912	; 0x9030
e0019b68:	e34e3002 	movt	r3, #57346	; 0xe002
e0019b6c:	e3a02002 	mov	r2, #2
e0019b70:	e5832018 	str	r2, [r3, #24]
e0019b74:	e3a02000 	mov	r2, #0
e0019b78:	e5832004 	str	r2, [r3, #4]
e0019b7c:	e3a06003 	mov	r6, #3
e0019b80:	ea000466 	b	e001ad20 <decodeARMMMUInvocation+0x139c>
e0019b84:	e3c33fff 	bic	r3, r3, #1020	; 0x3fc
e0019b88:	e3c33003 	bic	r3, r3, #3
e0019b8c:	e7e72657 	ubfx	r2, r7, #12, #8
e0019b90:	e0833102 	add	r3, r3, r2, lsl #2
e0019b94:	e283320d 	add	r3, r3, #-805306368	; 0xd0000000
e0019b98:	e593a000 	ldr	sl, [r3]
e0019b9c:	e31a0002 	tst	sl, #2
e0019ba0:	1a000468 	bne	e001ad48 <decodeARMMMUInvocation+0x13c4>
e0019ba4:	e31a0001 	tst	sl, #1
e0019ba8:	1a00046a 	bne	e001ad58 <decodeARMMMUInvocation+0x13d4>
e0019bac:	e3013b34 	movw	r3, #6964	; 0x1b34
e0019bb0:	e34e3003 	movt	r3, #57347	; 0xe003
e0019bb4:	e3a01002 	mov	r1, #2
e0019bb8:	e5930000 	ldr	r0, [r3]
e0019bbc:	ebffec51 	bl	e0014d08 <setThreadState>
e0019bc0:	ea000456 	b	e001ad20 <decodeARMMMUInvocation+0x139c>
e0019bc4:	e3013b34 	movw	r3, #6964	; 0x1b34
e0019bc8:	e34e3003 	movt	r3, #57347	; 0xe003
e0019bcc:	e3a01002 	mov	r1, #2
e0019bd0:	e5930000 	ldr	r0, [r3]
e0019bd4:	ebffec4b 	bl	e0014d08 <setThreadState>
e0019bd8:	e1570009 	cmp	r7, r9
e0019bdc:	2a00044f 	bcs	e001ad20 <decodeARMMMUInvocation+0x139c>
e0019be0:	e1a01005 	mov	r1, r5
e0019be4:	e1a00004 	mov	r0, r4
e0019be8:	ebffde33 	bl	e00114bc <setVMRootForFlush>
e0019bec:	e1a04000 	mov	r4, r0
e0019bf0:	e3e03000 	mvn	r3, #0
e0019bf4:	e1c73b13 	bic	r3, r7, r3, lsl fp
e0019bf8:	e083300a 	add	r3, r3, sl
e0019bfc:	e1a02009 	mov	r2, r9
e0019c00:	e1a01007 	mov	r1, r7
e0019c04:	e1a00008 	mov	r0, r8
e0019c08:	ebffe2ef 	bl	e00127cc <doFlush>
e0019c0c:	e3540000 	cmp	r4, #0
e0019c10:	0a000442 	beq	e001ad20 <decodeARMMMUInvocation+0x139c>
e0019c14:	e3013b34 	movw	r3, #6964	; 0x1b34
e0019c18:	e34e3003 	movt	r3, #57347	; 0xe003
e0019c1c:	e5930000 	ldr	r0, [r3]
e0019c20:	ebffdde1 	bl	e00113ac <setVMRoot>
e0019c24:	ea00043d 	b	e001ad20 <decodeARMMMUInvocation+0x139c>
e0019c28:	e3093030 	movw	r3, #36912	; 0x9030
e0019c2c:	e34e3002 	movt	r3, #57346	; 0xe002
e0019c30:	e3a06003 	mov	r6, #3
e0019c34:	e5836018 	str	r6, [r3, #24]
e0019c38:	ea000438 	b	e001ad20 <decodeARMMMUInvocation+0x139c>
e0019c3c:	e3500023 	cmp	r0, #35	; 0x23
e0019c40:	0a000048 	beq	e0019d68 <decodeARMMMUInvocation+0x3e4>
e0019c44:	e3500022 	cmp	r0, #34	; 0x22
e0019c48:	13093030 	movwne	r3, #36912	; 0x9030
e0019c4c:	134e3002 	movtne	r3, #57346	; 0xe002
e0019c50:	13a06003 	movne	r6, #3
e0019c54:	15836018 	strne	r6, [r3, #24]
e0019c58:	1a000430 	bne	e001ad20 <decodeARMMMUInvocation+0x139c>
e0019c5c:	e3590000 	cmp	r9, #0
e0019c60:	13510001 	cmpne	r1, #1
e0019c64:	9a000064 	bls	e0019dfc <decodeARMMMUInvocation+0x478>
e0019c68:	e3150202 	tst	r5, #536870912	; 0x20000000
e0019c6c:	1a000068 	bne	e0019e14 <decodeARMMMUInvocation+0x490>
e0019c70:	e5997000 	ldr	r7, [r9]
e0019c74:	e207300e 	and	r3, r7, #14
e0019c78:	e353000e 	cmp	r3, #14
e0019c7c:	1207300f 	andne	r3, r7, #15
e0019c80:	06ef3077 	uxtbeq	r3, r7
e0019c84:	e3530009 	cmp	r3, #9
e0019c88:	1a000069 	bne	e0019e34 <decodeARMMMUInvocation+0x4b0>
e0019c8c:	e3170010 	tst	r7, #16
e0019c90:	0a000067 	beq	e0019e34 <decodeARMMMUInvocation+0x4b0>
e0019c94:	e3013b34 	movw	r3, #6964	; 0x1b34
e0019c98:	e34e3003 	movt	r3, #57347	; 0xe003
e0019c9c:	e5933000 	ldr	r3, [r3]
e0019ca0:	e5938008 	ldr	r8, [r3, #8]
e0019ca4:	e3c77dff 	bic	r7, r7, #16320	; 0x3fc0
e0019ca8:	e3c7703f 	bic	r7, r7, #63	; 0x3f
e0019cac:	e599a004 	ldr	sl, [r9, #4]
e0019cb0:	e7f0a05a 	ubfx	sl, sl, #0, #17
e0019cb4:	e3780212 	cmn	r8, #536870913	; 0x20000001
e0019cb8:	8a000065 	bhi	e0019e54 <decodeARMMMUInvocation+0x4d0>
e0019cbc:	e593900c 	ldr	r9, [r3, #12]
e0019cc0:	e1a0100a 	mov	r1, sl
e0019cc4:	e28d0030 	add	r0, sp, #48	; 0x30
e0019cc8:	ebffdba0 	bl	e0010b50 <findPDForASID>
e0019ccc:	e59d6030 	ldr	r6, [sp, #48]	; 0x30
e0019cd0:	e3560000 	cmp	r6, #0
e0019cd4:	1a000066 	bne	e0019e74 <decodeARMMMUInvocation+0x4f0>
e0019cd8:	e59d3034 	ldr	r3, [sp, #52]	; 0x34
e0019cdc:	e1570003 	cmp	r7, r3
e0019ce0:	1a00006b 	bne	e0019e94 <decodeARMMMUInvocation+0x510>
e0019ce4:	e1a08a28 	lsr	r8, r8, #20
e0019ce8:	e0873108 	add	r3, r7, r8, lsl #2
e0019cec:	e58d3010 	str	r3, [sp, #16]
e0019cf0:	e7973108 	ldr	r3, [r7, r8, lsl #2]
e0019cf4:	e3130003 	tst	r3, #3
e0019cf8:	1a00006c 	bne	e0019eb0 <decodeARMMMUInvocation+0x52c>
e0019cfc:	e1a09409 	lsl	r9, r9, #8
e0019d00:	e2099c02 	and	r9, r9, #512	; 0x200
e0019d04:	e3c43fff 	bic	r3, r4, #1020	; 0x3fc
e0019d08:	e3c33003 	bic	r3, r3, #3
e0019d0c:	e2833203 	add	r3, r3, #805306368	; 0x30000000
e0019d10:	e3833001 	orr	r3, r3, #1
e0019d14:	e1899003 	orr	r9, r9, r3
e0019d18:	e3003fff 	movw	r3, #4095	; 0xfff
e0019d1c:	e34c3000 	movt	r3, #49152	; 0xc000
e0019d20:	e0033005 	and	r3, r3, r5
e0019d24:	e3833202 	orr	r3, r3, #536870912	; 0x20000000
e0019d28:	e183a60a 	orr	sl, r3, sl, lsl #12
e0019d2c:	e3caaeff 	bic	sl, sl, #4080	; 0xff0
e0019d30:	e3caa00f 	bic	sl, sl, #15
e0019d34:	e18aa008 	orr	sl, sl, r8
e0019d38:	e3013b34 	movw	r3, #6964	; 0x1b34
e0019d3c:	e34e3003 	movt	r3, #57347	; 0xe003
e0019d40:	e3a01002 	mov	r1, #2
e0019d44:	e5930000 	ldr	r0, [r3]
e0019d48:	ebffebee 	bl	e0014d08 <setThreadState>
e0019d4c:	e58b4000 	str	r4, [fp]
e0019d50:	e58ba004 	str	sl, [fp, #4]
e0019d54:	e7879108 	str	r9, [r7, r8, lsl #2]
e0019d58:	e59d3010 	ldr	r3, [sp, #16]
e0019d5c:	ee073f3b 	mcr	15, 0, r3, cr7, cr11, {1}
e0019d60:	f57ff05f 	dmb	sy
e0019d64:	ea0003ed 	b	e001ad20 <decodeARMMMUInvocation+0x139c>
e0019d68:	e1a0000b 	mov	r0, fp
e0019d6c:	ebffea41 	bl	e0014678 <isFinalCapability>
e0019d70:	e3500000 	cmp	r0, #0
e0019d74:	0a00000b 	beq	e0019da8 <decodeARMMMUInvocation+0x424>
e0019d78:	e3013b34 	movw	r3, #6964	; 0x1b34
e0019d7c:	e34e3003 	movt	r3, #57347	; 0xe003
e0019d80:	e3a01002 	mov	r1, #2
e0019d84:	e5930000 	ldr	r0, [r3]
e0019d88:	ebffebde 	bl	e0014d08 <setThreadState>
e0019d8c:	e3150202 	tst	r5, #536870912	; 0x20000000
e0019d90:	1a00000a 	bne	e0019dc0 <decodeARMMMUInvocation+0x43c>
e0019d94:	e59b3004 	ldr	r3, [fp, #4]
e0019d98:	e3c33202 	bic	r3, r3, #536870912	; 0x20000000
e0019d9c:	e58b3004 	str	r3, [fp, #4]
e0019da0:	e3a06000 	mov	r6, #0
e0019da4:	ea0003dd 	b	e001ad20 <decodeARMMMUInvocation+0x139c>
e0019da8:	e3093030 	movw	r3, #36912	; 0x9030
e0019dac:	e34e3002 	movt	r3, #57346	; 0xe002
e0019db0:	e3a02009 	mov	r2, #9
e0019db4:	e5832018 	str	r2, [r3, #24]
e0019db8:	e3a06003 	mov	r6, #3
e0019dbc:	ea0003d7 	b	e001ad20 <decodeARMMMUInvocation+0x139c>
e0019dc0:	e3c44fff 	bic	r4, r4, #1020	; 0x3fc
e0019dc4:	e3c44003 	bic	r4, r4, #3
e0019dc8:	e1a02004 	mov	r2, r4
e0019dcc:	e1a01a05 	lsl	r1, r5, #20
e0019dd0:	e7f00655 	ubfx	r0, r5, #12, #17
e0019dd4:	ebffde35 	bl	e00116b0 <unmapPageTable>
e0019dd8:	e3a01b01 	mov	r1, #1024	; 0x400
e0019ddc:	e1a00004 	mov	r0, r4
e0019de0:	ebfffd95 	bl	e001943c <memzero>
e0019de4:	e2842203 	add	r2, r4, #805306368	; 0x30000000
e0019de8:	e2841fff 	add	r1, r4, #1020	; 0x3fc
e0019dec:	e2811003 	add	r1, r1, #3
e0019df0:	e1a00004 	mov	r0, r4
e0019df4:	ebffe151 	bl	e0012340 <cleanCacheRange_PoU>
e0019df8:	eaffffe5 	b	e0019d94 <decodeARMMMUInvocation+0x410>
e0019dfc:	e3093030 	movw	r3, #36912	; 0x9030
e0019e00:	e34e3002 	movt	r3, #57346	; 0xe002
e0019e04:	e3a02007 	mov	r2, #7
e0019e08:	e5832018 	str	r2, [r3, #24]
e0019e0c:	e3a06003 	mov	r6, #3
e0019e10:	ea0003c2 	b	e001ad20 <decodeARMMMUInvocation+0x139c>
e0019e14:	e3093030 	movw	r3, #36912	; 0x9030
e0019e18:	e34e3002 	movt	r3, #57346	; 0xe002
e0019e1c:	e3a02002 	mov	r2, #2
e0019e20:	e5832018 	str	r2, [r3, #24]
e0019e24:	e3a02000 	mov	r2, #0
e0019e28:	e5832004 	str	r2, [r3, #4]
e0019e2c:	e3a06003 	mov	r6, #3
e0019e30:	ea0003ba 	b	e001ad20 <decodeARMMMUInvocation+0x139c>
e0019e34:	e3093030 	movw	r3, #36912	; 0x9030
e0019e38:	e34e3002 	movt	r3, #57346	; 0xe002
e0019e3c:	e3a02002 	mov	r2, #2
e0019e40:	e5832018 	str	r2, [r3, #24]
e0019e44:	e3a02001 	mov	r2, #1
e0019e48:	e5832004 	str	r2, [r3, #4]
e0019e4c:	e3a06003 	mov	r6, #3
e0019e50:	ea0003b2 	b	e001ad20 <decodeARMMMUInvocation+0x139c>
e0019e54:	e3093030 	movw	r3, #36912	; 0x9030
e0019e58:	e34e3002 	movt	r3, #57346	; 0xe002
e0019e5c:	e3a02001 	mov	r2, #1
e0019e60:	e5832018 	str	r2, [r3, #24]
e0019e64:	e3a02000 	mov	r2, #0
e0019e68:	e5832000 	str	r2, [r3]
e0019e6c:	e3a06003 	mov	r6, #3
e0019e70:	ea0003aa 	b	e001ad20 <decodeARMMMUInvocation+0x139c>
e0019e74:	e3093030 	movw	r3, #36912	; 0x9030
e0019e78:	e34e3002 	movt	r3, #57346	; 0xe002
e0019e7c:	e3a02006 	mov	r2, #6
e0019e80:	e5832018 	str	r2, [r3, #24]
e0019e84:	e3a02000 	mov	r2, #0
e0019e88:	e5832014 	str	r2, [r3, #20]
e0019e8c:	e3a06003 	mov	r6, #3
e0019e90:	ea0003a2 	b	e001ad20 <decodeARMMMUInvocation+0x139c>
e0019e94:	e3093030 	movw	r3, #36912	; 0x9030
e0019e98:	e34e3002 	movt	r3, #57346	; 0xe002
e0019e9c:	e3a02002 	mov	r2, #2
e0019ea0:	e5832018 	str	r2, [r3, #24]
e0019ea4:	e3a02001 	mov	r2, #1
e0019ea8:	e5832004 	str	r2, [r3, #4]
e0019eac:	eafffff6 	b	e0019e8c <decodeARMMMUInvocation+0x508>
e0019eb0:	e3093030 	movw	r3, #36912	; 0x9030
e0019eb4:	e34e3002 	movt	r3, #57346	; 0xe002
e0019eb8:	e3a02008 	mov	r2, #8
e0019ebc:	e5832018 	str	r2, [r3, #24]
e0019ec0:	e3a06003 	mov	r6, #3
e0019ec4:	ea000395 	b	e001ad20 <decodeARMMMUInvocation+0x139c>
e0019ec8:	e2403024 	sub	r3, r0, #36	; 0x24
e0019ecc:	e3530007 	cmp	r3, #7
e0019ed0:	979ff103 	ldrls	pc, [pc, r3, lsl #2]
e0019ed4:	ea0002b4 	b	e001a9ac <decodeARMMMUInvocation+0x1028>
e0019ed8:	e0019ef8 	.word	0xe0019ef8
e0019edc:	e001a338 	.word	0xe001a338
e0019ee0:	e001a684 	.word	0xe001a684
e0019ee4:	e001a768 	.word	0xe001a768
e0019ee8:	e001a768 	.word	0xe001a768
e0019eec:	e001a768 	.word	0xe001a768
e0019ef0:	e001a768 	.word	0xe001a768
e0019ef4:	e001a940 	.word	0xe001a940
e0019ef8:	e3590000 	cmp	r9, #0
e0019efc:	13510002 	cmpne	r1, #2
e0019f00:	9a00001a 	bls	e0019f70 <decodeARMMMUInvocation+0x5ec>
e0019f04:	e3013b34 	movw	r3, #6964	; 0x1b34
e0019f08:	e34e3003 	movt	r3, #57347	; 0xe003
e0019f0c:	e5933000 	ldr	r3, [r3]
e0019f10:	e593a008 	ldr	sl, [r3, #8]
e0019f14:	e593200c 	ldr	r2, [r3, #12]
e0019f18:	e58d2018 	str	r2, [sp, #24]
e0019f1c:	e5933010 	ldr	r3, [r3, #16]
e0019f20:	e58d3020 	str	r3, [sp, #32]
e0019f24:	e5996000 	ldr	r6, [r9]
e0019f28:	e3570003 	cmp	r7, #3
e0019f2c:	01a03f25 	lsreq	r3, r5, #30
e0019f30:	058d3010 	streq	r3, [sp, #16]
e0019f34:	0a00001f 	beq	e0019fb8 <decodeARMMMUInvocation+0x634>
e0019f38:	e3570001 	cmp	r7, #1
e0019f3c:	0a000011 	beq	e0019f88 <decodeARMMMUInvocation+0x604>
e0019f40:	e3570003 	cmp	r7, #3
e0019f44:	0a000019 	beq	e0019fb0 <decodeARMMMUInvocation+0x62c>
e0019f48:	e6ef3077 	uxtb	r3, r7
e0019f4c:	e58d3024 	str	r3, [sp, #36]	; 0x24
e0019f50:	e3530001 	cmp	r3, #1
e0019f54:	13a03000 	movne	r3, #0
e0019f58:	158d301c 	strne	r3, [sp, #28]
e0019f5c:	158d3010 	strne	r3, [sp, #16]
e0019f60:	1a000018 	bne	e0019fc8 <decodeARMMMUInvocation+0x644>
e0019f64:	e3a03000 	mov	r3, #0
e0019f68:	e58d301c 	str	r3, [sp, #28]
e0019f6c:	ea000007 	b	e0019f90 <decodeARMMMUInvocation+0x60c>
e0019f70:	e3093030 	movw	r3, #36912	; 0x9030
e0019f74:	e34e3002 	movt	r3, #57346	; 0xe002
e0019f78:	e3a02007 	mov	r2, #7
e0019f7c:	e5832018 	str	r2, [r3, #24]
e0019f80:	e3a06003 	mov	r6, #3
e0019f84:	ea000365 	b	e001ad20 <decodeARMMMUInvocation+0x139c>
e0019f88:	e7e13a55 	ubfx	r3, r5, #20, #2
e0019f8c:	e58d301c 	str	r3, [sp, #28]
e0019f90:	e1a08724 	lsr	r8, r4, #14
e0019f94:	e2088b7f 	and	r8, r8, #130048	; 0x1fc00
e0019f98:	e0888b25 	add	r8, r8, r5, lsr #22
e0019f9c:	e3a03001 	mov	r3, #1
e0019fa0:	e58d3024 	str	r3, [sp, #36]	; 0x24
e0019fa4:	e3a03000 	mov	r3, #0
e0019fa8:	e58d3010 	str	r3, [sp, #16]
e0019fac:	ea000009 	b	e0019fd8 <decodeARMMMUInvocation+0x654>
e0019fb0:	e3a03000 	mov	r3, #0
e0019fb4:	e58d3010 	str	r3, [sp, #16]
e0019fb8:	e7e13955 	ubfx	r3, r5, #18, #2
e0019fbc:	e58d301c 	str	r3, [sp, #28]
e0019fc0:	e6ef3077 	uxtb	r3, r7
e0019fc4:	e58d3024 	str	r3, [sp, #36]	; 0x24
e0019fc8:	e1a08624 	lsr	r8, r4, #12
e0019fcc:	e2088b7f 	and	r8, r8, #130048	; 0x1fc00
e0019fd0:	e7e93a55 	ubfx	r3, r5, #20, #10
e0019fd4:	e1888003 	orr	r8, r8, r3
e0019fd8:	e3580000 	cmp	r8, #0
e0019fdc:	1a00001c 	bne	e001a054 <decodeARMMMUInvocation+0x6d0>
e0019fe0:	e206300e 	and	r3, r6, #14
e0019fe4:	e353000e 	cmp	r3, #14
e0019fe8:	1206300f 	andne	r3, r6, #15
e0019fec:	06ef3076 	uxtbeq	r3, r6
e0019ff0:	e3530009 	cmp	r3, #9
e0019ff4:	1a00001e 	bne	e001a074 <decodeARMMMUInvocation+0x6f0>
e0019ff8:	e3160010 	tst	r6, #16
e0019ffc:	0a00001c 	beq	e001a074 <decodeARMMMUInvocation+0x6f0>
e001a000:	e3c66dff 	bic	r6, r6, #16320	; 0x3fc0
e001a004:	e3c6603f 	bic	r6, r6, #63	; 0x3f
e001a008:	e5999004 	ldr	r9, [r9, #4]
e001a00c:	e7f09059 	ubfx	r9, r9, #0, #17
e001a010:	e1a01009 	mov	r1, r9
e001a014:	e28d0030 	add	r0, sp, #48	; 0x30
e001a018:	ebffdacc 	bl	e0010b50 <findPDForASID>
e001a01c:	e59d3030 	ldr	r3, [sp, #48]	; 0x30
e001a020:	e3530000 	cmp	r3, #0
e001a024:	1a00001a 	bne	e001a094 <decodeARMMMUInvocation+0x710>
e001a028:	e59d3034 	ldr	r3, [sp, #52]	; 0x34
e001a02c:	e1560003 	cmp	r6, r3
e001a030:	1a00001f 	bne	e001a0b4 <decodeARMMMUInvocation+0x730>
e001a034:	e59d3010 	ldr	r3, [sp, #16]
e001a038:	e3530003 	cmp	r3, #3
e001a03c:	979ff103 	ldrls	pc, [pc, r3, lsl #2]
e001a040:	ea00003e 	b	e001a140 <decodeARMMMUInvocation+0x7bc>
e001a044:	e001a144 	.word	0xe001a144
e001a048:	e001a0d0 	.word	0xe001a0d0
e001a04c:	e001a150 	.word	0xe001a150
e001a050:	e001a134 	.word	0xe001a134
e001a054:	e3093030 	movw	r3, #36912	; 0x9030
e001a058:	e34e3002 	movt	r3, #57346	; 0xe002
e001a05c:	e3a02002 	mov	r2, #2
e001a060:	e5832018 	str	r2, [r3, #24]
e001a064:	e3a02000 	mov	r2, #0
e001a068:	e5832004 	str	r2, [r3, #4]
e001a06c:	e3a06003 	mov	r6, #3
e001a070:	ea00032a 	b	e001ad20 <decodeARMMMUInvocation+0x139c>
e001a074:	e3093030 	movw	r3, #36912	; 0x9030
e001a078:	e34e3002 	movt	r3, #57346	; 0xe002
e001a07c:	e3a02002 	mov	r2, #2
e001a080:	e5832018 	str	r2, [r3, #24]
e001a084:	e3a02001 	mov	r2, #1
e001a088:	e5832004 	str	r2, [r3, #4]
e001a08c:	e3a06003 	mov	r6, #3
e001a090:	ea000322 	b	e001ad20 <decodeARMMMUInvocation+0x139c>
e001a094:	e3093030 	movw	r3, #36912	; 0x9030
e001a098:	e34e3002 	movt	r3, #57346	; 0xe002
e001a09c:	e3a02006 	mov	r2, #6
e001a0a0:	e5832018 	str	r2, [r3, #24]
e001a0a4:	e3a02000 	mov	r2, #0
e001a0a8:	e5832014 	str	r2, [r3, #20]
e001a0ac:	e3a06003 	mov	r6, #3
e001a0b0:	ea00031a 	b	e001ad20 <decodeARMMMUInvocation+0x139c>
e001a0b4:	e3093030 	movw	r3, #36912	; 0x9030
e001a0b8:	e34e3002 	movt	r3, #57346	; 0xe002
e001a0bc:	e3a02002 	mov	r2, #2
e001a0c0:	e5832018 	str	r2, [r3, #24]
e001a0c4:	e3a02001 	mov	r2, #1
e001a0c8:	e5832004 	str	r2, [r3, #4]
e001a0cc:	eafffff6 	b	e001a0ac <decodeARMMMUInvocation+0x728>
e001a0d0:	e3a03010 	mov	r3, #16
e001a0d4:	e58d3014 	str	r3, [sp, #20]
e001a0d8:	e24a3001 	sub	r3, sl, #1
e001a0dc:	e3a02001 	mov	r2, #1
e001a0e0:	e59d1014 	ldr	r1, [sp, #20]
e001a0e4:	e0833112 	add	r3, r3, r2, lsl r1
e001a0e8:	e3730212 	cmn	r3, #536870913	; 0x20000001
e001a0ec:	8a00001a 	bhi	e001a15c <decodeARMMMUInvocation+0x7d8>
e001a0f0:	e59d1018 	ldr	r1, [sp, #24]
e001a0f4:	e59d001c 	ldr	r0, [sp, #28]
e001a0f8:	ebffda80 	bl	e0010b00 <maskVMRights>
e001a0fc:	e3e03000 	mvn	r3, #0
e001a100:	e59d2014 	ldr	r2, [sp, #20]
e001a104:	e1da3213 	bics	r3, sl, r3, lsl r2
e001a108:	1a00001b 	bne	e001a17c <decodeARMMMUInvocation+0x7f8>
e001a10c:	e3570001 	cmp	r7, #1
e001a110:	0a00001f 	beq	e001a194 <decodeARMMMUInvocation+0x810>
e001a114:	e3570003 	cmp	r7, #3
e001a118:	0a00002a 	beq	e001a1c8 <decodeARMMMUInvocation+0x844>
e001a11c:	e59d3024 	ldr	r3, [sp, #36]	; 0x24
e001a120:	e3530001 	cmp	r3, #1
e001a124:	13a01203 	movne	r1, #805306368	; 0x30000000
e001a128:	1a00002a 	bne	e001a1d8 <decodeARMMMUInvocation+0x854>
e001a12c:	e3a01203 	mov	r1, #805306368	; 0x30000000
e001a130:	ea00001b 	b	e001a1a4 <decodeARMMMUInvocation+0x820>
e001a134:	e3a03018 	mov	r3, #24
e001a138:	e58d3014 	str	r3, [sp, #20]
e001a13c:	eaffffe5 	b	e001a0d8 <decodeARMMMUInvocation+0x754>
e001a140:	ebffd9ca 	bl	e0010870 <halt>
e001a144:	e3a0300c 	mov	r3, #12
e001a148:	e58d3014 	str	r3, [sp, #20]
e001a14c:	eaffffe1 	b	e001a0d8 <decodeARMMMUInvocation+0x754>
e001a150:	e3a03014 	mov	r3, #20
e001a154:	e58d3014 	str	r3, [sp, #20]
e001a158:	eaffffde 	b	e001a0d8 <decodeARMMMUInvocation+0x754>
e001a15c:	e3093030 	movw	r3, #36912	; 0x9030
e001a160:	e34e3002 	movt	r3, #57346	; 0xe002
e001a164:	e3a02001 	mov	r2, #1
e001a168:	e5832018 	str	r2, [r3, #24]
e001a16c:	e3a02000 	mov	r2, #0
e001a170:	e5832000 	str	r2, [r3]
e001a174:	e3a06003 	mov	r6, #3
e001a178:	ea0002e8 	b	e001ad20 <decodeARMMMUInvocation+0x139c>
e001a17c:	e3093030 	movw	r3, #36912	; 0x9030
e001a180:	e34e3002 	movt	r3, #57346	; 0xe002
e001a184:	e3a02005 	mov	r2, #5
e001a188:	e5832018 	str	r2, [r3, #24]
e001a18c:	e3a06003 	mov	r6, #3
e001a190:	ea0002e2 	b	e001ad20 <decodeARMMMUInvocation+0x139c>
e001a194:	e1a01404 	lsl	r1, r4, #8
e001a198:	e3c11eff 	bic	r1, r1, #4080	; 0xff0
e001a19c:	e3c1100f 	bic	r1, r1, #15
e001a1a0:	e2811203 	add	r1, r1, #805306368	; 0x30000000
e001a1a4:	e1a03529 	lsr	r3, r9, #10
e001a1a8:	e3c4447f 	bic	r4, r4, #2130706432	; 0x7f000000
e001a1ac:	e1844c03 	orr	r4, r4, r3, lsl #24
e001a1b0:	e7f55055 	ubfx	r5, r5, #0, #22
e001a1b4:	e1855b09 	orr	r5, r5, r9, lsl #22
e001a1b8:	e1a05a25 	lsr	r5, r5, #20
e001a1bc:	e1a05a05 	lsl	r5, r5, #20
e001a1c0:	e185562a 	orr	r5, r5, sl, lsr #12
e001a1c4:	ea00000e 	b	e001a204 <decodeARMMMUInvocation+0x880>
e001a1c8:	e1a01504 	lsl	r1, r4, #10
e001a1cc:	e3c11dff 	bic	r1, r1, #16320	; 0x3fc0
e001a1d0:	e3c1103f 	bic	r1, r1, #63	; 0x3f
e001a1d4:	e2811203 	add	r1, r1, #805306368	; 0x30000000
e001a1d8:	e1a03529 	lsr	r3, r9, #10
e001a1dc:	e3c4457f 	bic	r4, r4, #532676608	; 0x1fc00000
e001a1e0:	e1844b03 	orr	r4, r4, r3, lsl #22
e001a1e4:	e3a03000 	mov	r3, #0
e001a1e8:	e3433ff0 	movt	r3, #16368	; 0x3ff0
e001a1ec:	e0032a09 	and	r2, r3, r9, lsl #20
e001a1f0:	e3a03000 	mov	r3, #0
e001a1f4:	e34c300c 	movt	r3, #49164	; 0xc00c
e001a1f8:	e0033005 	and	r3, r3, r5
e001a1fc:	e1833002 	orr	r3, r3, r2
e001a200:	e183572a 	orr	r5, r3, sl, lsr #14
e001a204:	e59d3010 	ldr	r3, [sp, #16]
e001a208:	e3530001 	cmp	r3, #1
e001a20c:	9a000026 	bls	e001a2ac <decodeARMMMUInvocation+0x928>
e001a210:	e58d6008 	str	r6, [sp, #8]
e001a214:	e59d3020 	ldr	r3, [sp, #32]
e001a218:	e58d3004 	str	r3, [sp, #4]
e001a21c:	e58d0000 	str	r0, [sp]
e001a220:	e59d3010 	ldr	r3, [sp, #16]
e001a224:	e1a0200a 	mov	r2, sl
e001a228:	e28d0030 	add	r0, sp, #48	; 0x30
e001a22c:	ebffd9da 	bl	e001099c <createSafeMappingEntries_PDE>
e001a230:	e59d6030 	ldr	r6, [sp, #48]	; 0x30
e001a234:	e3560000 	cmp	r6, #0
e001a238:	1a0002b8 	bne	e001ad20 <decodeARMMMUInvocation+0x139c>
e001a23c:	e3013b34 	movw	r3, #6964	; 0x1b34
e001a240:	e34e3003 	movt	r3, #57347	; 0xe003
e001a244:	e3a01002 	mov	r1, #2
e001a248:	e5930000 	ldr	r0, [r3]
e001a24c:	ebffeaad 	bl	e0014d08 <setThreadState>
e001a250:	e59d1034 	ldr	r1, [sp, #52]	; 0x34
e001a254:	e59d0038 	ldr	r0, [sp, #56]	; 0x38
e001a258:	e59dc03c 	ldr	ip, [sp, #60]	; 0x3c
e001a25c:	e58b4000 	str	r4, [fp]
e001a260:	e58b5004 	str	r5, [fp, #4]
e001a264:	e5904000 	ldr	r4, [r0]
e001a268:	e2044003 	and	r4, r4, #3
e001a26c:	e35c0000 	cmp	ip, #0
e001a270:	0a000004 	beq	e001a288 <decodeARMMMUInvocation+0x904>
e001a274:	e1a03000 	mov	r3, r0
e001a278:	e080210c 	add	r2, r0, ip, lsl #2
e001a27c:	e4831004 	str	r1, [r3], #4
e001a280:	e1530002 	cmp	r3, r2
e001a284:	1afffffc 	bne	e001a27c <decodeARMMMUInvocation+0x8f8>
e001a288:	e080110c 	add	r1, r0, ip, lsl #2
e001a28c:	e2802203 	add	r2, r0, #805306368	; 0x30000000
e001a290:	e2411001 	sub	r1, r1, #1
e001a294:	ebffe029 	bl	e0012340 <cleanCacheRange_PoU>
e001a298:	e3540000 	cmp	r4, #0
e001a29c:	0a00029f 	beq	e001ad20 <decodeARMMMUInvocation+0x139c>
e001a2a0:	e1a00009 	mov	r0, r9
e001a2a4:	ebffdd13 	bl	e00116f8 <invalidateTLBByASID>
e001a2a8:	ea00029c 	b	e001ad20 <decodeARMMMUInvocation+0x139c>
e001a2ac:	e58d6008 	str	r6, [sp, #8]
e001a2b0:	e59d3020 	ldr	r3, [sp, #32]
e001a2b4:	e58d3004 	str	r3, [sp, #4]
e001a2b8:	e58d0000 	str	r0, [sp]
e001a2bc:	e59d3010 	ldr	r3, [sp, #16]
e001a2c0:	e1a0200a 	mov	r2, sl
e001a2c4:	e28d0030 	add	r0, sp, #48	; 0x30
e001a2c8:	ebffdb3f 	bl	e0010fcc <createSafeMappingEntries_PTE>
e001a2cc:	e59d6030 	ldr	r6, [sp, #48]	; 0x30
e001a2d0:	e3560000 	cmp	r6, #0
e001a2d4:	1a000291 	bne	e001ad20 <decodeARMMMUInvocation+0x139c>
e001a2d8:	e3013b34 	movw	r3, #6964	; 0x1b34
e001a2dc:	e34e3003 	movt	r3, #57347	; 0xe003
e001a2e0:	e3a01002 	mov	r1, #2
e001a2e4:	e5930000 	ldr	r0, [r3]
e001a2e8:	ebffea86 	bl	e0014d08 <setThreadState>
e001a2ec:	e59d1034 	ldr	r1, [sp, #52]	; 0x34
e001a2f0:	e59d0038 	ldr	r0, [sp, #56]	; 0x38
e001a2f4:	e59d203c 	ldr	r2, [sp, #60]	; 0x3c
e001a2f8:	e58b4000 	str	r4, [fp]
e001a2fc:	e58b5004 	str	r5, [fp, #4]
e001a300:	e5903000 	ldr	r3, [r0]
e001a304:	e3130002 	tst	r3, #2
e001a308:	1a00029b 	bne	e001ad7c <decodeARMMMUInvocation+0x13f8>
e001a30c:	e3130001 	tst	r3, #1
e001a310:	1a00029a 	bne	e001ad80 <decodeARMMMUInvocation+0x13fc>
e001a314:	e3520000 	cmp	r2, #0
e001a318:	1a000004 	bne	e001a330 <decodeARMMMUInvocation+0x9ac>
e001a31c:	e0801102 	add	r1, r0, r2, lsl #2
e001a320:	e2802203 	add	r2, r0, #805306368	; 0x30000000
e001a324:	e2411001 	sub	r1, r1, #1
e001a328:	ebffe004 	bl	e0012340 <cleanCacheRange_PoU>
e001a32c:	ea00027b 	b	e001ad20 <decodeARMMMUInvocation+0x139c>
e001a330:	e3a08002 	mov	r8, #2
e001a334:	ea000293 	b	e001ad88 <decodeARMMMUInvocation+0x1404>
e001a338:	e3590000 	cmp	r9, #0
e001a33c:	13510001 	cmpne	r1, #1
e001a340:	9a00003a 	bls	e001a430 <decodeARMMMUInvocation+0xaac>
e001a344:	e3013b34 	movw	r3, #6964	; 0x1b34
e001a348:	e34e3003 	movt	r3, #57347	; 0xe003
e001a34c:	e5933000 	ldr	r3, [r3]
e001a350:	e5932008 	ldr	r2, [r3, #8]
e001a354:	e58d2010 	str	r2, [sp, #16]
e001a358:	e593b00c 	ldr	fp, [r3, #12]
e001a35c:	e5996000 	ldr	r6, [r9]
e001a360:	e206300e 	and	r3, r6, #14
e001a364:	e353000e 	cmp	r3, #14
e001a368:	1206300f 	andne	r3, r6, #15
e001a36c:	06ef3076 	uxtbeq	r3, r6
e001a370:	e3530009 	cmp	r3, #9
e001a374:	1a000033 	bne	e001a448 <decodeARMMMUInvocation+0xac4>
e001a378:	e3160010 	tst	r6, #16
e001a37c:	0a000031 	beq	e001a448 <decodeARMMMUInvocation+0xac4>
e001a380:	e6ef3077 	uxtb	r3, r7
e001a384:	e3530001 	cmp	r3, #1
e001a388:	0a000036 	beq	e001a468 <decodeARMMMUInvocation+0xae4>
e001a38c:	e1a08624 	lsr	r8, r4, #12
e001a390:	e2088b7f 	and	r8, r8, #130048	; 0x1fc00
e001a394:	e7e93a55 	ubfx	r3, r5, #20, #10
e001a398:	e1988003 	orrs	r8, r8, r3
e001a39c:	13c66dff 	bicne	r6, r6, #16320	; 0x3fc0
e001a3a0:	13c6603f 	bicne	r6, r6, #63	; 0x3f
e001a3a4:	11a0a705 	lslne	sl, r5, #14
e001a3a8:	0a000035 	beq	e001a484 <decodeARMMMUInvocation+0xb00>
e001a3ac:	e5999004 	ldr	r9, [r9, #4]
e001a3b0:	e1a01008 	mov	r1, r8
e001a3b4:	e28d0030 	add	r0, sp, #48	; 0x30
e001a3b8:	ebffd9e4 	bl	e0010b50 <findPDForASID>
e001a3bc:	e59d3030 	ldr	r3, [sp, #48]	; 0x30
e001a3c0:	e3530000 	cmp	r3, #0
e001a3c4:	1a000036 	bne	e001a4a4 <decodeARMMMUInvocation+0xb20>
e001a3c8:	e59d3034 	ldr	r3, [sp, #52]	; 0x34
e001a3cc:	e1560003 	cmp	r6, r3
e001a3d0:	1a00003a 	bne	e001a4c0 <decodeARMMMUInvocation+0xb3c>
e001a3d4:	e7f09059 	ubfx	r9, r9, #0, #17
e001a3d8:	e1580009 	cmp	r8, r9
e001a3dc:	1a000037 	bne	e001a4c0 <decodeARMMMUInvocation+0xb3c>
e001a3e0:	e3570003 	cmp	r7, #3
e001a3e4:	01a09f25 	lsreq	r9, r5, #30
e001a3e8:	0a000006 	beq	e001a408 <decodeARMMMUInvocation+0xa84>
e001a3ec:	e3570001 	cmp	r7, #1
e001a3f0:	0a00003a 	beq	e001a4e0 <decodeARMMMUInvocation+0xb5c>
e001a3f4:	e3570003 	cmp	r7, #3
e001a3f8:	13a09000 	movne	r9, #0
e001a3fc:	11a00009 	movne	r0, r9
e001a400:	1a000001 	bne	e001a40c <decodeARMMMUInvocation+0xa88>
e001a404:	e3a09000 	mov	r9, #0
e001a408:	e7e10955 	ubfx	r0, r5, #18, #2
e001a40c:	e59d1010 	ldr	r1, [sp, #16]
e001a410:	ebffd9ba 	bl	e0010b00 <maskVMRights>
e001a414:	e3590003 	cmp	r9, #3
e001a418:	979ff109 	ldrls	pc, [pc, r9, lsl #2]
e001a41c:	ea000041 	b	e001a528 <decodeARMMMUInvocation+0xba4>
e001a420:	e001a4f0 	.word	0xe001a4f0
e001a424:	e001a4f8 	.word	0xe001a4f8
e001a428:	e001a52c 	.word	0xe001a52c
e001a42c:	e001a500 	.word	0xe001a500
e001a430:	e3093030 	movw	r3, #36912	; 0x9030
e001a434:	e34e3002 	movt	r3, #57346	; 0xe002
e001a438:	e3a02007 	mov	r2, #7
e001a43c:	e5832018 	str	r2, [r3, #24]
e001a440:	e3a06003 	mov	r6, #3
e001a444:	ea000235 	b	e001ad20 <decodeARMMMUInvocation+0x139c>
e001a448:	e3093030 	movw	r3, #36912	; 0x9030
e001a44c:	e34e3002 	movt	r3, #57346	; 0xe002
e001a450:	e3a02002 	mov	r2, #2
e001a454:	e5832018 	str	r2, [r3, #24]
e001a458:	e3a02001 	mov	r2, #1
e001a45c:	e5832004 	str	r2, [r3, #4]
e001a460:	e3a06003 	mov	r6, #3
e001a464:	ea00022d 	b	e001ad20 <decodeARMMMUInvocation+0x139c>
e001a468:	e1a08724 	lsr	r8, r4, #14
e001a46c:	e2088b7f 	and	r8, r8, #130048	; 0x1fc00
e001a470:	e0988b25 	adds	r8, r8, r5, lsr #22
e001a474:	13c66dff 	bicne	r6, r6, #16320	; 0x3fc0
e001a478:	13c6603f 	bicne	r6, r6, #63	; 0x3f
e001a47c:	11a0a605 	lslne	sl, r5, #12
e001a480:	1affffc9 	bne	e001a3ac <decodeARMMMUInvocation+0xa28>
e001a484:	e3093030 	movw	r3, #36912	; 0x9030
e001a488:	e34e3002 	movt	r3, #57346	; 0xe002
e001a48c:	e3a02002 	mov	r2, #2
e001a490:	e5832018 	str	r2, [r3, #24]
e001a494:	e3a02000 	mov	r2, #0
e001a498:	e5832004 	str	r2, [r3, #4]
e001a49c:	e3a06003 	mov	r6, #3
e001a4a0:	ea00021e 	b	e001ad20 <decodeARMMMUInvocation+0x139c>
e001a4a4:	e3093030 	movw	r3, #36912	; 0x9030
e001a4a8:	e34e3002 	movt	r3, #57346	; 0xe002
e001a4ac:	e3a02006 	mov	r2, #6
e001a4b0:	e5832018 	str	r2, [r3, #24]
e001a4b4:	e3a02000 	mov	r2, #0
e001a4b8:	e5832014 	str	r2, [r3, #20]
e001a4bc:	ea000005 	b	e001a4d8 <decodeARMMMUInvocation+0xb54>
e001a4c0:	e3093030 	movw	r3, #36912	; 0x9030
e001a4c4:	e34e3002 	movt	r3, #57346	; 0xe002
e001a4c8:	e3a02002 	mov	r2, #2
e001a4cc:	e5832018 	str	r2, [r3, #24]
e001a4d0:	e3a02001 	mov	r2, #1
e001a4d4:	e5832004 	str	r2, [r3, #4]
e001a4d8:	e3a06003 	mov	r6, #3
e001a4dc:	ea00020f 	b	e001ad20 <decodeARMMMUInvocation+0x139c>
e001a4e0:	e59d1010 	ldr	r1, [sp, #16]
e001a4e4:	e7e10a55 	ubfx	r0, r5, #20, #2
e001a4e8:	ebffd984 	bl	e0010b00 <maskVMRights>
e001a4ec:	e3a09000 	mov	r9, #0
e001a4f0:	e3a0200c 	mov	r2, #12
e001a4f4:	ea000002 	b	e001a504 <decodeARMMMUInvocation+0xb80>
e001a4f8:	e3a02010 	mov	r2, #16
e001a4fc:	ea000000 	b	e001a504 <decodeARMMMUInvocation+0xb80>
e001a500:	e3a02018 	mov	r2, #24
e001a504:	e3e03000 	mvn	r3, #0
e001a508:	e1da3213 	bics	r3, sl, r3, lsl r2
e001a50c:	1a000008 	bne	e001a534 <decodeARMMMUInvocation+0xbb0>
e001a510:	e3570001 	cmp	r7, #1
e001a514:	0a00000c 	beq	e001a54c <decodeARMMMUInvocation+0xbc8>
e001a518:	e3570003 	cmp	r7, #3
e001a51c:	0a000034 	beq	e001a5f4 <decodeARMMMUInvocation+0xc70>
e001a520:	e3a03000 	mov	r3, #0
e001a524:	ea00000b 	b	e001a558 <decodeARMMMUInvocation+0xbd4>
e001a528:	ebffd8d0 	bl	e0010870 <halt>
e001a52c:	e3a02014 	mov	r2, #20
e001a530:	eafffff3 	b	e001a504 <decodeARMMMUInvocation+0xb80>
e001a534:	e3093030 	movw	r3, #36912	; 0x9030
e001a538:	e34e3002 	movt	r3, #57346	; 0xe002
e001a53c:	e3a02005 	mov	r2, #5
e001a540:	e5832018 	str	r2, [r3, #24]
e001a544:	e3a06003 	mov	r6, #3
e001a548:	ea0001f4 	b	e001ad20 <decodeARMMMUInvocation+0x139c>
e001a54c:	e1a03404 	lsl	r3, r4, #8
e001a550:	e3c33eff 	bic	r3, r3, #4080	; 0xff0
e001a554:	e3c3300f 	bic	r3, r3, #15
e001a558:	e2831203 	add	r1, r3, #805306368	; 0x30000000
e001a55c:	e3590001 	cmp	r9, #1
e001a560:	9a000027 	bls	e001a604 <decodeARMMMUInvocation+0xc80>
e001a564:	e58d6008 	str	r6, [sp, #8]
e001a568:	e58db004 	str	fp, [sp, #4]
e001a56c:	e58d0000 	str	r0, [sp]
e001a570:	e1a03009 	mov	r3, r9
e001a574:	e1a0200a 	mov	r2, sl
e001a578:	e28d0030 	add	r0, sp, #48	; 0x30
e001a57c:	ebffd906 	bl	e001099c <createSafeMappingEntries_PDE>
e001a580:	e59d6030 	ldr	r6, [sp, #48]	; 0x30
e001a584:	e3560000 	cmp	r6, #0
e001a588:	1a0001e4 	bne	e001ad20 <decodeARMMMUInvocation+0x139c>
e001a58c:	e3013b34 	movw	r3, #6964	; 0x1b34
e001a590:	e34e3003 	movt	r3, #57347	; 0xe003
e001a594:	e3a01002 	mov	r1, #2
e001a598:	e5930000 	ldr	r0, [r3]
e001a59c:	ebffe9d9 	bl	e0014d08 <setThreadState>
e001a5a0:	e59d1034 	ldr	r1, [sp, #52]	; 0x34
e001a5a4:	e59d0038 	ldr	r0, [sp, #56]	; 0x38
e001a5a8:	e59dc03c 	ldr	ip, [sp, #60]	; 0x3c
e001a5ac:	e5904000 	ldr	r4, [r0]
e001a5b0:	e2044003 	and	r4, r4, #3
e001a5b4:	e35c0000 	cmp	ip, #0
e001a5b8:	0a000004 	beq	e001a5d0 <decodeARMMMUInvocation+0xc4c>
e001a5bc:	e1a03000 	mov	r3, r0
e001a5c0:	e080210c 	add	r2, r0, ip, lsl #2
e001a5c4:	e4831004 	str	r1, [r3], #4
e001a5c8:	e1530002 	cmp	r3, r2
e001a5cc:	1afffffc 	bne	e001a5c4 <decodeARMMMUInvocation+0xc40>
e001a5d0:	e080110c 	add	r1, r0, ip, lsl #2
e001a5d4:	e2802203 	add	r2, r0, #805306368	; 0x30000000
e001a5d8:	e2411001 	sub	r1, r1, #1
e001a5dc:	ebffdf57 	bl	e0012340 <cleanCacheRange_PoU>
e001a5e0:	e3540000 	cmp	r4, #0
e001a5e4:	0a0001cd 	beq	e001ad20 <decodeARMMMUInvocation+0x139c>
e001a5e8:	e1a00008 	mov	r0, r8
e001a5ec:	ebffdc41 	bl	e00116f8 <invalidateTLBByASID>
e001a5f0:	ea0001ca 	b	e001ad20 <decodeARMMMUInvocation+0x139c>
e001a5f4:	e1a03504 	lsl	r3, r4, #10
e001a5f8:	e3c33dff 	bic	r3, r3, #16320	; 0x3fc0
e001a5fc:	e3c3303f 	bic	r3, r3, #63	; 0x3f
e001a600:	eaffffd4 	b	e001a558 <decodeARMMMUInvocation+0xbd4>
e001a604:	e58d6008 	str	r6, [sp, #8]
e001a608:	e58db004 	str	fp, [sp, #4]
e001a60c:	e58d0000 	str	r0, [sp]
e001a610:	e1a03009 	mov	r3, r9
e001a614:	e1a0200a 	mov	r2, sl
e001a618:	e28d0030 	add	r0, sp, #48	; 0x30
e001a61c:	ebffda6a 	bl	e0010fcc <createSafeMappingEntries_PTE>
e001a620:	e59d6030 	ldr	r6, [sp, #48]	; 0x30
e001a624:	e3560000 	cmp	r6, #0
e001a628:	1a0001bc 	bne	e001ad20 <decodeARMMMUInvocation+0x139c>
e001a62c:	e3013b34 	movw	r3, #6964	; 0x1b34
e001a630:	e34e3003 	movt	r3, #57347	; 0xe003
e001a634:	e3a01002 	mov	r1, #2
e001a638:	e5930000 	ldr	r0, [r3]
e001a63c:	ebffe9b1 	bl	e0014d08 <setThreadState>
e001a640:	e59d1034 	ldr	r1, [sp, #52]	; 0x34
e001a644:	e59d0038 	ldr	r0, [sp, #56]	; 0x38
e001a648:	e59d203c 	ldr	r2, [sp, #60]	; 0x3c
e001a64c:	e5903000 	ldr	r3, [r0]
e001a650:	e3130002 	tst	r3, #2
e001a654:	1a0001de 	bne	e001add4 <decodeARMMMUInvocation+0x1450>
e001a658:	e3130001 	tst	r3, #1
e001a65c:	1a0001ed 	bne	e001ae18 <decodeARMMMUInvocation+0x1494>
e001a660:	e3520000 	cmp	r2, #0
e001a664:	1a000004 	bne	e001a67c <decodeARMMMUInvocation+0xcf8>
e001a668:	e0801102 	add	r1, r0, r2, lsl #2
e001a66c:	e2802203 	add	r2, r0, #805306368	; 0x30000000
e001a670:	e2411001 	sub	r1, r1, #1
e001a674:	ebffdf31 	bl	e0012340 <cleanCacheRange_PoU>
e001a678:	ea0001a8 	b	e001ad20 <decodeARMMMUInvocation+0x139c>
e001a67c:	e3a04002 	mov	r4, #2
e001a680:	ea0001d6 	b	e001ade0 <decodeARMMMUInvocation+0x145c>
e001a684:	e3013b34 	movw	r3, #6964	; 0x1b34
e001a688:	e34e3003 	movt	r3, #57347	; 0xe003
e001a68c:	e3a01002 	mov	r1, #2
e001a690:	e5930000 	ldr	r0, [r3]
e001a694:	ebffe99b 	bl	e0014d08 <setThreadState>
e001a698:	e6ef3077 	uxtb	r3, r7
e001a69c:	e3530001 	cmp	r3, #1
e001a6a0:	01a01724 	lsreq	r1, r4, #14
e001a6a4:	02011b7f 	andeq	r1, r1, #130048	; 0x1fc00
e001a6a8:	00811b25 	addeq	r1, r1, r5, lsr #22
e001a6ac:	11a01624 	lsrne	r1, r4, #12
e001a6b0:	12011b7f 	andne	r1, r1, #130048	; 0x1fc00
e001a6b4:	17e92a55 	ubfxne	r2, r5, #20, #10
e001a6b8:	11811002 	orrne	r1, r1, r2
e001a6bc:	e3510000 	cmp	r1, #0
e001a6c0:	0a000012 	beq	e001a710 <decodeARMMMUInvocation+0xd8c>
e001a6c4:	e3570003 	cmp	r7, #3
e001a6c8:	01a00f25 	lsreq	r0, r5, #30
e001a6cc:	0a000004 	beq	e001a6e4 <decodeARMMMUInvocation+0xd60>
e001a6d0:	e3530001 	cmp	r3, #1
e001a6d4:	01a02605 	lsleq	r2, r5, #12
e001a6d8:	03a00000 	moveq	r0, #0
e001a6dc:	0a000001 	beq	e001a6e8 <decodeARMMMUInvocation+0xd64>
e001a6e0:	e3a00000 	mov	r0, #0
e001a6e4:	e1a02705 	lsl	r2, r5, #14
e001a6e8:	e3570001 	cmp	r7, #1
e001a6ec:	0a000003 	beq	e001a700 <decodeARMMMUInvocation+0xd7c>
e001a6f0:	e3570003 	cmp	r7, #3
e001a6f4:	0a000017 	beq	e001a758 <decodeARMMMUInvocation+0xdd4>
e001a6f8:	e3a03000 	mov	r3, #0
e001a6fc:	ea000002 	b	e001a70c <decodeARMMMUInvocation+0xd88>
e001a700:	e1a03404 	lsl	r3, r4, #8
e001a704:	e3c33eff 	bic	r3, r3, #4080	; 0xff0
e001a708:	e3c3300f 	bic	r3, r3, #15
e001a70c:	ebffdf18 	bl	e0012374 <unmapPage>
e001a710:	e59b3000 	ldr	r3, [fp]
e001a714:	e59b1004 	ldr	r1, [fp, #4]
e001a718:	e203200e 	and	r2, r3, #14
e001a71c:	e352000e 	cmp	r2, #14
e001a720:	1203200f 	andne	r2, r3, #15
e001a724:	06ef2073 	uxtbeq	r2, r3
e001a728:	e6ef2072 	uxtb	r2, r2
e001a72c:	e3520001 	cmp	r2, #1
e001a730:	03c3347f 	biceq	r3, r3, #2130706432	; 0x7f000000
e001a734:	02012603 	andeq	r2, r1, #3145728	; 0x300000
e001a738:	13c3357f 	bicne	r3, r3, #532676608	; 0x1fc00000
e001a73c:	13a02000 	movne	r2, #0
e001a740:	134c200c 	movtne	r2, #49164	; 0xc00c
e001a744:	10022001 	andne	r2, r2, r1
e001a748:	e58b3000 	str	r3, [fp]
e001a74c:	e58b2004 	str	r2, [fp, #4]
e001a750:	e3a06000 	mov	r6, #0
e001a754:	ea000171 	b	e001ad20 <decodeARMMMUInvocation+0x139c>
e001a758:	e1a03504 	lsl	r3, r4, #10
e001a75c:	e3c33dff 	bic	r3, r3, #16320	; 0x3fc0
e001a760:	e3c3303f 	bic	r3, r3, #63	; 0x3f
e001a764:	eaffffe8 	b	e001a70c <decodeARMMMUInvocation+0xd88>
e001a768:	e3510001 	cmp	r1, #1
e001a76c:	9a000025 	bls	e001a808 <decodeARMMMUInvocation+0xe84>
e001a770:	e6ef3077 	uxtb	r3, r7
e001a774:	e3530001 	cmp	r3, #1
e001a778:	01a09724 	lsreq	r9, r4, #14
e001a77c:	02099b7f 	andeq	r9, r9, #130048	; 0x1fc00
e001a780:	00899b25 	addeq	r9, r9, r5, lsr #22
e001a784:	01a03605 	lsleq	r3, r5, #12
e001a788:	11a09624 	lsrne	r9, r4, #12
e001a78c:	12099b7f 	andne	r9, r9, #130048	; 0x1fc00
e001a790:	17e93a55 	ubfxne	r3, r5, #20, #10
e001a794:	11899003 	orrne	r9, r9, r3
e001a798:	11a03705 	lslne	r3, r5, #14
e001a79c:	e58d3010 	str	r3, [sp, #16]
e001a7a0:	e3590000 	cmp	r9, #0
e001a7a4:	03093030 	movweq	r3, #36912	; 0x9030
e001a7a8:	034e3002 	movteq	r3, #57346	; 0xe002
e001a7ac:	03a06003 	moveq	r6, #3
e001a7b0:	05836018 	streq	r6, [r3, #24]
e001a7b4:	0a000159 	beq	e001ad20 <decodeARMMMUInvocation+0x139c>
e001a7b8:	e1a01009 	mov	r1, r9
e001a7bc:	e28d0030 	add	r0, sp, #48	; 0x30
e001a7c0:	ebffd8e2 	bl	e0010b50 <findPDForASID>
e001a7c4:	e59d6030 	ldr	r6, [sp, #48]	; 0x30
e001a7c8:	e3560000 	cmp	r6, #0
e001a7cc:	1a000013 	bne	e001a820 <decodeARMMMUInvocation+0xe9c>
e001a7d0:	e3013b34 	movw	r3, #6964	; 0x1b34
e001a7d4:	e34e3003 	movt	r3, #57347	; 0xe003
e001a7d8:	e5930000 	ldr	r0, [r3]
e001a7dc:	e590b008 	ldr	fp, [r0, #8]
e001a7e0:	e590a00c 	ldr	sl, [r0, #12]
e001a7e4:	e15b000a 	cmp	fp, sl
e001a7e8:	3a000014 	bcc	e001a840 <decodeARMMMUInvocation+0xebc>
e001a7ec:	e3093030 	movw	r3, #36912	; 0x9030
e001a7f0:	e34e3002 	movt	r3, #57346	; 0xe002
e001a7f4:	e3a02001 	mov	r2, #1
e001a7f8:	e5832018 	str	r2, [r3, #24]
e001a7fc:	e5832000 	str	r2, [r3]
e001a800:	e3a06003 	mov	r6, #3
e001a804:	ea000145 	b	e001ad20 <decodeARMMMUInvocation+0x139c>
e001a808:	e3093030 	movw	r3, #36912	; 0x9030
e001a80c:	e34e3002 	movt	r3, #57346	; 0xe002
e001a810:	e3a02007 	mov	r2, #7
e001a814:	e5832018 	str	r2, [r3, #24]
e001a818:	e3a06003 	mov	r6, #3
e001a81c:	ea00013f 	b	e001ad20 <decodeARMMMUInvocation+0x139c>
e001a820:	e3093030 	movw	r3, #36912	; 0x9030
e001a824:	e34e3002 	movt	r3, #57346	; 0xe002
e001a828:	e3a02006 	mov	r2, #6
e001a82c:	e5832018 	str	r2, [r3, #24]
e001a830:	e3a02000 	mov	r2, #0
e001a834:	e5832014 	str	r2, [r3, #20]
e001a838:	e3a06003 	mov	r6, #3
e001a83c:	ea000137 	b	e001ad20 <decodeARMMMUInvocation+0x139c>
e001a840:	e3570003 	cmp	r7, #3
e001a844:	1a000008 	bne	e001a86c <decodeARMMMUInvocation+0xee8>
e001a848:	e1a05f25 	lsr	r5, r5, #30
e001a84c:	e3550003 	cmp	r5, #3
e001a850:	979ff105 	ldrls	pc, [pc, r5, lsl #2]
e001a854:	ea000003 	b	e001a868 <decodeARMMMUInvocation+0xee4>
e001a858:	e001a8d0 	.word	0xe001a8d0
e001a85c:	e001ae20 	.word	0xe001ae20
e001a860:	e001a890 	.word	0xe001a890
e001a864:	e001ae3c 	.word	0xe001ae3c
e001a868:	ebffd800 	bl	e0010870 <halt>
e001a86c:	e3a0200c 	mov	r2, #12
e001a870:	e3a03001 	mov	r3, #1
e001a874:	e1a03213 	lsl	r3, r3, r2
e001a878:	e3570001 	cmp	r7, #1
e001a87c:	0a000005 	beq	e001a898 <decodeARMMMUInvocation+0xf14>
e001a880:	e3570003 	cmp	r7, #3
e001a884:	13a04000 	movne	r4, #0
e001a888:	1a000005 	bne	e001a8a4 <decodeARMMMUInvocation+0xf20>
e001a88c:	ea000166 	b	e001ae2c <decodeARMMMUInvocation+0x14a8>
e001a890:	e3a02014 	mov	r2, #20
e001a894:	eafffff5 	b	e001a870 <decodeARMMMUInvocation+0xeec>
e001a898:	e1a04404 	lsl	r4, r4, #8
e001a89c:	e3c44eff 	bic	r4, r4, #4080	; 0xff0
e001a8a0:	e3c4400f 	bic	r4, r4, #15
e001a8a4:	e153000a 	cmp	r3, sl
e001a8a8:	2153000b 	cmpcs	r3, fp
e001a8ac:	8a000009 	bhi	e001a8d8 <decodeARMMMUInvocation+0xf54>
e001a8b0:	e3093030 	movw	r3, #36912	; 0x9030
e001a8b4:	e34e3002 	movt	r3, #57346	; 0xe002
e001a8b8:	e3a02001 	mov	r2, #1
e001a8bc:	e5832018 	str	r2, [r3, #24]
e001a8c0:	e3a02000 	mov	r2, #0
e001a8c4:	e5832000 	str	r2, [r3]
e001a8c8:	e3a06003 	mov	r6, #3
e001a8cc:	ea000113 	b	e001ad20 <decodeARMMMUInvocation+0x139c>
e001a8d0:	e3a03a01 	mov	r3, #4096	; 0x1000
e001a8d4:	ea000154 	b	e001ae2c <decodeARMMMUInvocation+0x14a8>
e001a8d8:	e59d3010 	ldr	r3, [sp, #16]
e001a8dc:	e08b5003 	add	r5, fp, r3
e001a8e0:	e3a01002 	mov	r1, #2
e001a8e4:	ebffe907 	bl	e0014d08 <setThreadState>
e001a8e8:	e24a7001 	sub	r7, sl, #1
e001a8ec:	e59d3010 	ldr	r3, [sp, #16]
e001a8f0:	e0877003 	add	r7, r7, r3
e001a8f4:	e1550007 	cmp	r5, r7
e001a8f8:	2a000108 	bcs	e001ad20 <decodeARMMMUInvocation+0x139c>
e001a8fc:	e1a01009 	mov	r1, r9
e001a900:	e59d0034 	ldr	r0, [sp, #52]	; 0x34
e001a904:	ebffdaec 	bl	e00114bc <setVMRootForFlush>
e001a908:	e1a09000 	mov	r9, r0
e001a90c:	e28b3203 	add	r3, fp, #805306368	; 0x30000000
e001a910:	e0833004 	add	r3, r3, r4
e001a914:	e1a02007 	mov	r2, r7
e001a918:	e1a01005 	mov	r1, r5
e001a91c:	e1a00008 	mov	r0, r8
e001a920:	ebffdfa9 	bl	e00127cc <doFlush>
e001a924:	e3590000 	cmp	r9, #0
e001a928:	0a0000fc 	beq	e001ad20 <decodeARMMMUInvocation+0x139c>
e001a92c:	e3013b34 	movw	r3, #6964	; 0x1b34
e001a930:	e34e3003 	movt	r3, #57347	; 0xe003
e001a934:	e5930000 	ldr	r0, [r3]
e001a938:	ebffda9b 	bl	e00113ac <setVMRoot>
e001a93c:	ea0000f7 	b	e001ad20 <decodeARMMMUInvocation+0x139c>
e001a940:	e3013b34 	movw	r3, #6964	; 0x1b34
e001a944:	e34e3003 	movt	r3, #57347	; 0xe003
e001a948:	e3a01002 	mov	r1, #2
e001a94c:	e5930000 	ldr	r0, [r3]
e001a950:	ebffe8ec 	bl	e0014d08 <setThreadState>
e001a954:	e3570001 	cmp	r7, #1
e001a958:	0a000003 	beq	e001a96c <decodeARMMMUInvocation+0xfe8>
e001a95c:	e3570003 	cmp	r7, #3
e001a960:	0a00000d 	beq	e001a99c <decodeARMMMUInvocation+0x1018>
e001a964:	e3a03000 	mov	r3, #0
e001a968:	ea000002 	b	e001a978 <decodeARMMMUInvocation+0xff4>
e001a96c:	e1a03404 	lsl	r3, r4, #8
e001a970:	e3c33eff 	bic	r3, r3, #4080	; 0xff0
e001a974:	e3c3300f 	bic	r3, r3, #15
e001a978:	e3012b34 	movw	r2, #6964	; 0x1b34
e001a97c:	e34e2003 	movt	r2, #57347	; 0xe003
e001a980:	e5922000 	ldr	r2, [r2]
e001a984:	e2833203 	add	r3, r3, #805306368	; 0x30000000
e001a988:	e5823008 	str	r3, [r2, #8]
e001a98c:	e3a03001 	mov	r3, #1
e001a990:	e5823004 	str	r3, [r2, #4]
e001a994:	e3a06000 	mov	r6, #0
e001a998:	ea0000e0 	b	e001ad20 <decodeARMMMUInvocation+0x139c>
e001a99c:	e1a03504 	lsl	r3, r4, #10
e001a9a0:	e3c33dff 	bic	r3, r3, #16320	; 0x3fc0
e001a9a4:	e3c3303f 	bic	r3, r3, #63	; 0x3f
e001a9a8:	eafffff2 	b	e001a978 <decodeARMMMUInvocation+0xff4>
e001a9ac:	e3093030 	movw	r3, #36912	; 0x9030
e001a9b0:	e34e3002 	movt	r3, #57346	; 0xe002
e001a9b4:	e3a06003 	mov	r6, #3
e001a9b8:	e5836018 	str	r6, [r3, #24]
e001a9bc:	ea0000d7 	b	e001ad20 <decodeARMMMUInvocation+0x139c>
e001a9c0:	e350002c 	cmp	r0, #44	; 0x2c
e001a9c4:	13093030 	movwne	r3, #36912	; 0x9030
e001a9c8:	134e3002 	movtne	r3, #57346	; 0xe002
e001a9cc:	13a06003 	movne	r6, #3
e001a9d0:	15836018 	strne	r6, [r3, #24]
e001a9d4:	1a0000d1 	bne	e001ad20 <decodeARMMMUInvocation+0x139c>
e001a9d8:	e59d207c 	ldr	r2, [sp, #124]	; 0x7c
e001a9dc:	e16f3f12 	clz	r3, r2
e001a9e0:	e1a032a3 	lsr	r3, r3, #5
e001a9e4:	e3590000 	cmp	r9, #0
e001a9e8:	03a03001 	moveq	r3, #1
e001a9ec:	e3510001 	cmp	r1, #1
e001a9f0:	81a01003 	movhi	r1, r3
e001a9f4:	93831001 	orrls	r1, r3, #1
e001a9f8:	e3510000 	cmp	r1, #0
e001a9fc:	1a00001d 	bne	e001aa78 <decodeARMMMUInvocation+0x10f4>
e001aa00:	e3013b34 	movw	r3, #6964	; 0x1b34
e001aa04:	e34e3003 	movt	r3, #57347	; 0xe003
e001aa08:	e5933000 	ldr	r3, [r3]
e001aa0c:	e5937008 	ldr	r7, [r3, #8]
e001aa10:	e593800c 	ldr	r8, [r3, #12]
e001aa14:	e5995000 	ldr	r5, [r9]
e001aa18:	e599c004 	ldr	ip, [r9, #4]
e001aa1c:	e28d3028 	add	r3, sp, #40	; 0x28
e001aa20:	e8920003 	ldm	r2, {r0, r1}
e001aa24:	e8830003 	stm	r3, {r0, r1}
e001aa28:	e30932d8 	movw	r3, #37592	; 0x92d8
e001aa2c:	e34e3002 	movt	r3, #57346	; 0xe002
e001aa30:	e5933000 	ldr	r3, [r3]
e001aa34:	e3530000 	cmp	r3, #0
e001aa38:	0a000029 	beq	e001aae4 <decodeARMMMUInvocation+0x1160>
e001aa3c:	e30932d8 	movw	r3, #37592	; 0x92d8
e001aa40:	e34e3002 	movt	r3, #57346	; 0xe002
e001aa44:	e3a04001 	mov	r4, #1
e001aa48:	e5b32004 	ldr	r2, [r3, #4]!
e001aa4c:	e3520000 	cmp	r2, #0
e001aa50:	0a00000e 	beq	e001aa90 <decodeARMMMUInvocation+0x110c>
e001aa54:	e2844001 	add	r4, r4, #1
e001aa58:	e3540080 	cmp	r4, #128	; 0x80
e001aa5c:	1afffff9 	bne	e001aa48 <decodeARMMMUInvocation+0x10c4>
e001aa60:	e3093030 	movw	r3, #36912	; 0x9030
e001aa64:	e34e3002 	movt	r3, #57346	; 0xe002
e001aa68:	e3a02008 	mov	r2, #8
e001aa6c:	e5832018 	str	r2, [r3, #24]
e001aa70:	e3a06003 	mov	r6, #3
e001aa74:	ea0000a9 	b	e001ad20 <decodeARMMMUInvocation+0x139c>
e001aa78:	e3093030 	movw	r3, #36912	; 0x9030
e001aa7c:	e34e3002 	movt	r3, #57346	; 0xe002
e001aa80:	e3a02007 	mov	r2, #7
e001aa84:	e5832018 	str	r2, [r3, #24]
e001aa88:	e3a06003 	mov	r6, #3
e001aa8c:	ea0000a3 	b	e001ad20 <decodeARMMMUInvocation+0x139c>
e001aa90:	e3540080 	cmp	r4, #128	; 0x80
e001aa94:	0afffff1 	beq	e001aa60 <decodeARMMMUInvocation+0x10dc>
e001aa98:	e205300e 	and	r3, r5, #14
e001aa9c:	e353000e 	cmp	r3, #14
e001aaa0:	1205300f 	andne	r3, r5, #15
e001aaa4:	06ef3075 	uxtbeq	r3, r5
e001aaa8:	e3530002 	cmp	r3, #2
e001aaac:	1a000004 	bne	e001aac4 <decodeARMMMUInvocation+0x1140>
e001aab0:	e20c301f 	and	r3, ip, #31
e001aab4:	e353000c 	cmp	r3, #12
e001aab8:	1a000001 	bne	e001aac4 <decodeARMMMUInvocation+0x1140>
e001aabc:	e31c0020 	tst	ip, #32
e001aac0:	0a000009 	beq	e001aaec <decodeARMMMUInvocation+0x1168>
e001aac4:	e3093030 	movw	r3, #36912	; 0x9030
e001aac8:	e34e3002 	movt	r3, #57346	; 0xe002
e001aacc:	e3a02002 	mov	r2, #2
e001aad0:	e5832018 	str	r2, [r3, #24]
e001aad4:	e3a02001 	mov	r2, #1
e001aad8:	e5832004 	str	r2, [r3, #4]
e001aadc:	e3a06003 	mov	r6, #3
e001aae0:	ea00008e 	b	e001ad20 <decodeARMMMUInvocation+0x139c>
e001aae4:	e3a04000 	mov	r4, #0
e001aae8:	eaffffea 	b	e001aa98 <decodeARMMMUInvocation+0x1114>
e001aaec:	e1a00009 	mov	r0, r9
e001aaf0:	ebffe676 	bl	e00144d0 <ensureNoChildren>
e001aaf4:	e2506000 	subs	r6, r0, #0
e001aaf8:	1a000088 	bne	e001ad20 <decodeARMMMUInvocation+0x139c>
e001aafc:	e3c5500f 	bic	r5, r5, #15
e001ab00:	e58d8000 	str	r8, [sp]
e001ab04:	e1a03007 	mov	r3, r7
e001ab08:	e28d2028 	add	r2, sp, #40	; 0x28
e001ab0c:	e8920006 	ldm	r2, {r1, r2}
e001ab10:	e28d0030 	add	r0, sp, #48	; 0x30
e001ab14:	ebffe15f 	bl	e0013098 <lookupTargetSlot>
e001ab18:	e59d6030 	ldr	r6, [sp, #48]	; 0x30
e001ab1c:	e3560000 	cmp	r6, #0
e001ab20:	1a00007e 	bne	e001ad20 <decodeARMMMUInvocation+0x139c>
e001ab24:	e59d7034 	ldr	r7, [sp, #52]	; 0x34
e001ab28:	e1a00007 	mov	r0, r7
e001ab2c:	ebffe302 	bl	e001373c <ensureEmptySlot>
e001ab30:	e2506000 	subs	r6, r0, #0
e001ab34:	1a000079 	bne	e001ad20 <decodeARMMMUInvocation+0x139c>
e001ab38:	e3013b34 	movw	r3, #6964	; 0x1b34
e001ab3c:	e34e3003 	movt	r3, #57347	; 0xe003
e001ab40:	e3a01002 	mov	r1, #2
e001ab44:	e5930000 	ldr	r0, [r3]
e001ab48:	ebffe86e 	bl	e0014d08 <setThreadState>
e001ab4c:	e5993004 	ldr	r3, [r9, #4]
e001ab50:	e203201f 	and	r2, r3, #31
e001ab54:	e2422004 	sub	r2, r2, #4
e001ab58:	e203303f 	and	r3, r3, #63	; 0x3f
e001ab5c:	e3a01040 	mov	r1, #64	; 0x40
e001ab60:	e1833211 	orr	r3, r3, r1, lsl r2
e001ab64:	e5893004 	str	r3, [r9, #4]
e001ab68:	e3a01a01 	mov	r1, #4096	; 0x1000
e001ab6c:	e1a00005 	mov	r0, r5
e001ab70:	ebfffa31 	bl	e001943c <memzero>
e001ab74:	e3853005 	orr	r3, r5, #5
e001ab78:	e58d3040 	str	r3, [sp, #64]	; 0x40
e001ab7c:	e1a03504 	lsl	r3, r4, #10
e001ab80:	e7f03053 	ubfx	r3, r3, #0, #17
e001ab84:	e58d3044 	str	r3, [sp, #68]	; 0x44
e001ab88:	e1a03007 	mov	r3, r7
e001ab8c:	e1a02009 	mov	r2, r9
e001ab90:	e28d1048 	add	r1, sp, #72	; 0x48
e001ab94:	e9110003 	ldmdb	r1, {r0, r1}
e001ab98:	ebffe18f 	bl	e00131dc <cteInsert>
e001ab9c:	e30932d8 	movw	r3, #37592	; 0x92d8
e001aba0:	e34e3002 	movt	r3, #57346	; 0xe002
e001aba4:	e7f54054 	ubfx	r4, r4, #0, #22
e001aba8:	e7835104 	str	r5, [r3, r4, lsl #2]
e001abac:	ea00005b 	b	e001ad20 <decodeARMMMUInvocation+0x139c>
e001abb0:	e350002d 	cmp	r0, #45	; 0x2d
e001abb4:	13093030 	movwne	r3, #36912	; 0x9030
e001abb8:	134e3002 	movtne	r3, #57346	; 0xe002
e001abbc:	13a06003 	movne	r6, #3
e001abc0:	15836018 	strne	r6, [r3, #24]
e001abc4:	1a000055 	bne	e001ad20 <decodeARMMMUInvocation+0x139c>
e001abc8:	e3590000 	cmp	r9, #0
e001abcc:	0a00001b 	beq	e001ac40 <decodeARMMMUInvocation+0x12bc>
e001abd0:	e5993000 	ldr	r3, [r9]
e001abd4:	e203200e 	and	r2, r3, #14
e001abd8:	e352000e 	cmp	r2, #14
e001abdc:	1203200f 	andne	r2, r3, #15
e001abe0:	06ef2073 	uxtbeq	r2, r3
e001abe4:	e3520009 	cmp	r2, #9
e001abe8:	1a00001a 	bne	e001ac58 <decodeARMMMUInvocation+0x12d4>
e001abec:	e3130010 	tst	r3, #16
e001abf0:	1a000018 	bne	e001ac58 <decodeARMMMUInvocation+0x12d4>
e001abf4:	e7f05055 	ubfx	r5, r5, #0, #17
e001abf8:	e30932d8 	movw	r3, #37592	; 0x92d8
e001abfc:	e34e3002 	movt	r3, #57346	; 0xe002
e001ac00:	e1a02525 	lsr	r2, r5, #10
e001ac04:	e7936102 	ldr	r6, [r3, r2, lsl #2]
e001ac08:	e3560000 	cmp	r6, #0
e001ac0c:	0a000019 	beq	e001ac78 <decodeARMMMUInvocation+0x12f4>
e001ac10:	e3c4400f 	bic	r4, r4, #15
e001ac14:	e1560004 	cmp	r6, r4
e001ac18:	03a03000 	moveq	r3, #0
e001ac1c:	0a000024 	beq	e001acb4 <decodeARMMMUInvocation+0x1330>
e001ac20:	e3093030 	movw	r3, #36912	; 0x9030
e001ac24:	e34e3002 	movt	r3, #57346	; 0xe002
e001ac28:	e3a02002 	mov	r2, #2
e001ac2c:	e5832018 	str	r2, [r3, #24]
e001ac30:	e3a02000 	mov	r2, #0
e001ac34:	e5832004 	str	r2, [r3, #4]
e001ac38:	e3a06003 	mov	r6, #3
e001ac3c:	ea000037 	b	e001ad20 <decodeARMMMUInvocation+0x139c>
e001ac40:	e3093030 	movw	r3, #36912	; 0x9030
e001ac44:	e34e3002 	movt	r3, #57346	; 0xe002
e001ac48:	e3a02007 	mov	r2, #7
e001ac4c:	e5832018 	str	r2, [r3, #24]
e001ac50:	e3a06003 	mov	r6, #3
e001ac54:	ea000031 	b	e001ad20 <decodeARMMMUInvocation+0x139c>
e001ac58:	e3093030 	movw	r3, #36912	; 0x9030
e001ac5c:	e34e3002 	movt	r3, #57346	; 0xe002
e001ac60:	e3a02002 	mov	r2, #2
e001ac64:	e5832018 	str	r2, [r3, #24]
e001ac68:	e3a02001 	mov	r2, #1
e001ac6c:	e5832004 	str	r2, [r3, #4]
e001ac70:	e3a06003 	mov	r6, #3
e001ac74:	ea000029 	b	e001ad20 <decodeARMMMUInvocation+0x139c>
e001ac78:	e3093030 	movw	r3, #36912	; 0x9030
e001ac7c:	e34e3002 	movt	r3, #57346	; 0xe002
e001ac80:	e3a02006 	mov	r2, #6
e001ac84:	e5832018 	str	r2, [r3, #24]
e001ac88:	e3a02000 	mov	r2, #0
e001ac8c:	e5832014 	str	r2, [r3, #20]
e001ac90:	e3093024 	movw	r3, #36900	; 0x9024
e001ac94:	e34e3002 	movt	r3, #57346	; 0xe002
e001ac98:	e5832000 	str	r2, [r3]
e001ac9c:	e5832004 	str	r2, [r3, #4]
e001aca0:	e3a06003 	mov	r6, #3
e001aca4:	ea00001d 	b	e001ad20 <decodeARMMMUInvocation+0x139c>
e001aca8:	e2833001 	add	r3, r3, #1
e001acac:	e3530b01 	cmp	r3, #1024	; 0x400
e001acb0:	0a00001d 	beq	e001ad2c <decodeARMMMUInvocation+0x13a8>
e001acb4:	e1750003 	cmn	r5, r3
e001acb8:	0afffffa 	beq	e001aca8 <decodeARMMMUInvocation+0x1324>
e001acbc:	e7962103 	ldr	r2, [r6, r3, lsl #2]
e001acc0:	e3520000 	cmp	r2, #0
e001acc4:	1afffff7 	bne	e001aca8 <decodeARMMMUInvocation+0x1324>
e001acc8:	e3530b01 	cmp	r3, #1024	; 0x400
e001accc:	0a000016 	beq	e001ad2c <decodeARMMMUInvocation+0x13a8>
e001acd0:	e0855003 	add	r5, r5, r3
e001acd4:	e3013b34 	movw	r3, #6964	; 0x1b34
e001acd8:	e34e3003 	movt	r3, #57347	; 0xe003
e001acdc:	e3a01002 	mov	r1, #2
e001ace0:	e5930000 	ldr	r0, [r3]
e001ace4:	ebffe807 	bl	e0014d08 <setThreadState>
e001ace8:	e5993004 	ldr	r3, [r9, #4]
e001acec:	e1a038a3 	lsr	r3, r3, #17
e001acf0:	e1a03883 	lsl	r3, r3, #17
e001acf4:	e7f02055 	ubfx	r2, r5, #0, #17
e001acf8:	e1833002 	orr	r3, r3, r2
e001acfc:	e5893004 	str	r3, [r9, #4]
e001ad00:	e5992000 	ldr	r2, [r9]
e001ad04:	e3823010 	orr	r3, r2, #16
e001ad08:	e5893000 	str	r3, [r9]
e001ad0c:	e7e95055 	ubfx	r5, r5, #0, #10
e001ad10:	e3c22dff 	bic	r2, r2, #16320	; 0x3fc0
e001ad14:	e3c2203f 	bic	r2, r2, #63	; 0x3f
e001ad18:	e7862105 	str	r2, [r6, r5, lsl #2]
e001ad1c:	e3a06000 	mov	r6, #0
e001ad20:	e1a00006 	mov	r0, r6
e001ad24:	e28dd04c 	add	sp, sp, #76	; 0x4c
e001ad28:	e8bd8ff0 	pop	{r4, r5, r6, r7, r8, r9, sl, fp, pc}
e001ad2c:	e3093030 	movw	r3, #36912	; 0x9030
e001ad30:	e34e3002 	movt	r3, #57346	; 0xe002
e001ad34:	e3a02008 	mov	r2, #8
e001ad38:	e5832018 	str	r2, [r3, #24]
e001ad3c:	e3a06003 	mov	r6, #3
e001ad40:	eafffff6 	b	e001ad20 <decodeARMMMUInvocation+0x139c>
e001ad44:	ebffd6c9 	bl	e0010870 <halt>
e001ad48:	e3caaeff 	bic	sl, sl, #4080	; 0xff0
e001ad4c:	e3caa00f 	bic	sl, sl, #15
e001ad50:	e3a0b00c 	mov	fp, #12
e001ad54:	eafffb60 	b	e0019adc <decodeARMMMUInvocation+0x158>
e001ad58:	e1a0a82a 	lsr	sl, sl, #16
e001ad5c:	e1a0a80a 	lsl	sl, sl, #16
e001ad60:	e3a0b010 	mov	fp, #16
e001ad64:	eafffb5c 	b	e0019adc <decodeARMMMUInvocation+0x158>
e001ad68:	e0801102 	add	r1, r0, r2, lsl #2
e001ad6c:	e2802203 	add	r2, r0, #805306368	; 0x30000000
e001ad70:	e2411001 	sub	r1, r1, #1
e001ad74:	ebffdd71 	bl	e0012340 <cleanCacheRange_PoU>
e001ad78:	ea00000d 	b	e001adb4 <decodeARMMMUInvocation+0x1430>
e001ad7c:	e3a08001 	mov	r8, #1
e001ad80:	e3520000 	cmp	r2, #0
e001ad84:	0afffff7 	beq	e001ad68 <decodeARMMMUInvocation+0x13e4>
e001ad88:	e1a03000 	mov	r3, r0
e001ad8c:	e080c102 	add	ip, r0, r2, lsl #2
e001ad90:	e4831004 	str	r1, [r3], #4
e001ad94:	e153000c 	cmp	r3, ip
e001ad98:	1afffffc 	bne	e001ad90 <decodeARMMMUInvocation+0x140c>
e001ad9c:	e0801102 	add	r1, r0, r2, lsl #2
e001ada0:	e2802203 	add	r2, r0, #805306368	; 0x30000000
e001ada4:	e2411001 	sub	r1, r1, #1
e001ada8:	ebffdd64 	bl	e0012340 <cleanCacheRange_PoU>
e001adac:	e3580002 	cmp	r8, #2
e001adb0:	0affffda 	beq	e001ad20 <decodeARMMMUInvocation+0x139c>
e001adb4:	e1a00009 	mov	r0, r9
e001adb8:	ebffda4e 	bl	e00116f8 <invalidateTLBByASID>
e001adbc:	eaffffd7 	b	e001ad20 <decodeARMMMUInvocation+0x139c>
e001adc0:	e0801102 	add	r1, r0, r2, lsl #2
e001adc4:	e2802203 	add	r2, r0, #805306368	; 0x30000000
e001adc8:	e2411001 	sub	r1, r1, #1
e001adcc:	ebffdd5b 	bl	e0012340 <cleanCacheRange_PoU>
e001add0:	ea00000d 	b	e001ae0c <decodeARMMMUInvocation+0x1488>
e001add4:	e3a04001 	mov	r4, #1
e001add8:	e3520000 	cmp	r2, #0
e001addc:	0afffff7 	beq	e001adc0 <decodeARMMMUInvocation+0x143c>
e001ade0:	e1a03000 	mov	r3, r0
e001ade4:	e080c102 	add	ip, r0, r2, lsl #2
e001ade8:	e4831004 	str	r1, [r3], #4
e001adec:	e153000c 	cmp	r3, ip
e001adf0:	1afffffc 	bne	e001ade8 <decodeARMMMUInvocation+0x1464>
e001adf4:	e0801102 	add	r1, r0, r2, lsl #2
e001adf8:	e2802203 	add	r2, r0, #805306368	; 0x30000000
e001adfc:	e2411001 	sub	r1, r1, #1
e001ae00:	ebffdd4e 	bl	e0012340 <cleanCacheRange_PoU>
e001ae04:	e3540002 	cmp	r4, #2
e001ae08:	0affffc4 	beq	e001ad20 <decodeARMMMUInvocation+0x139c>
e001ae0c:	e1a00008 	mov	r0, r8
e001ae10:	ebffda38 	bl	e00116f8 <invalidateTLBByASID>
e001ae14:	eaffffc1 	b	e001ad20 <decodeARMMMUInvocation+0x139c>
e001ae18:	e3a04000 	mov	r4, #0
e001ae1c:	eaffffed 	b	e001add8 <decodeARMMMUInvocation+0x1454>
e001ae20:	e3a02010 	mov	r2, #16
e001ae24:	e3a03001 	mov	r3, #1
e001ae28:	e1a03213 	lsl	r3, r3, r2
e001ae2c:	e1a04504 	lsl	r4, r4, #10
e001ae30:	e3c44dff 	bic	r4, r4, #16320	; 0x3fc0
e001ae34:	e3c4403f 	bic	r4, r4, #63	; 0x3f
e001ae38:	eafffe99 	b	e001a8a4 <decodeARMMMUInvocation+0xf20>
e001ae3c:	e3a02018 	mov	r2, #24
e001ae40:	eafffff7 	b	e001ae24 <decodeARMMMUInvocation+0x14a0>

e001ae44 <Arch_decodeInvocation>:
e001ae44:	e92d4030 	push	{r4, r5, lr}
e001ae48:	e24dd01c 	sub	sp, sp, #28
e001ae4c:	e1a0e000 	mov	lr, r0
e001ae50:	e1a04001 	mov	r4, r1
e001ae54:	e1a05002 	mov	r5, r2
e001ae58:	e59d2040 	ldr	r2, [sp, #64]	; 0x40
e001ae5c:	e58d2014 	str	r2, [sp, #20]
e001ae60:	e28dc008 	add	ip, sp, #8
e001ae64:	e28d2030 	add	r2, sp, #48	; 0x30
e001ae68:	e8920007 	ldm	r2, {r0, r1, r2}
e001ae6c:	e88c0007 	stm	ip, {r0, r1, r2}
e001ae70:	e28d2024 	add	r2, sp, #36	; 0x24
e001ae74:	e9920003 	ldmib	r2, {r0, r1}
e001ae78:	e88d0003 	stm	sp, {r0, r1}
e001ae7c:	e1a02005 	mov	r2, r5
e001ae80:	e1a01004 	mov	r1, r4
e001ae84:	e1a0000e 	mov	r0, lr
e001ae88:	ebfffabd 	bl	e0019984 <decodeARMMMUInvocation>
e001ae8c:	e28dd01c 	add	sp, sp, #28
e001ae90:	e8bd8030 	pop	{r4, r5, pc}

e001ae94 <decodeInvocation>:
e001ae94:	e92d40f0 	push	{r4, r5, r6, r7, lr}
e001ae98:	e24dd034 	sub	sp, sp, #52	; 0x34
e001ae9c:	e1a0c000 	mov	ip, r0
e001aea0:	e1a0e001 	mov	lr, r1
e001aea4:	e1a07002 	mov	r7, r2
e001aea8:	e1a06003 	mov	r6, r3
e001aeac:	e59d4048 	ldr	r4, [sp, #72]	; 0x48
e001aeb0:	e59d504c 	ldr	r5, [sp, #76]	; 0x4c
e001aeb4:	e204300e 	and	r3, r4, #14
e001aeb8:	e353000e 	cmp	r3, #14
e001aebc:	1204300f 	andne	r3, r4, #15
e001aec0:	06ef3074 	uxtbeq	r3, r4
e001aec4:	e3130001 	tst	r3, #1
e001aec8:	1a000041 	bne	e001afd4 <decodeInvocation+0x140>
e001aecc:	e353003e 	cmp	r3, #62	; 0x3e
e001aed0:	979ff103 	ldrls	pc, [pc, r3, lsl #2]
e001aed4:	ea0000e6 	b	e001b274 <decodeInvocation+0x3e0>
e001aed8:	e001b028 	.word	0xe001b028
e001aedc:	e001b274 	.word	0xe001b274
e001aee0:	e001b1f0 	.word	0xe001b1f0
e001aee4:	e001b274 	.word	0xe001b274
e001aee8:	e001b068 	.word	0xe001b068
e001aeec:	e001b274 	.word	0xe001b274
e001aef0:	e001b0cc 	.word	0xe001b0cc
e001aef4:	e001b274 	.word	0xe001b274
e001aef8:	e001b11c 	.word	0xe001b11c
e001aefc:	e001b274 	.word	0xe001b274
e001af00:	e001b1c4 	.word	0xe001b1c4
e001af04:	e001b274 	.word	0xe001b274
e001af08:	e001b16c 	.word	0xe001b16c
e001af0c:	e001b274 	.word	0xe001b274
e001af10:	e001b22c 	.word	0xe001b22c
e001af14:	e001b274 	.word	0xe001b274
e001af18:	e001b274 	.word	0xe001b274
e001af1c:	e001b274 	.word	0xe001b274
e001af20:	e001b274 	.word	0xe001b274
e001af24:	e001b274 	.word	0xe001b274
e001af28:	e001b274 	.word	0xe001b274
e001af2c:	e001b274 	.word	0xe001b274
e001af30:	e001b274 	.word	0xe001b274
e001af34:	e001b274 	.word	0xe001b274
e001af38:	e001b274 	.word	0xe001b274
e001af3c:	e001b274 	.word	0xe001b274
e001af40:	e001b274 	.word	0xe001b274
e001af44:	e001b274 	.word	0xe001b274
e001af48:	e001b274 	.word	0xe001b274
e001af4c:	e001b274 	.word	0xe001b274
e001af50:	e001b258 	.word	0xe001b258
e001af54:	e001b274 	.word	0xe001b274
e001af58:	e001b274 	.word	0xe001b274
e001af5c:	e001b274 	.word	0xe001b274
e001af60:	e001b274 	.word	0xe001b274
e001af64:	e001b274 	.word	0xe001b274
e001af68:	e001b274 	.word	0xe001b274
e001af6c:	e001b274 	.word	0xe001b274
e001af70:	e001b274 	.word	0xe001b274
e001af74:	e001b274 	.word	0xe001b274
e001af78:	e001b274 	.word	0xe001b274
e001af7c:	e001b274 	.word	0xe001b274
e001af80:	e001b274 	.word	0xe001b274
e001af84:	e001b274 	.word	0xe001b274
e001af88:	e001b274 	.word	0xe001b274
e001af8c:	e001b274 	.word	0xe001b274
e001af90:	e001b048 	.word	0xe001b048
e001af94:	e001b274 	.word	0xe001b274
e001af98:	e001b274 	.word	0xe001b274
e001af9c:	e001b274 	.word	0xe001b274
e001afa0:	e001b274 	.word	0xe001b274
e001afa4:	e001b274 	.word	0xe001b274
e001afa8:	e001b274 	.word	0xe001b274
e001afac:	e001b274 	.word	0xe001b274
e001afb0:	e001b274 	.word	0xe001b274
e001afb4:	e001b274 	.word	0xe001b274
e001afb8:	e001b274 	.word	0xe001b274
e001afbc:	e001b274 	.word	0xe001b274
e001afc0:	e001b274 	.word	0xe001b274
e001afc4:	e001b274 	.word	0xe001b274
e001afc8:	e001b274 	.word	0xe001b274
e001afcc:	e001b274 	.word	0xe001b274
e001afd0:	e001b1a4 	.word	0xe001b1a4
e001afd4:	e58d401c 	str	r4, [sp, #28]
e001afd8:	e58d5020 	str	r5, [sp, #32]
e001afdc:	e28d3024 	add	r3, sp, #36	; 0x24
e001afe0:	e28d2050 	add	r2, sp, #80	; 0x50
e001afe4:	e8920007 	ldm	r2, {r0, r1, r2}
e001afe8:	e8830007 	stm	r3, {r0, r1, r2}
e001afec:	e59d2064 	ldr	r2, [sp, #100]	; 0x64
e001aff0:	e58d2014 	str	r2, [sp, #20]
e001aff4:	e28d4008 	add	r4, sp, #8
e001aff8:	e8930007 	ldm	r3, {r0, r1, r2}
e001affc:	e8840007 	stm	r4, {r0, r1, r2}
e001b000:	e28d301c 	add	r3, sp, #28
e001b004:	e8930003 	ldm	r3, {r0, r1}
e001b008:	e88d0003 	stm	sp, {r0, r1}
e001b00c:	e1a03006 	mov	r3, r6
e001b010:	e1a02007 	mov	r2, r7
e001b014:	e1a0100e 	mov	r1, lr
e001b018:	e1a0000c 	mov	r0, ip
e001b01c:	ebfffa58 	bl	e0019984 <decodeARMMMUInvocation>
e001b020:	e28dd034 	add	sp, sp, #52	; 0x34
e001b024:	e8bd80f0 	pop	{r4, r5, r6, r7, pc}
e001b028:	e3093030 	movw	r3, #36912	; 0x9030
e001b02c:	e34e3002 	movt	r3, #57346	; 0xe002
e001b030:	e3a02002 	mov	r2, #2
e001b034:	e5832018 	str	r2, [r3, #24]
e001b038:	e3a02000 	mov	r2, #0
e001b03c:	e5832004 	str	r2, [r3, #4]
e001b040:	e3a00003 	mov	r0, #3
e001b044:	eafffff5 	b	e001b020 <decodeInvocation+0x18c>
e001b048:	e3093030 	movw	r3, #36912	; 0x9030
e001b04c:	e34e3002 	movt	r3, #57346	; 0xe002
e001b050:	e3a02002 	mov	r2, #2
e001b054:	e5832018 	str	r2, [r3, #24]
e001b058:	e3a02000 	mov	r2, #0
e001b05c:	e5832004 	str	r2, [r3, #4]
e001b060:	e3a00003 	mov	r0, #3
e001b064:	eaffffed 	b	e001b020 <decodeInvocation+0x18c>
e001b068:	e3150001 	tst	r5, #1
e001b06c:	0a00000e 	beq	e001b0ac <decodeInvocation+0x218>
e001b070:	e3013b34 	movw	r3, #6964	; 0x1b34
e001b074:	e34e3003 	movt	r3, #57347	; 0xe003
e001b078:	e3a01002 	mov	r1, #2
e001b07c:	e5930000 	ldr	r0, [r3]
e001b080:	ebffe720 	bl	e0014d08 <setThreadState>
e001b084:	e59d3060 	ldr	r3, [sp, #96]	; 0x60
e001b088:	e58d3004 	str	r3, [sp, #4]
e001b08c:	e59d305c 	ldr	r3, [sp, #92]	; 0x5c
e001b090:	e58d3000 	str	r3, [sp]
e001b094:	e7e031d5 	ubfx	r3, r5, #3, #1
e001b098:	e7e02155 	ubfx	r2, r5, #2, #1
e001b09c:	e1a01224 	lsr	r1, r4, #4
e001b0a0:	e3c5000f 	bic	r0, r5, #15
e001b0a4:	ebfff162 	bl	e0017634 <performInvocation_Endpoint>
e001b0a8:	eaffffdc 	b	e001b020 <decodeInvocation+0x18c>
e001b0ac:	e3093030 	movw	r3, #36912	; 0x9030
e001b0b0:	e34e3002 	movt	r3, #57346	; 0xe002
e001b0b4:	e3a02002 	mov	r2, #2
e001b0b8:	e5832018 	str	r2, [r3, #24]
e001b0bc:	e3a02000 	mov	r2, #0
e001b0c0:	e5832004 	str	r2, [r3, #4]
e001b0c4:	e3a00003 	mov	r0, #3
e001b0c8:	eaffffd4 	b	e001b020 <decodeInvocation+0x18c>
e001b0cc:	e3150001 	tst	r5, #1
e001b0d0:	0a000009 	beq	e001b0fc <decodeInvocation+0x268>
e001b0d4:	e3013b34 	movw	r3, #6964	; 0x1b34
e001b0d8:	e34e3003 	movt	r3, #57347	; 0xe003
e001b0dc:	e3a01002 	mov	r1, #2
e001b0e0:	e5930000 	ldr	r0, [r3]
e001b0e4:	ebffe707 	bl	e0014d08 <setThreadState>
e001b0e8:	e1a01225 	lsr	r1, r5, #4
e001b0ec:	e3c4000f 	bic	r0, r4, #15
e001b0f0:	ebffee22 	bl	e0016980 <sendSignal>
e001b0f4:	e3a00000 	mov	r0, #0
e001b0f8:	eaffffc8 	b	e001b020 <decodeInvocation+0x18c>
e001b0fc:	e3093030 	movw	r3, #36912	; 0x9030
e001b100:	e34e3002 	movt	r3, #57346	; 0xe002
e001b104:	e3a02002 	mov	r2, #2
e001b108:	e5832018 	str	r2, [r3, #24]
e001b10c:	e3a02000 	mov	r2, #0
e001b110:	e5832004 	str	r2, [r3, #4]
e001b114:	e3a00003 	mov	r0, #3
e001b118:	eaffffc0 	b	e001b020 <decodeInvocation+0x18c>
e001b11c:	e3140010 	tst	r4, #16
e001b120:	1a000009 	bne	e001b14c <decodeInvocation+0x2b8>
e001b124:	e3013b34 	movw	r3, #6964	; 0x1b34
e001b128:	e34e3003 	movt	r3, #57347	; 0xe003
e001b12c:	e3a01002 	mov	r1, #2
e001b130:	e5930000 	ldr	r0, [r3]
e001b134:	ebffe6f3 	bl	e0014d08 <setThreadState>
e001b138:	e7e022d4 	ubfx	r2, r4, #5, #1
e001b13c:	e1a01006 	mov	r1, r6
e001b140:	e3c4003f 	bic	r0, r4, #63	; 0x3f
e001b144:	ebfff042 	bl	e0017254 <performInvocation_Reply>
e001b148:	eaffffb4 	b	e001b020 <decodeInvocation+0x18c>
e001b14c:	e3093030 	movw	r3, #36912	; 0x9030
e001b150:	e34e3002 	movt	r3, #57346	; 0xe002
e001b154:	e3a02002 	mov	r2, #2
e001b158:	e5832018 	str	r2, [r3, #24]
e001b15c:	e3a02000 	mov	r2, #0
e001b160:	e5832004 	str	r2, [r3, #4]
e001b164:	e3a00003 	mov	r0, #3
e001b168:	eaffffac 	b	e001b020 <decodeInvocation+0x18c>
e001b16c:	e59d3064 	ldr	r3, [sp, #100]	; 0x64
e001b170:	e58d3014 	str	r3, [sp, #20]
e001b174:	e59d3060 	ldr	r3, [sp, #96]	; 0x60
e001b178:	e58d3010 	str	r3, [sp, #16]
e001b17c:	e28d3050 	add	r3, sp, #80	; 0x50
e001b180:	e8930007 	ldm	r3, {r0, r1, r2}
e001b184:	e98d0007 	stmib	sp, {r0, r1, r2}
e001b188:	e58d6000 	str	r6, [sp]
e001b18c:	e28d3044 	add	r3, sp, #68	; 0x44
e001b190:	e993000c 	ldmib	r3, {r2, r3}
e001b194:	e1a0100e 	mov	r1, lr
e001b198:	e1a0000c 	mov	r0, ip
e001b19c:	ebfff734 	bl	e0018e74 <decodeTCBInvocation>
e001b1a0:	eaffff9e 	b	e001b020 <decodeInvocation+0x18c>
e001b1a4:	e59d3064 	ldr	r3, [sp, #100]	; 0x64
e001b1a8:	e58d3004 	str	r3, [sp, #4]
e001b1ac:	e59d3058 	ldr	r3, [sp, #88]	; 0x58
e001b1b0:	e58d3000 	str	r3, [sp]
e001b1b4:	e28d3050 	add	r3, sp, #80	; 0x50
e001b1b8:	e893000c 	ldm	r3, {r2, r3}
e001b1bc:	ebfff213 	bl	e0017a10 <decodeDomainInvocation>
e001b1c0:	eaffff96 	b	e001b020 <decodeInvocation+0x18c>
e001b1c4:	e59d3064 	ldr	r3, [sp, #100]	; 0x64
e001b1c8:	e58d300c 	str	r3, [sp, #12]
e001b1cc:	e28d3050 	add	r3, sp, #80	; 0x50
e001b1d0:	e8930007 	ldm	r3, {r0, r1, r2}
e001b1d4:	e88d0007 	stm	sp, {r0, r1, r2}
e001b1d8:	e28d3044 	add	r3, sp, #68	; 0x44
e001b1dc:	e993000c 	ldmib	r3, {r2, r3}
e001b1e0:	e1a0100e 	mov	r1, lr
e001b1e4:	e1a0000c 	mov	r0, ip
e001b1e8:	ebffeb7e 	bl	e0015fe8 <decodeCNodeInvocation>
e001b1ec:	eaffff8b 	b	e001b020 <decodeInvocation+0x18c>
e001b1f0:	e59d3064 	ldr	r3, [sp, #100]	; 0x64
e001b1f4:	e58d3014 	str	r3, [sp, #20]
e001b1f8:	e59d3060 	ldr	r3, [sp, #96]	; 0x60
e001b1fc:	e58d3010 	str	r3, [sp, #16]
e001b200:	e28d3050 	add	r3, sp, #80	; 0x50
e001b204:	e8930007 	ldm	r3, {r0, r1, r2}
e001b208:	e98d0007 	stmib	sp, {r0, r1, r2}
e001b20c:	e59d304c 	ldr	r3, [sp, #76]	; 0x4c
e001b210:	e58d3000 	str	r3, [sp]
e001b214:	e59d3048 	ldr	r3, [sp, #72]	; 0x48
e001b218:	e1a02006 	mov	r2, r6
e001b21c:	e1a0100e 	mov	r1, lr
e001b220:	e1a0000c 	mov	r0, ip
e001b224:	ebfff8e1 	bl	e00195b0 <decodeUntypedInvocation>
e001b228:	eaffff7c 	b	e001b020 <decodeInvocation+0x18c>
e001b22c:	e59d3064 	ldr	r3, [sp, #100]	; 0x64
e001b230:	e58d3008 	str	r3, [sp, #8]
e001b234:	e28d3054 	add	r3, sp, #84	; 0x54
e001b238:	e8930003 	ldm	r3, {r0, r1}
e001b23c:	e88d0003 	stm	sp, {r0, r1}
e001b240:	e59d3050 	ldr	r3, [sp, #80]	; 0x50
e001b244:	e1a02006 	mov	r2, r6
e001b248:	e1a0100e 	mov	r1, lr
e001b24c:	e1a0000c 	mov	r0, ip
e001b250:	ebffe725 	bl	e0014eec <decodeIRQControlInvocation>
e001b254:	eaffff71 	b	e001b020 <decodeInvocation+0x18c>
e001b258:	e59d3058 	ldr	r3, [sp, #88]	; 0x58
e001b25c:	e58d3000 	str	r3, [sp]
e001b260:	e28d3050 	add	r3, sp, #80	; 0x50
e001b264:	e893000c 	ldm	r3, {r2, r3}
e001b268:	e6ef1075 	uxtb	r1, r5
e001b26c:	ebffed57 	bl	e00167d0 <decodeIRQHandlerInvocation>
e001b270:	eaffff6a 	b	e001b020 <decodeInvocation+0x18c>
e001b274:	ebffd57d 	bl	e0010870 <halt>

e001b278 <handleInvocation>:
e001b278:	e92d4ff0 	push	{r4, r5, r6, r7, r8, r9, sl, fp, lr}
e001b27c:	e24dd034 	sub	sp, sp, #52	; 0x34
e001b280:	e1a08000 	mov	r8, r0
e001b284:	e1a0a001 	mov	sl, r1
e001b288:	e3013b34 	movw	r3, #6964	; 0x1b34
e001b28c:	e34e3003 	movt	r3, #57347	; 0xe003
e001b290:	e5934000 	ldr	r4, [r3]
e001b294:	e5945004 	ldr	r5, [r4, #4]
e001b298:	e205307f 	and	r3, r5, #127	; 0x7f
e001b29c:	e3530078 	cmp	r3, #120	; 0x78
e001b2a0:	83c5507f 	bichi	r5, r5, #127	; 0x7f
e001b2a4:	83855078 	orrhi	r5, r5, #120	; 0x78
e001b2a8:	e5947000 	ldr	r7, [r4]
e001b2ac:	e1a02007 	mov	r2, r7
e001b2b0:	e1a01004 	mov	r1, r4
e001b2b4:	e28d0020 	add	r0, sp, #32
e001b2b8:	ebffdef8 	bl	e0012ea0 <lookupCapAndSlot>
e001b2bc:	e59db020 	ldr	fp, [sp, #32]
e001b2c0:	e35b0000 	cmp	fp, #0
e001b2c4:	1a00002c 	bne	e001b37c <handleInvocation+0x104>
e001b2c8:	e1a01004 	mov	r1, r4
e001b2cc:	e3a00000 	mov	r0, #0
e001b2d0:	ebffd63e 	bl	e0010bd0 <lookupIPCBuffer>
e001b2d4:	e1a06000 	mov	r6, r0
e001b2d8:	e1a02005 	mov	r2, r5
e001b2dc:	e1a01000 	mov	r1, r0
e001b2e0:	e1a00004 	mov	r0, r4
e001b2e4:	ebffeea5 	bl	e0016d80 <lookupExtraCaps>
e001b2e8:	e2509000 	subs	r9, r0, #0
e001b2ec:	1a00002e 	bne	e001b3ac <handleInvocation+0x134>
e001b2f0:	e205e07f 	and	lr, r5, #127	; 0x7f
e001b2f4:	e35e0004 	cmp	lr, #4
e001b2f8:	93a03000 	movls	r3, #0
e001b2fc:	83a03001 	movhi	r3, #1
e001b300:	e3560000 	cmp	r6, #0
e001b304:	13a03000 	movne	r3, #0
e001b308:	e3530000 	cmp	r3, #0
e001b30c:	e58d601c 	str	r6, [sp, #28]
e001b310:	e58d8018 	str	r8, [sp, #24]
e001b314:	e58da014 	str	sl, [sp, #20]
e001b318:	e309304c 	movw	r3, #36940	; 0x904c
e001b31c:	e34e3002 	movt	r3, #57346	; 0xe002
e001b320:	e28dc008 	add	ip, sp, #8
e001b324:	e8930007 	ldm	r3, {r0, r1, r2}
e001b328:	e88c0007 	stm	ip, {r0, r1, r2}
e001b32c:	e28d3024 	add	r3, sp, #36	; 0x24
e001b330:	e8930003 	ldm	r3, {r0, r1}
e001b334:	e88d0003 	stm	sp, {r0, r1}
e001b338:	e59d302c 	ldr	r3, [sp, #44]	; 0x2c
e001b33c:	e1a02007 	mov	r2, r7
e001b340:	01a0100e 	moveq	r1, lr
e001b344:	13a01004 	movne	r1, #4
e001b348:	e1a00625 	lsr	r0, r5, #12
e001b34c:	ebfffed0 	bl	e001ae94 <decodeInvocation>
e001b350:	e3500004 	cmp	r0, #4
e001b354:	0a000028 	beq	e001b3fc <handleInvocation+0x184>
e001b358:	e3500003 	cmp	r0, #3
e001b35c:	0a000019 	beq	e001b3c8 <handleInvocation+0x150>
e001b360:	e5943050 	ldr	r3, [r4, #80]	; 0x50
e001b364:	e203300f 	and	r3, r3, #15
e001b368:	e3530002 	cmp	r3, #2
e001b36c:	0a00001a 	beq	e001b3dc <handleInvocation+0x164>
e001b370:	e1a00009 	mov	r0, r9
e001b374:	e28dd034 	add	sp, sp, #52	; 0x34
e001b378:	e8bd8ff0 	pop	{r4, r5, r6, r7, r8, r9, sl, fp, pc}
e001b37c:	e3083000 	movw	r3, #32768	; 0x8000
e001b380:	e34e3002 	movt	r3, #57346	; 0xe002
e001b384:	e3a02001 	mov	r2, #1
e001b388:	e5832000 	str	r2, [r3]
e001b38c:	e5837004 	str	r7, [r3, #4]
e001b390:	e35a0000 	cmp	sl, #0
e001b394:	03a09000 	moveq	r9, #0
e001b398:	0afffff4 	beq	e001b370 <handleInvocation+0xf8>
e001b39c:	e1a00004 	mov	r0, r4
e001b3a0:	ebfff06c 	bl	e0017558 <handleFault>
e001b3a4:	e3a09000 	mov	r9, #0
e001b3a8:	eafffff0 	b	e001b370 <handleInvocation+0xf8>
e001b3ac:	e35a0000 	cmp	sl, #0
e001b3b0:	01a0900b 	moveq	r9, fp
e001b3b4:	0affffed 	beq	e001b370 <handleInvocation+0xf8>
e001b3b8:	e1a00004 	mov	r0, r4
e001b3bc:	ebfff065 	bl	e0017558 <handleFault>
e001b3c0:	e1a0900b 	mov	r9, fp
e001b3c4:	eaffffe9 	b	e001b370 <handleInvocation+0xf8>
e001b3c8:	e3580000 	cmp	r8, #0
e001b3cc:	0affffe7 	beq	e001b370 <handleInvocation+0xf8>
e001b3d0:	e1a00004 	mov	r0, r4
e001b3d4:	ebfff7af 	bl	e0019298 <replyFromKernel_error>
e001b3d8:	eaffffe4 	b	e001b370 <handleInvocation+0xf8>
e001b3dc:	e3580000 	cmp	r8, #0
e001b3e0:	13a03000 	movne	r3, #0
e001b3e4:	15843000 	strne	r3, [r4]
e001b3e8:	15843004 	strne	r3, [r4, #4]
e001b3ec:	e3a01001 	mov	r1, #1
e001b3f0:	e1a00004 	mov	r0, r4
e001b3f4:	ebffe643 	bl	e0014d08 <setThreadState>
e001b3f8:	eaffffdc 	b	e001b370 <handleInvocation+0xf8>
e001b3fc:	e1a09000 	mov	r9, r0
e001b400:	eaffffda 	b	e001b370 <handleInvocation+0xf8>

e001b404 <handleSyscall>:
e001b404:	e92d4010 	push	{r4, lr}
e001b408:	e2800008 	add	r0, r0, #8
e001b40c:	e3500007 	cmp	r0, #7
e001b410:	979ff100 	ldrls	pc, [pc, r0, lsl #2]
e001b414:	ea000060 	b	e001b59c <handleSyscall+0x198>
e001b418:	e001b570 	.word	0xe001b570
e001b41c:	e001b57c 	.word	0xe001b57c
e001b420:	e001b558 	.word	0xe001b558
e001b424:	e001b540 	.word	0xe001b540
e001b428:	e001b490 	.word	0xe001b490
e001b42c:	e001b438 	.word	0xe001b438
e001b430:	e001b560 	.word	0xe001b560
e001b434:	e001b4e8 	.word	0xe001b4e8
e001b438:	e3a01001 	mov	r1, #1
e001b43c:	e3a00000 	mov	r0, #0
e001b440:	ebffff8c 	bl	e001b278 <handleInvocation>
e001b444:	e3500000 	cmp	r0, #0
e001b448:	0a00003e 	beq	e001b548 <handleSyscall+0x144>
e001b44c:	e30b3858 	movw	r3, #47192	; 0xb858
e001b450:	e34e3001 	movt	r3, #57345	; 0xe001
e001b454:	e5930000 	ldr	r0, [r3]
e001b458:	e7e90050 	ubfx	r0, r0, #0, #10
e001b45c:	e3500fff 	cmp	r0, #1020	; 0x3fc
e001b460:	3a000008 	bcc	e001b488 <handleSyscall+0x84>
e001b464:	e30031ff 	movw	r3, #511	; 0x1ff
e001b468:	e34f3ff0 	movt	r3, #65520	; 0xfff0
e001b46c:	e51300f3 	ldr	r0, [r3, #-243]	; 0xffffff0d
e001b470:	e30b3858 	movw	r3, #47192	; 0xb858
e001b474:	e34e3001 	movt	r3, #57345	; 0xe001
e001b478:	e5830000 	str	r0, [r3]
e001b47c:	e7e90050 	ubfx	r0, r0, #0, #10
e001b480:	e3500fff 	cmp	r0, #1020	; 0x3fc
e001b484:	2a00002f 	bcs	e001b548 <handleSyscall+0x144>
e001b488:	ebffed89 	bl	e0016ab4 <handleInterrupt>
e001b48c:	ea00002d 	b	e001b548 <handleSyscall+0x144>
e001b490:	e3a01000 	mov	r1, #0
e001b494:	e1a00001 	mov	r0, r1
e001b498:	ebffff76 	bl	e001b278 <handleInvocation>
e001b49c:	e3500000 	cmp	r0, #0
e001b4a0:	0a000028 	beq	e001b548 <handleSyscall+0x144>
e001b4a4:	e30b3858 	movw	r3, #47192	; 0xb858
e001b4a8:	e34e3001 	movt	r3, #57345	; 0xe001
e001b4ac:	e5930000 	ldr	r0, [r3]
e001b4b0:	e7e90050 	ubfx	r0, r0, #0, #10
e001b4b4:	e3500fff 	cmp	r0, #1020	; 0x3fc
e001b4b8:	3a000008 	bcc	e001b4e0 <handleSyscall+0xdc>
e001b4bc:	e30031ff 	movw	r3, #511	; 0x1ff
e001b4c0:	e34f3ff0 	movt	r3, #65520	; 0xfff0
e001b4c4:	e51300f3 	ldr	r0, [r3, #-243]	; 0xffffff0d
e001b4c8:	e30b3858 	movw	r3, #47192	; 0xb858
e001b4cc:	e34e3001 	movt	r3, #57345	; 0xe001
e001b4d0:	e5830000 	str	r0, [r3]
e001b4d4:	e7e90050 	ubfx	r0, r0, #0, #10
e001b4d8:	e3500fff 	cmp	r0, #1020	; 0x3fc
e001b4dc:	2a000019 	bcs	e001b548 <handleSyscall+0x144>
e001b4e0:	ebffed73 	bl	e0016ab4 <handleInterrupt>
e001b4e4:	ea000017 	b	e001b548 <handleSyscall+0x144>
e001b4e8:	e3a01001 	mov	r1, #1
e001b4ec:	e1a00001 	mov	r0, r1
e001b4f0:	ebffff60 	bl	e001b278 <handleInvocation>
e001b4f4:	e3500000 	cmp	r0, #0
e001b4f8:	0a000012 	beq	e001b548 <handleSyscall+0x144>
e001b4fc:	e30b3858 	movw	r3, #47192	; 0xb858
e001b500:	e34e3001 	movt	r3, #57345	; 0xe001
e001b504:	e5930000 	ldr	r0, [r3]
e001b508:	e7e90050 	ubfx	r0, r0, #0, #10
e001b50c:	e3500fff 	cmp	r0, #1020	; 0x3fc
e001b510:	3a000008 	bcc	e001b538 <handleSyscall+0x134>
e001b514:	e30031ff 	movw	r3, #511	; 0x1ff
e001b518:	e34f3ff0 	movt	r3, #65520	; 0xfff0
e001b51c:	e51300f3 	ldr	r0, [r3, #-243]	; 0xffffff0d
e001b520:	e30b3858 	movw	r3, #47192	; 0xb858
e001b524:	e34e3001 	movt	r3, #57345	; 0xe001
e001b528:	e5830000 	str	r0, [r3]
e001b52c:	e7e90050 	ubfx	r0, r0, #0, #10
e001b530:	e3500fff 	cmp	r0, #1020	; 0x3fc
e001b534:	2a000003 	bcs	e001b548 <handleSyscall+0x144>
e001b538:	ebffed5d 	bl	e0016ab4 <handleInterrupt>
e001b53c:	ea000001 	b	e001b548 <handleSyscall+0x144>
e001b540:	e3a00001 	mov	r0, #1
e001b544:	ebfff0bf 	bl	e0017848 <handleRecv>
e001b548:	ebffe7f9 	bl	e0015534 <schedule>
e001b54c:	ebffe654 	bl	e0014ea4 <activateThread>
e001b550:	e3a00000 	mov	r0, #0
e001b554:	e8bd8010 	pop	{r4, pc}
e001b558:	ebffef26 	bl	e00171f8 <handleReply>
e001b55c:	eafffff9 	b	e001b548 <handleSyscall+0x144>
e001b560:	ebffef24 	bl	e00171f8 <handleReply>
e001b564:	e3a00001 	mov	r0, #1
e001b568:	ebfff0b6 	bl	e0017848 <handleRecv>
e001b56c:	eafffff5 	b	e001b548 <handleSyscall+0x144>
e001b570:	e3a00000 	mov	r0, #0
e001b574:	ebfff0b3 	bl	e0017848 <handleRecv>
e001b578:	eafffff2 	b	e001b548 <handleSyscall+0x144>
e001b57c:	e3014b34 	movw	r4, #6964	; 0x1b34
e001b580:	e34e4003 	movt	r4, #57347	; 0xe003
e001b584:	e5940000 	ldr	r0, [r4]
e001b588:	ebffe768 	bl	e0015330 <tcbSchedDequeue>
e001b58c:	e5940000 	ldr	r0, [r4]
e001b590:	ebffe722 	bl	e0015220 <tcbSchedAppend>
e001b594:	ebffe5b8 	bl	e0014c7c <rescheduleRequired>
e001b598:	eaffffea 	b	e001b548 <handleSyscall+0x144>
e001b59c:	ebffd4b3 	bl	e0010870 <halt>

e001b5a0 <slowpath>:
e001b5a0:	e92d4010 	push	{r4, lr}
e001b5a4:	ebffff96 	bl	e001b404 <handleSyscall>
e001b5a8:	ebffd4a5 	bl	e0010844 <restore_user_context>

e001b5ac <memset>:
e001b5ac:	e92d4010 	push	{r4, lr}
e001b5b0:	e1a04000 	mov	r4, r0
e001b5b4:	e3510000 	cmp	r1, #0
e001b5b8:	1a000006 	bne	e001b5d8 <memset+0x2c>
e001b5bc:	e1803002 	orr	r3, r0, r2
e001b5c0:	e3130003 	tst	r3, #3
e001b5c4:	1a000003 	bne	e001b5d8 <memset+0x2c>
e001b5c8:	e1a01002 	mov	r1, r2
e001b5cc:	ebfff79a 	bl	e001943c <memzero>
e001b5d0:	e1a00004 	mov	r0, r4
e001b5d4:	e8bd8010 	pop	{r4, pc}
e001b5d8:	e3520000 	cmp	r2, #0
e001b5dc:	10842002 	addne	r2, r4, r2
e001b5e0:	11a03004 	movne	r3, r4
e001b5e4:	0afffff9 	beq	e001b5d0 <memset+0x24>
e001b5e8:	e4c31001 	strb	r1, [r3], #1
e001b5ec:	e1520003 	cmp	r2, r3
e001b5f0:	1afffffc 	bne	e001b5e8 <memset+0x3c>
e001b5f4:	eafffff5 	b	e001b5d0 <memset+0x24>

e001b5f8 <memcpy>:
e001b5f8:	e3520000 	cmp	r2, #0
e001b5fc:	012fff1e 	bxeq	lr
e001b600:	e2411001 	sub	r1, r1, #1
e001b604:	e0802002 	add	r2, r0, r2
e001b608:	e1a03000 	mov	r3, r0
e001b60c:	e5f1c001 	ldrb	ip, [r1, #1]!
e001b610:	e4c3c001 	strb	ip, [r3], #1
e001b614:	e1530002 	cmp	r3, r2
e001b618:	1afffffb 	bne	e001b60c <memcpy+0x14>
e001b61c:	e12fff1e 	bx	lr

e001b620 <strncmp>:
e001b620:	e3520000 	cmp	r2, #0
e001b624:	0a00001b 	beq	e001b698 <strncmp+0x78>
e001b628:	e52de004 	push	{lr}		; (str lr, [sp, #-4]!)
e001b62c:	e1a03000 	mov	r3, r0
e001b630:	e5d0e000 	ldrb	lr, [r0]
e001b634:	e5d1c000 	ldrb	ip, [r1]
e001b638:	e04e000c 	sub	r0, lr, ip
e001b63c:	e05ec00c 	subs	ip, lr, ip
e001b640:	13a0c001 	movne	ip, #1
e001b644:	e35e0000 	cmp	lr, #0
e001b648:	03a0c001 	moveq	ip, #1
e001b64c:	e35c0000 	cmp	ip, #0
e001b650:	149df004 	popne	{pc}		; (ldrne pc, [sp], #4)
e001b654:	e1a0e003 	mov	lr, r3
e001b658:	e2433001 	sub	r3, r3, #1
e001b65c:	e0832002 	add	r2, r3, r2
e001b660:	e15e0002 	cmp	lr, r2
e001b664:	0a000009 	beq	e001b690 <strncmp+0x70>
e001b668:	e5fec001 	ldrb	ip, [lr, #1]!
e001b66c:	e5f13001 	ldrb	r3, [r1, #1]!
e001b670:	e04c0003 	sub	r0, ip, r3
e001b674:	e05c3003 	subs	r3, ip, r3
e001b678:	13a03001 	movne	r3, #1
e001b67c:	e35c0000 	cmp	ip, #0
e001b680:	03a03001 	moveq	r3, #1
e001b684:	e3530000 	cmp	r3, #0
e001b688:	0afffff4 	beq	e001b660 <strncmp+0x40>
e001b68c:	e49df004 	pop	{pc}		; (ldr pc, [sp], #4)
e001b690:	e3a00000 	mov	r0, #0
e001b694:	e49df004 	pop	{pc}		; (ldr pc, [sp], #4)
e001b698:	e3a00000 	mov	r0, #0
e001b69c:	e12fff1e 	bx	lr

e001b6a0 <char_to_long>:
e001b6a0:	e2403030 	sub	r3, r0, #48	; 0x30
e001b6a4:	e6ef3073 	uxtb	r3, r3
e001b6a8:	e3530009 	cmp	r3, #9
e001b6ac:	9a000009 	bls	e001b6d8 <char_to_long+0x38>
e001b6b0:	e2403041 	sub	r3, r0, #65	; 0x41
e001b6b4:	e6ef3073 	uxtb	r3, r3
e001b6b8:	e3530005 	cmp	r3, #5
e001b6bc:	9a000007 	bls	e001b6e0 <char_to_long+0x40>
e001b6c0:	e2403061 	sub	r3, r0, #97	; 0x61
e001b6c4:	e6ef3073 	uxtb	r3, r3
e001b6c8:	e3530005 	cmp	r3, #5
e001b6cc:	92400057 	subls	r0, r0, #87	; 0x57
e001b6d0:	83e00000 	mvnhi	r0, #0
e001b6d4:	e12fff1e 	bx	lr
e001b6d8:	e2400030 	sub	r0, r0, #48	; 0x30
e001b6dc:	e12fff1e 	bx	lr
e001b6e0:	e2400037 	sub	r0, r0, #55	; 0x37
e001b6e4:	e12fff1e 	bx	lr

e001b6e8 <str_to_long>:
e001b6e8:	e92d4070 	push	{r4, r5, r6, lr}
e001b6ec:	e1a04000 	mov	r4, r0
e001b6f0:	e5d00000 	ldrb	r0, [r0]
e001b6f4:	e3500030 	cmp	r0, #48	; 0x30
e001b6f8:	13a0600a 	movne	r6, #10
e001b6fc:	0a00000c 	beq	e001b734 <str_to_long+0x4c>
e001b700:	e5d40000 	ldrb	r0, [r4]
e001b704:	e3500000 	cmp	r0, #0
e001b708:	0a000011 	beq	e001b754 <str_to_long+0x6c>
e001b70c:	e3a05000 	mov	r5, #0
e001b710:	ebffffe2 	bl	e001b6a0 <char_to_long>
e001b714:	e3700001 	cmn	r0, #1
e001b718:	11500006 	cmpne	r0, r6
e001b71c:	2a00000e 	bcs	e001b75c <str_to_long+0x74>
e001b720:	e0250596 	mla	r5, r6, r5, r0
e001b724:	e5f40001 	ldrb	r0, [r4, #1]!
e001b728:	e3500000 	cmp	r0, #0
e001b72c:	1afffff7 	bne	e001b710 <str_to_long+0x28>
e001b730:	ea00000a 	b	e001b760 <str_to_long+0x78>
e001b734:	e5d43001 	ldrb	r3, [r4, #1]
e001b738:	e20330df 	and	r3, r3, #223	; 0xdf
e001b73c:	e3530058 	cmp	r3, #88	; 0x58
e001b740:	02844002 	addeq	r4, r4, #2
e001b744:	03a06010 	moveq	r6, #16
e001b748:	0affffec 	beq	e001b700 <str_to_long+0x18>
e001b74c:	e3a0600a 	mov	r6, #10
e001b750:	eaffffed 	b	e001b70c <str_to_long+0x24>
e001b754:	e3e05000 	mvn	r5, #0
e001b758:	ea000000 	b	e001b760 <str_to_long+0x78>
e001b75c:	e3e05000 	mvn	r5, #0
e001b760:	e1a00005 	mov	r0, r5
e001b764:	e8bd8070 	pop	{r4, r5, r6, pc}
